ARM GAS  /var/folders/26/q55yrwgs1ql1lprjdslmzz800000gn/T//ccC08pEc.s 			page 1


   1              		.cpu cortex-m7
   2              		.arch armv7e-m
   3              		.fpu fpv5-d16
   4              		.eabi_attribute 28, 1
   5              		.eabi_attribute 20, 1
   6              		.eabi_attribute 21, 1
   7              		.eabi_attribute 23, 3
   8              		.eabi_attribute 24, 1
   9              		.eabi_attribute 25, 1
  10              		.eabi_attribute 26, 1
  11              		.eabi_attribute 30, 1
  12              		.eabi_attribute 34, 1
  13              		.eabi_attribute 18, 4
  14              		.file	"stm32h7xx_ll_usb.c"
  15              		.text
  16              	.Ltext0:
  17              		.cfi_sections	.debug_frame
  18              		.section	.text.USB_CoreReset,"ax",%progbits
  19              		.align	1
  20              		.syntax unified
  21              		.thumb
  22              		.thumb_func
  24              	USB_CoreReset:
  25              	.LVL0:
  26              	.LFB177:
  27              		.file 1 "Drivers/STM32H7xx_HAL_Driver/Src/stm32h7xx_ll_usb.c"
   1:Drivers/STM32H7xx_HAL_Driver/Src/stm32h7xx_ll_usb.c **** /**
   2:Drivers/STM32H7xx_HAL_Driver/Src/stm32h7xx_ll_usb.c ****   ******************************************************************************
   3:Drivers/STM32H7xx_HAL_Driver/Src/stm32h7xx_ll_usb.c ****   * @file    stm32h7xx_ll_usb.c
   4:Drivers/STM32H7xx_HAL_Driver/Src/stm32h7xx_ll_usb.c ****   * @author  MCD Application Team
   5:Drivers/STM32H7xx_HAL_Driver/Src/stm32h7xx_ll_usb.c ****   * @brief   USB Low Layer HAL module driver.
   6:Drivers/STM32H7xx_HAL_Driver/Src/stm32h7xx_ll_usb.c ****   *
   7:Drivers/STM32H7xx_HAL_Driver/Src/stm32h7xx_ll_usb.c ****   *          This file provides firmware functions to manage the following
   8:Drivers/STM32H7xx_HAL_Driver/Src/stm32h7xx_ll_usb.c ****   *          functionalities of the USB Peripheral Controller:
   9:Drivers/STM32H7xx_HAL_Driver/Src/stm32h7xx_ll_usb.c ****   *           + Initialization/de-initialization functions
  10:Drivers/STM32H7xx_HAL_Driver/Src/stm32h7xx_ll_usb.c ****   *           + I/O operation functions
  11:Drivers/STM32H7xx_HAL_Driver/Src/stm32h7xx_ll_usb.c ****   *           + Peripheral Control functions
  12:Drivers/STM32H7xx_HAL_Driver/Src/stm32h7xx_ll_usb.c ****   *           + Peripheral State functions
  13:Drivers/STM32H7xx_HAL_Driver/Src/stm32h7xx_ll_usb.c ****   *
  14:Drivers/STM32H7xx_HAL_Driver/Src/stm32h7xx_ll_usb.c ****   @verbatim
  15:Drivers/STM32H7xx_HAL_Driver/Src/stm32h7xx_ll_usb.c ****   ==============================================================================
  16:Drivers/STM32H7xx_HAL_Driver/Src/stm32h7xx_ll_usb.c ****                     ##### How to use this driver #####
  17:Drivers/STM32H7xx_HAL_Driver/Src/stm32h7xx_ll_usb.c ****   ==============================================================================
  18:Drivers/STM32H7xx_HAL_Driver/Src/stm32h7xx_ll_usb.c ****     [..]
  19:Drivers/STM32H7xx_HAL_Driver/Src/stm32h7xx_ll_usb.c ****       (#) Fill parameters of Init structure in USB_OTG_CfgTypeDef structure.
  20:Drivers/STM32H7xx_HAL_Driver/Src/stm32h7xx_ll_usb.c **** 
  21:Drivers/STM32H7xx_HAL_Driver/Src/stm32h7xx_ll_usb.c ****       (#) Call USB_CoreInit() API to initialize the USB Core peripheral.
  22:Drivers/STM32H7xx_HAL_Driver/Src/stm32h7xx_ll_usb.c **** 
  23:Drivers/STM32H7xx_HAL_Driver/Src/stm32h7xx_ll_usb.c ****       (#) The upper HAL HCD/PCD driver will call the right routines for its internal processes.
  24:Drivers/STM32H7xx_HAL_Driver/Src/stm32h7xx_ll_usb.c **** 
  25:Drivers/STM32H7xx_HAL_Driver/Src/stm32h7xx_ll_usb.c ****   @endverbatim
  26:Drivers/STM32H7xx_HAL_Driver/Src/stm32h7xx_ll_usb.c ****   ******************************************************************************
  27:Drivers/STM32H7xx_HAL_Driver/Src/stm32h7xx_ll_usb.c ****   * @attention
  28:Drivers/STM32H7xx_HAL_Driver/Src/stm32h7xx_ll_usb.c ****   *
  29:Drivers/STM32H7xx_HAL_Driver/Src/stm32h7xx_ll_usb.c ****   * <h2><center>&copy; Copyright (c) 2017 STMicroelectronics.
  30:Drivers/STM32H7xx_HAL_Driver/Src/stm32h7xx_ll_usb.c ****   * All rights reserved.</center></h2>
  31:Drivers/STM32H7xx_HAL_Driver/Src/stm32h7xx_ll_usb.c ****   *
ARM GAS  /var/folders/26/q55yrwgs1ql1lprjdslmzz800000gn/T//ccC08pEc.s 			page 2


  32:Drivers/STM32H7xx_HAL_Driver/Src/stm32h7xx_ll_usb.c ****   * This software component is licensed by ST under BSD 3-Clause license,
  33:Drivers/STM32H7xx_HAL_Driver/Src/stm32h7xx_ll_usb.c ****   * the "License"; You may not use this file except in compliance with the
  34:Drivers/STM32H7xx_HAL_Driver/Src/stm32h7xx_ll_usb.c ****   * License. You may obtain a copy of the License at:
  35:Drivers/STM32H7xx_HAL_Driver/Src/stm32h7xx_ll_usb.c ****   *                        opensource.org/licenses/BSD-3-Clause
  36:Drivers/STM32H7xx_HAL_Driver/Src/stm32h7xx_ll_usb.c ****   *
  37:Drivers/STM32H7xx_HAL_Driver/Src/stm32h7xx_ll_usb.c ****   ******************************************************************************
  38:Drivers/STM32H7xx_HAL_Driver/Src/stm32h7xx_ll_usb.c ****   */
  39:Drivers/STM32H7xx_HAL_Driver/Src/stm32h7xx_ll_usb.c **** 
  40:Drivers/STM32H7xx_HAL_Driver/Src/stm32h7xx_ll_usb.c **** /* Includes ------------------------------------------------------------------*/
  41:Drivers/STM32H7xx_HAL_Driver/Src/stm32h7xx_ll_usb.c **** #include "stm32h7xx_hal.h"
  42:Drivers/STM32H7xx_HAL_Driver/Src/stm32h7xx_ll_usb.c **** 
  43:Drivers/STM32H7xx_HAL_Driver/Src/stm32h7xx_ll_usb.c **** /** @addtogroup STM32H7xx_LL_USB_DRIVER
  44:Drivers/STM32H7xx_HAL_Driver/Src/stm32h7xx_ll_usb.c ****   * @{
  45:Drivers/STM32H7xx_HAL_Driver/Src/stm32h7xx_ll_usb.c ****   */
  46:Drivers/STM32H7xx_HAL_Driver/Src/stm32h7xx_ll_usb.c **** 
  47:Drivers/STM32H7xx_HAL_Driver/Src/stm32h7xx_ll_usb.c **** #if defined (HAL_PCD_MODULE_ENABLED) || defined (HAL_HCD_MODULE_ENABLED)
  48:Drivers/STM32H7xx_HAL_Driver/Src/stm32h7xx_ll_usb.c **** #if defined (USB_OTG_FS) || defined (USB_OTG_HS)
  49:Drivers/STM32H7xx_HAL_Driver/Src/stm32h7xx_ll_usb.c **** /* Private typedef -----------------------------------------------------------*/
  50:Drivers/STM32H7xx_HAL_Driver/Src/stm32h7xx_ll_usb.c **** /* Private define ------------------------------------------------------------*/
  51:Drivers/STM32H7xx_HAL_Driver/Src/stm32h7xx_ll_usb.c **** /* Private macro -------------------------------------------------------------*/
  52:Drivers/STM32H7xx_HAL_Driver/Src/stm32h7xx_ll_usb.c **** /* Private variables ---------------------------------------------------------*/
  53:Drivers/STM32H7xx_HAL_Driver/Src/stm32h7xx_ll_usb.c **** /* Private function prototypes -----------------------------------------------*/
  54:Drivers/STM32H7xx_HAL_Driver/Src/stm32h7xx_ll_usb.c **** /* Private functions ---------------------------------------------------------*/
  55:Drivers/STM32H7xx_HAL_Driver/Src/stm32h7xx_ll_usb.c **** #if defined (USB_OTG_FS) || defined (USB_OTG_HS)
  56:Drivers/STM32H7xx_HAL_Driver/Src/stm32h7xx_ll_usb.c **** static HAL_StatusTypeDef USB_CoreReset(USB_OTG_GlobalTypeDef *USBx);
  57:Drivers/STM32H7xx_HAL_Driver/Src/stm32h7xx_ll_usb.c **** 
  58:Drivers/STM32H7xx_HAL_Driver/Src/stm32h7xx_ll_usb.c **** /* Exported functions --------------------------------------------------------*/
  59:Drivers/STM32H7xx_HAL_Driver/Src/stm32h7xx_ll_usb.c **** /** @defgroup USB_LL_Exported_Functions USB Low Layer Exported Functions
  60:Drivers/STM32H7xx_HAL_Driver/Src/stm32h7xx_ll_usb.c ****   * @{
  61:Drivers/STM32H7xx_HAL_Driver/Src/stm32h7xx_ll_usb.c ****   */
  62:Drivers/STM32H7xx_HAL_Driver/Src/stm32h7xx_ll_usb.c **** 
  63:Drivers/STM32H7xx_HAL_Driver/Src/stm32h7xx_ll_usb.c **** /** @defgroup USB_LL_Exported_Functions_Group1 Initialization/de-initialization functions
  64:Drivers/STM32H7xx_HAL_Driver/Src/stm32h7xx_ll_usb.c ****   *  @brief    Initialization and Configuration functions
  65:Drivers/STM32H7xx_HAL_Driver/Src/stm32h7xx_ll_usb.c ****   *
  66:Drivers/STM32H7xx_HAL_Driver/Src/stm32h7xx_ll_usb.c **** @verbatim
  67:Drivers/STM32H7xx_HAL_Driver/Src/stm32h7xx_ll_usb.c ****  ===============================================================================
  68:Drivers/STM32H7xx_HAL_Driver/Src/stm32h7xx_ll_usb.c ****                       ##### Initialization/de-initialization functions #####
  69:Drivers/STM32H7xx_HAL_Driver/Src/stm32h7xx_ll_usb.c ****  ===============================================================================
  70:Drivers/STM32H7xx_HAL_Driver/Src/stm32h7xx_ll_usb.c **** 
  71:Drivers/STM32H7xx_HAL_Driver/Src/stm32h7xx_ll_usb.c **** @endverbatim
  72:Drivers/STM32H7xx_HAL_Driver/Src/stm32h7xx_ll_usb.c ****   * @{
  73:Drivers/STM32H7xx_HAL_Driver/Src/stm32h7xx_ll_usb.c ****   */
  74:Drivers/STM32H7xx_HAL_Driver/Src/stm32h7xx_ll_usb.c **** 
  75:Drivers/STM32H7xx_HAL_Driver/Src/stm32h7xx_ll_usb.c **** /**
  76:Drivers/STM32H7xx_HAL_Driver/Src/stm32h7xx_ll_usb.c ****   * @brief  Initializes the USB Core
  77:Drivers/STM32H7xx_HAL_Driver/Src/stm32h7xx_ll_usb.c ****   * @param  USBx USB Instance
  78:Drivers/STM32H7xx_HAL_Driver/Src/stm32h7xx_ll_usb.c ****   * @param  cfg pointer to a USB_OTG_CfgTypeDef structure that contains
  79:Drivers/STM32H7xx_HAL_Driver/Src/stm32h7xx_ll_usb.c ****   *         the configuration information for the specified USBx peripheral.
  80:Drivers/STM32H7xx_HAL_Driver/Src/stm32h7xx_ll_usb.c ****   * @retval HAL status
  81:Drivers/STM32H7xx_HAL_Driver/Src/stm32h7xx_ll_usb.c ****   */
  82:Drivers/STM32H7xx_HAL_Driver/Src/stm32h7xx_ll_usb.c **** HAL_StatusTypeDef USB_CoreInit(USB_OTG_GlobalTypeDef *USBx, USB_OTG_CfgTypeDef cfg)
  83:Drivers/STM32H7xx_HAL_Driver/Src/stm32h7xx_ll_usb.c **** {
  84:Drivers/STM32H7xx_HAL_Driver/Src/stm32h7xx_ll_usb.c ****   HAL_StatusTypeDef ret;
  85:Drivers/STM32H7xx_HAL_Driver/Src/stm32h7xx_ll_usb.c **** 
  86:Drivers/STM32H7xx_HAL_Driver/Src/stm32h7xx_ll_usb.c ****   if (cfg.phy_itface == USB_OTG_ULPI_PHY)
  87:Drivers/STM32H7xx_HAL_Driver/Src/stm32h7xx_ll_usb.c ****   {
  88:Drivers/STM32H7xx_HAL_Driver/Src/stm32h7xx_ll_usb.c ****     USBx->GCCFG &= ~(USB_OTG_GCCFG_PWRDWN);
ARM GAS  /var/folders/26/q55yrwgs1ql1lprjdslmzz800000gn/T//ccC08pEc.s 			page 3


  89:Drivers/STM32H7xx_HAL_Driver/Src/stm32h7xx_ll_usb.c **** 
  90:Drivers/STM32H7xx_HAL_Driver/Src/stm32h7xx_ll_usb.c ****     /* Init The ULPI Interface */
  91:Drivers/STM32H7xx_HAL_Driver/Src/stm32h7xx_ll_usb.c ****     USBx->GUSBCFG &= ~(USB_OTG_GUSBCFG_TSDPS | USB_OTG_GUSBCFG_ULPIFSLS | USB_OTG_GUSBCFG_PHYSEL);
  92:Drivers/STM32H7xx_HAL_Driver/Src/stm32h7xx_ll_usb.c **** 
  93:Drivers/STM32H7xx_HAL_Driver/Src/stm32h7xx_ll_usb.c ****     /* Select vbus source */
  94:Drivers/STM32H7xx_HAL_Driver/Src/stm32h7xx_ll_usb.c ****     USBx->GUSBCFG &= ~(USB_OTG_GUSBCFG_ULPIEVBUSD | USB_OTG_GUSBCFG_ULPIEVBUSI);
  95:Drivers/STM32H7xx_HAL_Driver/Src/stm32h7xx_ll_usb.c ****     if (cfg.use_external_vbus == 1U)
  96:Drivers/STM32H7xx_HAL_Driver/Src/stm32h7xx_ll_usb.c ****     {
  97:Drivers/STM32H7xx_HAL_Driver/Src/stm32h7xx_ll_usb.c ****       USBx->GUSBCFG |= USB_OTG_GUSBCFG_ULPIEVBUSD;
  98:Drivers/STM32H7xx_HAL_Driver/Src/stm32h7xx_ll_usb.c ****     }
  99:Drivers/STM32H7xx_HAL_Driver/Src/stm32h7xx_ll_usb.c **** 
 100:Drivers/STM32H7xx_HAL_Driver/Src/stm32h7xx_ll_usb.c ****     /* Reset after a PHY select */
 101:Drivers/STM32H7xx_HAL_Driver/Src/stm32h7xx_ll_usb.c ****     ret = USB_CoreReset(USBx);
 102:Drivers/STM32H7xx_HAL_Driver/Src/stm32h7xx_ll_usb.c ****   }
 103:Drivers/STM32H7xx_HAL_Driver/Src/stm32h7xx_ll_usb.c ****   else /* FS interface (embedded Phy) */
 104:Drivers/STM32H7xx_HAL_Driver/Src/stm32h7xx_ll_usb.c ****   {
 105:Drivers/STM32H7xx_HAL_Driver/Src/stm32h7xx_ll_usb.c ****     /* Select FS Embedded PHY */
 106:Drivers/STM32H7xx_HAL_Driver/Src/stm32h7xx_ll_usb.c ****     USBx->GUSBCFG |= USB_OTG_GUSBCFG_PHYSEL;
 107:Drivers/STM32H7xx_HAL_Driver/Src/stm32h7xx_ll_usb.c **** 
 108:Drivers/STM32H7xx_HAL_Driver/Src/stm32h7xx_ll_usb.c ****     /* Reset after a PHY select */
 109:Drivers/STM32H7xx_HAL_Driver/Src/stm32h7xx_ll_usb.c ****     ret = USB_CoreReset(USBx);
 110:Drivers/STM32H7xx_HAL_Driver/Src/stm32h7xx_ll_usb.c **** 
 111:Drivers/STM32H7xx_HAL_Driver/Src/stm32h7xx_ll_usb.c ****     if (cfg.battery_charging_enable == 0U)
 112:Drivers/STM32H7xx_HAL_Driver/Src/stm32h7xx_ll_usb.c ****     {
 113:Drivers/STM32H7xx_HAL_Driver/Src/stm32h7xx_ll_usb.c ****       /* Activate the USB Transceiver */
 114:Drivers/STM32H7xx_HAL_Driver/Src/stm32h7xx_ll_usb.c ****       USBx->GCCFG |= USB_OTG_GCCFG_PWRDWN;
 115:Drivers/STM32H7xx_HAL_Driver/Src/stm32h7xx_ll_usb.c ****     }
 116:Drivers/STM32H7xx_HAL_Driver/Src/stm32h7xx_ll_usb.c ****     else
 117:Drivers/STM32H7xx_HAL_Driver/Src/stm32h7xx_ll_usb.c ****     {
 118:Drivers/STM32H7xx_HAL_Driver/Src/stm32h7xx_ll_usb.c ****       /* Deactivate the USB Transceiver */
 119:Drivers/STM32H7xx_HAL_Driver/Src/stm32h7xx_ll_usb.c ****       USBx->GCCFG &= ~(USB_OTG_GCCFG_PWRDWN);
 120:Drivers/STM32H7xx_HAL_Driver/Src/stm32h7xx_ll_usb.c ****     }
 121:Drivers/STM32H7xx_HAL_Driver/Src/stm32h7xx_ll_usb.c ****   }
 122:Drivers/STM32H7xx_HAL_Driver/Src/stm32h7xx_ll_usb.c **** 
 123:Drivers/STM32H7xx_HAL_Driver/Src/stm32h7xx_ll_usb.c ****   if (cfg.dma_enable == 1U)
 124:Drivers/STM32H7xx_HAL_Driver/Src/stm32h7xx_ll_usb.c ****   {
 125:Drivers/STM32H7xx_HAL_Driver/Src/stm32h7xx_ll_usb.c ****     /* make sure to reserve 18 fifo Locations for DMA buffers */
 126:Drivers/STM32H7xx_HAL_Driver/Src/stm32h7xx_ll_usb.c ****     USBx->GDFIFOCFG &= ~(0xFFFFU << 16);
 127:Drivers/STM32H7xx_HAL_Driver/Src/stm32h7xx_ll_usb.c ****     USBx->GDFIFOCFG |= 0x3EEU << 16;
 128:Drivers/STM32H7xx_HAL_Driver/Src/stm32h7xx_ll_usb.c **** 
 129:Drivers/STM32H7xx_HAL_Driver/Src/stm32h7xx_ll_usb.c ****     USBx->GAHBCFG |= USB_OTG_GAHBCFG_HBSTLEN_2;
 130:Drivers/STM32H7xx_HAL_Driver/Src/stm32h7xx_ll_usb.c ****     USBx->GAHBCFG |= USB_OTG_GAHBCFG_DMAEN;
 131:Drivers/STM32H7xx_HAL_Driver/Src/stm32h7xx_ll_usb.c ****   }
 132:Drivers/STM32H7xx_HAL_Driver/Src/stm32h7xx_ll_usb.c **** 
 133:Drivers/STM32H7xx_HAL_Driver/Src/stm32h7xx_ll_usb.c ****   return ret;
 134:Drivers/STM32H7xx_HAL_Driver/Src/stm32h7xx_ll_usb.c **** }
 135:Drivers/STM32H7xx_HAL_Driver/Src/stm32h7xx_ll_usb.c **** 
 136:Drivers/STM32H7xx_HAL_Driver/Src/stm32h7xx_ll_usb.c **** 
 137:Drivers/STM32H7xx_HAL_Driver/Src/stm32h7xx_ll_usb.c **** /**
 138:Drivers/STM32H7xx_HAL_Driver/Src/stm32h7xx_ll_usb.c ****   * @brief  Set the USB turnaround time
 139:Drivers/STM32H7xx_HAL_Driver/Src/stm32h7xx_ll_usb.c ****   * @param  USBx USB Instance
 140:Drivers/STM32H7xx_HAL_Driver/Src/stm32h7xx_ll_usb.c ****   * @param  hclk: AHB clock frequency
 141:Drivers/STM32H7xx_HAL_Driver/Src/stm32h7xx_ll_usb.c ****   * @retval USB turnaround time In PHY Clocks number
 142:Drivers/STM32H7xx_HAL_Driver/Src/stm32h7xx_ll_usb.c ****   */
 143:Drivers/STM32H7xx_HAL_Driver/Src/stm32h7xx_ll_usb.c **** HAL_StatusTypeDef USB_SetTurnaroundTime(USB_OTG_GlobalTypeDef *USBx,
 144:Drivers/STM32H7xx_HAL_Driver/Src/stm32h7xx_ll_usb.c ****                                         uint32_t hclk, uint8_t speed)
 145:Drivers/STM32H7xx_HAL_Driver/Src/stm32h7xx_ll_usb.c **** {
ARM GAS  /var/folders/26/q55yrwgs1ql1lprjdslmzz800000gn/T//ccC08pEc.s 			page 4


 146:Drivers/STM32H7xx_HAL_Driver/Src/stm32h7xx_ll_usb.c ****   uint32_t UsbTrd;
 147:Drivers/STM32H7xx_HAL_Driver/Src/stm32h7xx_ll_usb.c **** 
 148:Drivers/STM32H7xx_HAL_Driver/Src/stm32h7xx_ll_usb.c ****   /* The USBTRD is configured according to the tables below, depending on AHB frequency
 149:Drivers/STM32H7xx_HAL_Driver/Src/stm32h7xx_ll_usb.c ****   used by application. In the low AHB frequency range it is used to stretch enough the USB response
 150:Drivers/STM32H7xx_HAL_Driver/Src/stm32h7xx_ll_usb.c ****   time to IN tokens, the USB turnaround time, so to compensate for the longer AHB read access
 151:Drivers/STM32H7xx_HAL_Driver/Src/stm32h7xx_ll_usb.c ****   latency to the Data FIFO */
 152:Drivers/STM32H7xx_HAL_Driver/Src/stm32h7xx_ll_usb.c ****   if (speed == USBD_FS_SPEED)
 153:Drivers/STM32H7xx_HAL_Driver/Src/stm32h7xx_ll_usb.c ****   {
 154:Drivers/STM32H7xx_HAL_Driver/Src/stm32h7xx_ll_usb.c ****     if ((hclk >= 14200000U) && (hclk < 15000000U))
 155:Drivers/STM32H7xx_HAL_Driver/Src/stm32h7xx_ll_usb.c ****     {
 156:Drivers/STM32H7xx_HAL_Driver/Src/stm32h7xx_ll_usb.c ****       /* hclk Clock Range between 14.2-15 MHz */
 157:Drivers/STM32H7xx_HAL_Driver/Src/stm32h7xx_ll_usb.c ****       UsbTrd = 0xFU;
 158:Drivers/STM32H7xx_HAL_Driver/Src/stm32h7xx_ll_usb.c ****     }
 159:Drivers/STM32H7xx_HAL_Driver/Src/stm32h7xx_ll_usb.c ****     else if ((hclk >= 15000000U) && (hclk < 16000000U))
 160:Drivers/STM32H7xx_HAL_Driver/Src/stm32h7xx_ll_usb.c ****     {
 161:Drivers/STM32H7xx_HAL_Driver/Src/stm32h7xx_ll_usb.c ****       /* hclk Clock Range between 15-16 MHz */
 162:Drivers/STM32H7xx_HAL_Driver/Src/stm32h7xx_ll_usb.c ****       UsbTrd = 0xEU;
 163:Drivers/STM32H7xx_HAL_Driver/Src/stm32h7xx_ll_usb.c ****     }
 164:Drivers/STM32H7xx_HAL_Driver/Src/stm32h7xx_ll_usb.c ****     else if ((hclk >= 16000000U) && (hclk < 17200000U))
 165:Drivers/STM32H7xx_HAL_Driver/Src/stm32h7xx_ll_usb.c ****     {
 166:Drivers/STM32H7xx_HAL_Driver/Src/stm32h7xx_ll_usb.c ****       /* hclk Clock Range between 16-17.2 MHz */
 167:Drivers/STM32H7xx_HAL_Driver/Src/stm32h7xx_ll_usb.c ****       UsbTrd = 0xDU;
 168:Drivers/STM32H7xx_HAL_Driver/Src/stm32h7xx_ll_usb.c ****     }
 169:Drivers/STM32H7xx_HAL_Driver/Src/stm32h7xx_ll_usb.c ****     else if ((hclk >= 17200000U) && (hclk < 18500000U))
 170:Drivers/STM32H7xx_HAL_Driver/Src/stm32h7xx_ll_usb.c ****     {
 171:Drivers/STM32H7xx_HAL_Driver/Src/stm32h7xx_ll_usb.c ****       /* hclk Clock Range between 17.2-18.5 MHz */
 172:Drivers/STM32H7xx_HAL_Driver/Src/stm32h7xx_ll_usb.c ****       UsbTrd = 0xCU;
 173:Drivers/STM32H7xx_HAL_Driver/Src/stm32h7xx_ll_usb.c ****     }
 174:Drivers/STM32H7xx_HAL_Driver/Src/stm32h7xx_ll_usb.c ****     else if ((hclk >= 18500000U) && (hclk < 20000000U))
 175:Drivers/STM32H7xx_HAL_Driver/Src/stm32h7xx_ll_usb.c ****     {
 176:Drivers/STM32H7xx_HAL_Driver/Src/stm32h7xx_ll_usb.c ****       /* hclk Clock Range between 18.5-20 MHz */
 177:Drivers/STM32H7xx_HAL_Driver/Src/stm32h7xx_ll_usb.c ****       UsbTrd = 0xBU;
 178:Drivers/STM32H7xx_HAL_Driver/Src/stm32h7xx_ll_usb.c ****     }
 179:Drivers/STM32H7xx_HAL_Driver/Src/stm32h7xx_ll_usb.c ****     else if ((hclk >= 20000000U) && (hclk < 21800000U))
 180:Drivers/STM32H7xx_HAL_Driver/Src/stm32h7xx_ll_usb.c ****     {
 181:Drivers/STM32H7xx_HAL_Driver/Src/stm32h7xx_ll_usb.c ****       /* hclk Clock Range between 20-21.8 MHz */
 182:Drivers/STM32H7xx_HAL_Driver/Src/stm32h7xx_ll_usb.c ****       UsbTrd = 0xAU;
 183:Drivers/STM32H7xx_HAL_Driver/Src/stm32h7xx_ll_usb.c ****     }
 184:Drivers/STM32H7xx_HAL_Driver/Src/stm32h7xx_ll_usb.c ****     else if ((hclk >= 21800000U) && (hclk < 24000000U))
 185:Drivers/STM32H7xx_HAL_Driver/Src/stm32h7xx_ll_usb.c ****     {
 186:Drivers/STM32H7xx_HAL_Driver/Src/stm32h7xx_ll_usb.c ****       /* hclk Clock Range between 21.8-24 MHz */
 187:Drivers/STM32H7xx_HAL_Driver/Src/stm32h7xx_ll_usb.c ****       UsbTrd = 0x9U;
 188:Drivers/STM32H7xx_HAL_Driver/Src/stm32h7xx_ll_usb.c ****     }
 189:Drivers/STM32H7xx_HAL_Driver/Src/stm32h7xx_ll_usb.c ****     else if ((hclk >= 24000000U) && (hclk < 27700000U))
 190:Drivers/STM32H7xx_HAL_Driver/Src/stm32h7xx_ll_usb.c ****     {
 191:Drivers/STM32H7xx_HAL_Driver/Src/stm32h7xx_ll_usb.c ****       /* hclk Clock Range between 24-27.7 MHz */
 192:Drivers/STM32H7xx_HAL_Driver/Src/stm32h7xx_ll_usb.c ****       UsbTrd = 0x8U;
 193:Drivers/STM32H7xx_HAL_Driver/Src/stm32h7xx_ll_usb.c ****     }
 194:Drivers/STM32H7xx_HAL_Driver/Src/stm32h7xx_ll_usb.c ****     else if ((hclk >= 27700000U) && (hclk < 32000000U))
 195:Drivers/STM32H7xx_HAL_Driver/Src/stm32h7xx_ll_usb.c ****     {
 196:Drivers/STM32H7xx_HAL_Driver/Src/stm32h7xx_ll_usb.c ****       /* hclk Clock Range between 27.7-32 MHz */
 197:Drivers/STM32H7xx_HAL_Driver/Src/stm32h7xx_ll_usb.c ****       UsbTrd = 0x7U;
 198:Drivers/STM32H7xx_HAL_Driver/Src/stm32h7xx_ll_usb.c ****     }
 199:Drivers/STM32H7xx_HAL_Driver/Src/stm32h7xx_ll_usb.c ****     else /* if(hclk >= 32000000) */
 200:Drivers/STM32H7xx_HAL_Driver/Src/stm32h7xx_ll_usb.c ****     {
 201:Drivers/STM32H7xx_HAL_Driver/Src/stm32h7xx_ll_usb.c ****       /* hclk Clock Range between 32-200 MHz */
 202:Drivers/STM32H7xx_HAL_Driver/Src/stm32h7xx_ll_usb.c ****       UsbTrd = 0x6U;
ARM GAS  /var/folders/26/q55yrwgs1ql1lprjdslmzz800000gn/T//ccC08pEc.s 			page 5


 203:Drivers/STM32H7xx_HAL_Driver/Src/stm32h7xx_ll_usb.c ****     }
 204:Drivers/STM32H7xx_HAL_Driver/Src/stm32h7xx_ll_usb.c ****   }
 205:Drivers/STM32H7xx_HAL_Driver/Src/stm32h7xx_ll_usb.c ****   else if (speed == USBD_HS_SPEED)
 206:Drivers/STM32H7xx_HAL_Driver/Src/stm32h7xx_ll_usb.c ****   {
 207:Drivers/STM32H7xx_HAL_Driver/Src/stm32h7xx_ll_usb.c ****     UsbTrd = USBD_HS_TRDT_VALUE;
 208:Drivers/STM32H7xx_HAL_Driver/Src/stm32h7xx_ll_usb.c ****   }
 209:Drivers/STM32H7xx_HAL_Driver/Src/stm32h7xx_ll_usb.c ****   else
 210:Drivers/STM32H7xx_HAL_Driver/Src/stm32h7xx_ll_usb.c ****   {
 211:Drivers/STM32H7xx_HAL_Driver/Src/stm32h7xx_ll_usb.c ****     UsbTrd = USBD_DEFAULT_TRDT_VALUE;
 212:Drivers/STM32H7xx_HAL_Driver/Src/stm32h7xx_ll_usb.c ****   }
 213:Drivers/STM32H7xx_HAL_Driver/Src/stm32h7xx_ll_usb.c **** 
 214:Drivers/STM32H7xx_HAL_Driver/Src/stm32h7xx_ll_usb.c ****   USBx->GUSBCFG &= ~USB_OTG_GUSBCFG_TRDT;
 215:Drivers/STM32H7xx_HAL_Driver/Src/stm32h7xx_ll_usb.c ****   USBx->GUSBCFG |= (uint32_t)((UsbTrd << 10) & USB_OTG_GUSBCFG_TRDT);
 216:Drivers/STM32H7xx_HAL_Driver/Src/stm32h7xx_ll_usb.c **** 
 217:Drivers/STM32H7xx_HAL_Driver/Src/stm32h7xx_ll_usb.c ****   return HAL_OK;
 218:Drivers/STM32H7xx_HAL_Driver/Src/stm32h7xx_ll_usb.c **** }
 219:Drivers/STM32H7xx_HAL_Driver/Src/stm32h7xx_ll_usb.c **** 
 220:Drivers/STM32H7xx_HAL_Driver/Src/stm32h7xx_ll_usb.c **** /**
 221:Drivers/STM32H7xx_HAL_Driver/Src/stm32h7xx_ll_usb.c ****   * @brief  USB_EnableGlobalInt
 222:Drivers/STM32H7xx_HAL_Driver/Src/stm32h7xx_ll_usb.c ****   *         Enables the controller's Global Int in the AHB Config reg
 223:Drivers/STM32H7xx_HAL_Driver/Src/stm32h7xx_ll_usb.c ****   * @param  USBx  Selected device
 224:Drivers/STM32H7xx_HAL_Driver/Src/stm32h7xx_ll_usb.c ****   * @retval HAL status
 225:Drivers/STM32H7xx_HAL_Driver/Src/stm32h7xx_ll_usb.c ****   */
 226:Drivers/STM32H7xx_HAL_Driver/Src/stm32h7xx_ll_usb.c **** HAL_StatusTypeDef USB_EnableGlobalInt(USB_OTG_GlobalTypeDef *USBx)
 227:Drivers/STM32H7xx_HAL_Driver/Src/stm32h7xx_ll_usb.c **** {
 228:Drivers/STM32H7xx_HAL_Driver/Src/stm32h7xx_ll_usb.c ****   USBx->GAHBCFG |= USB_OTG_GAHBCFG_GINT;
 229:Drivers/STM32H7xx_HAL_Driver/Src/stm32h7xx_ll_usb.c ****   return HAL_OK;
 230:Drivers/STM32H7xx_HAL_Driver/Src/stm32h7xx_ll_usb.c **** }
 231:Drivers/STM32H7xx_HAL_Driver/Src/stm32h7xx_ll_usb.c **** 
 232:Drivers/STM32H7xx_HAL_Driver/Src/stm32h7xx_ll_usb.c **** /**
 233:Drivers/STM32H7xx_HAL_Driver/Src/stm32h7xx_ll_usb.c ****   * @brief  USB_DisableGlobalInt
 234:Drivers/STM32H7xx_HAL_Driver/Src/stm32h7xx_ll_usb.c ****   *         Disable the controller's Global Int in the AHB Config reg
 235:Drivers/STM32H7xx_HAL_Driver/Src/stm32h7xx_ll_usb.c ****   * @param  USBx  Selected device
 236:Drivers/STM32H7xx_HAL_Driver/Src/stm32h7xx_ll_usb.c ****   * @retval HAL status
 237:Drivers/STM32H7xx_HAL_Driver/Src/stm32h7xx_ll_usb.c ****   */
 238:Drivers/STM32H7xx_HAL_Driver/Src/stm32h7xx_ll_usb.c **** HAL_StatusTypeDef USB_DisableGlobalInt(USB_OTG_GlobalTypeDef *USBx)
 239:Drivers/STM32H7xx_HAL_Driver/Src/stm32h7xx_ll_usb.c **** {
 240:Drivers/STM32H7xx_HAL_Driver/Src/stm32h7xx_ll_usb.c ****   USBx->GAHBCFG &= ~USB_OTG_GAHBCFG_GINT;
 241:Drivers/STM32H7xx_HAL_Driver/Src/stm32h7xx_ll_usb.c ****   return HAL_OK;
 242:Drivers/STM32H7xx_HAL_Driver/Src/stm32h7xx_ll_usb.c **** }
 243:Drivers/STM32H7xx_HAL_Driver/Src/stm32h7xx_ll_usb.c **** 
 244:Drivers/STM32H7xx_HAL_Driver/Src/stm32h7xx_ll_usb.c **** /**
 245:Drivers/STM32H7xx_HAL_Driver/Src/stm32h7xx_ll_usb.c ****   * @brief  USB_SetCurrentMode Set functional mode
 246:Drivers/STM32H7xx_HAL_Driver/Src/stm32h7xx_ll_usb.c ****   * @param  USBx  Selected device
 247:Drivers/STM32H7xx_HAL_Driver/Src/stm32h7xx_ll_usb.c ****   * @param  mode  current core mode
 248:Drivers/STM32H7xx_HAL_Driver/Src/stm32h7xx_ll_usb.c ****   *          This parameter can be one of these values:
 249:Drivers/STM32H7xx_HAL_Driver/Src/stm32h7xx_ll_usb.c ****   *            @arg USB_DEVICE_MODE Peripheral mode
 250:Drivers/STM32H7xx_HAL_Driver/Src/stm32h7xx_ll_usb.c ****   *            @arg USB_HOST_MODE Host mode
 251:Drivers/STM32H7xx_HAL_Driver/Src/stm32h7xx_ll_usb.c ****   * @retval HAL status
 252:Drivers/STM32H7xx_HAL_Driver/Src/stm32h7xx_ll_usb.c ****   */
 253:Drivers/STM32H7xx_HAL_Driver/Src/stm32h7xx_ll_usb.c **** HAL_StatusTypeDef USB_SetCurrentMode(USB_OTG_GlobalTypeDef *USBx, USB_OTG_ModeTypeDef mode)
 254:Drivers/STM32H7xx_HAL_Driver/Src/stm32h7xx_ll_usb.c **** {
 255:Drivers/STM32H7xx_HAL_Driver/Src/stm32h7xx_ll_usb.c ****   USBx->GUSBCFG &= ~(USB_OTG_GUSBCFG_FHMOD | USB_OTG_GUSBCFG_FDMOD);
 256:Drivers/STM32H7xx_HAL_Driver/Src/stm32h7xx_ll_usb.c **** 
 257:Drivers/STM32H7xx_HAL_Driver/Src/stm32h7xx_ll_usb.c ****   if (mode == USB_HOST_MODE)
 258:Drivers/STM32H7xx_HAL_Driver/Src/stm32h7xx_ll_usb.c ****   {
 259:Drivers/STM32H7xx_HAL_Driver/Src/stm32h7xx_ll_usb.c ****     USBx->GUSBCFG |= USB_OTG_GUSBCFG_FHMOD;
ARM GAS  /var/folders/26/q55yrwgs1ql1lprjdslmzz800000gn/T//ccC08pEc.s 			page 6


 260:Drivers/STM32H7xx_HAL_Driver/Src/stm32h7xx_ll_usb.c ****   }
 261:Drivers/STM32H7xx_HAL_Driver/Src/stm32h7xx_ll_usb.c ****   else if (mode == USB_DEVICE_MODE)
 262:Drivers/STM32H7xx_HAL_Driver/Src/stm32h7xx_ll_usb.c ****   {
 263:Drivers/STM32H7xx_HAL_Driver/Src/stm32h7xx_ll_usb.c ****     USBx->GUSBCFG |= USB_OTG_GUSBCFG_FDMOD;
 264:Drivers/STM32H7xx_HAL_Driver/Src/stm32h7xx_ll_usb.c ****   }
 265:Drivers/STM32H7xx_HAL_Driver/Src/stm32h7xx_ll_usb.c ****   else
 266:Drivers/STM32H7xx_HAL_Driver/Src/stm32h7xx_ll_usb.c ****   {
 267:Drivers/STM32H7xx_HAL_Driver/Src/stm32h7xx_ll_usb.c ****     return HAL_ERROR;
 268:Drivers/STM32H7xx_HAL_Driver/Src/stm32h7xx_ll_usb.c ****   }
 269:Drivers/STM32H7xx_HAL_Driver/Src/stm32h7xx_ll_usb.c ****   HAL_Delay(50U);
 270:Drivers/STM32H7xx_HAL_Driver/Src/stm32h7xx_ll_usb.c **** 
 271:Drivers/STM32H7xx_HAL_Driver/Src/stm32h7xx_ll_usb.c ****   return HAL_OK;
 272:Drivers/STM32H7xx_HAL_Driver/Src/stm32h7xx_ll_usb.c **** }
 273:Drivers/STM32H7xx_HAL_Driver/Src/stm32h7xx_ll_usb.c **** 
 274:Drivers/STM32H7xx_HAL_Driver/Src/stm32h7xx_ll_usb.c **** /**
 275:Drivers/STM32H7xx_HAL_Driver/Src/stm32h7xx_ll_usb.c ****   * @brief  USB_DevInit Initializes the USB_OTG controller registers
 276:Drivers/STM32H7xx_HAL_Driver/Src/stm32h7xx_ll_usb.c ****   *         for device mode
 277:Drivers/STM32H7xx_HAL_Driver/Src/stm32h7xx_ll_usb.c ****   * @param  USBx  Selected device
 278:Drivers/STM32H7xx_HAL_Driver/Src/stm32h7xx_ll_usb.c ****   * @param  cfg   pointer to a USB_OTG_CfgTypeDef structure that contains
 279:Drivers/STM32H7xx_HAL_Driver/Src/stm32h7xx_ll_usb.c ****   *         the configuration information for the specified USBx peripheral.
 280:Drivers/STM32H7xx_HAL_Driver/Src/stm32h7xx_ll_usb.c ****   * @retval HAL status
 281:Drivers/STM32H7xx_HAL_Driver/Src/stm32h7xx_ll_usb.c ****   */
 282:Drivers/STM32H7xx_HAL_Driver/Src/stm32h7xx_ll_usb.c **** HAL_StatusTypeDef USB_DevInit(USB_OTG_GlobalTypeDef *USBx, USB_OTG_CfgTypeDef cfg)
 283:Drivers/STM32H7xx_HAL_Driver/Src/stm32h7xx_ll_usb.c **** {
 284:Drivers/STM32H7xx_HAL_Driver/Src/stm32h7xx_ll_usb.c ****   HAL_StatusTypeDef ret = HAL_OK;
 285:Drivers/STM32H7xx_HAL_Driver/Src/stm32h7xx_ll_usb.c ****   uint32_t USBx_BASE = (uint32_t)USBx;
 286:Drivers/STM32H7xx_HAL_Driver/Src/stm32h7xx_ll_usb.c ****   uint32_t i;
 287:Drivers/STM32H7xx_HAL_Driver/Src/stm32h7xx_ll_usb.c **** 
 288:Drivers/STM32H7xx_HAL_Driver/Src/stm32h7xx_ll_usb.c ****   for (i = 0U; i < 15U; i++)
 289:Drivers/STM32H7xx_HAL_Driver/Src/stm32h7xx_ll_usb.c ****   {
 290:Drivers/STM32H7xx_HAL_Driver/Src/stm32h7xx_ll_usb.c ****     USBx->DIEPTXF[i] = 0U;
 291:Drivers/STM32H7xx_HAL_Driver/Src/stm32h7xx_ll_usb.c ****   }
 292:Drivers/STM32H7xx_HAL_Driver/Src/stm32h7xx_ll_usb.c **** 
 293:Drivers/STM32H7xx_HAL_Driver/Src/stm32h7xx_ll_usb.c ****   /* VBUS Sensing setup */
 294:Drivers/STM32H7xx_HAL_Driver/Src/stm32h7xx_ll_usb.c ****   if (cfg.vbus_sensing_enable == 0U)
 295:Drivers/STM32H7xx_HAL_Driver/Src/stm32h7xx_ll_usb.c ****   {
 296:Drivers/STM32H7xx_HAL_Driver/Src/stm32h7xx_ll_usb.c ****     USBx_DEVICE->DCTL |= USB_OTG_DCTL_SDIS;
 297:Drivers/STM32H7xx_HAL_Driver/Src/stm32h7xx_ll_usb.c **** 
 298:Drivers/STM32H7xx_HAL_Driver/Src/stm32h7xx_ll_usb.c ****     /* Deactivate VBUS Sensing B */
 299:Drivers/STM32H7xx_HAL_Driver/Src/stm32h7xx_ll_usb.c ****     USBx->GCCFG &= ~USB_OTG_GCCFG_VBDEN;
 300:Drivers/STM32H7xx_HAL_Driver/Src/stm32h7xx_ll_usb.c **** 
 301:Drivers/STM32H7xx_HAL_Driver/Src/stm32h7xx_ll_usb.c ****     /* B-peripheral session valid override enable */
 302:Drivers/STM32H7xx_HAL_Driver/Src/stm32h7xx_ll_usb.c ****     USBx->GOTGCTL |= USB_OTG_GOTGCTL_BVALOEN;
 303:Drivers/STM32H7xx_HAL_Driver/Src/stm32h7xx_ll_usb.c ****     USBx->GOTGCTL |= USB_OTG_GOTGCTL_BVALOVAL;
 304:Drivers/STM32H7xx_HAL_Driver/Src/stm32h7xx_ll_usb.c ****   }
 305:Drivers/STM32H7xx_HAL_Driver/Src/stm32h7xx_ll_usb.c ****   else
 306:Drivers/STM32H7xx_HAL_Driver/Src/stm32h7xx_ll_usb.c ****   {
 307:Drivers/STM32H7xx_HAL_Driver/Src/stm32h7xx_ll_usb.c ****     /* Enable HW VBUS sensing */
 308:Drivers/STM32H7xx_HAL_Driver/Src/stm32h7xx_ll_usb.c ****     USBx->GCCFG |= USB_OTG_GCCFG_VBDEN;
 309:Drivers/STM32H7xx_HAL_Driver/Src/stm32h7xx_ll_usb.c ****   }
 310:Drivers/STM32H7xx_HAL_Driver/Src/stm32h7xx_ll_usb.c **** 
 311:Drivers/STM32H7xx_HAL_Driver/Src/stm32h7xx_ll_usb.c ****   /* Restart the Phy Clock */
 312:Drivers/STM32H7xx_HAL_Driver/Src/stm32h7xx_ll_usb.c ****   USBx_PCGCCTL = 0U;
 313:Drivers/STM32H7xx_HAL_Driver/Src/stm32h7xx_ll_usb.c **** 
 314:Drivers/STM32H7xx_HAL_Driver/Src/stm32h7xx_ll_usb.c ****   /* Device mode configuration */
 315:Drivers/STM32H7xx_HAL_Driver/Src/stm32h7xx_ll_usb.c ****   USBx_DEVICE->DCFG |= DCFG_FRAME_INTERVAL_80;
 316:Drivers/STM32H7xx_HAL_Driver/Src/stm32h7xx_ll_usb.c **** 
ARM GAS  /var/folders/26/q55yrwgs1ql1lprjdslmzz800000gn/T//ccC08pEc.s 			page 7


 317:Drivers/STM32H7xx_HAL_Driver/Src/stm32h7xx_ll_usb.c ****   if (cfg.phy_itface == USB_OTG_ULPI_PHY)
 318:Drivers/STM32H7xx_HAL_Driver/Src/stm32h7xx_ll_usb.c ****   {
 319:Drivers/STM32H7xx_HAL_Driver/Src/stm32h7xx_ll_usb.c ****     if (cfg.speed == USBD_HS_SPEED)
 320:Drivers/STM32H7xx_HAL_Driver/Src/stm32h7xx_ll_usb.c ****     {
 321:Drivers/STM32H7xx_HAL_Driver/Src/stm32h7xx_ll_usb.c ****       /* Set Core speed to High speed mode */
 322:Drivers/STM32H7xx_HAL_Driver/Src/stm32h7xx_ll_usb.c ****       (void)USB_SetDevSpeed(USBx, USB_OTG_SPEED_HIGH);
 323:Drivers/STM32H7xx_HAL_Driver/Src/stm32h7xx_ll_usb.c ****     }
 324:Drivers/STM32H7xx_HAL_Driver/Src/stm32h7xx_ll_usb.c ****     else
 325:Drivers/STM32H7xx_HAL_Driver/Src/stm32h7xx_ll_usb.c ****     {
 326:Drivers/STM32H7xx_HAL_Driver/Src/stm32h7xx_ll_usb.c ****       /* Set Core speed to Full speed mode */
 327:Drivers/STM32H7xx_HAL_Driver/Src/stm32h7xx_ll_usb.c ****       (void)USB_SetDevSpeed(USBx, USB_OTG_SPEED_HIGH_IN_FULL);
 328:Drivers/STM32H7xx_HAL_Driver/Src/stm32h7xx_ll_usb.c ****     }
 329:Drivers/STM32H7xx_HAL_Driver/Src/stm32h7xx_ll_usb.c ****   }
 330:Drivers/STM32H7xx_HAL_Driver/Src/stm32h7xx_ll_usb.c ****   else
 331:Drivers/STM32H7xx_HAL_Driver/Src/stm32h7xx_ll_usb.c ****   {
 332:Drivers/STM32H7xx_HAL_Driver/Src/stm32h7xx_ll_usb.c ****     /* Set Core speed to Full speed mode */
 333:Drivers/STM32H7xx_HAL_Driver/Src/stm32h7xx_ll_usb.c ****     (void)USB_SetDevSpeed(USBx, USB_OTG_SPEED_FULL);
 334:Drivers/STM32H7xx_HAL_Driver/Src/stm32h7xx_ll_usb.c ****   }
 335:Drivers/STM32H7xx_HAL_Driver/Src/stm32h7xx_ll_usb.c **** 
 336:Drivers/STM32H7xx_HAL_Driver/Src/stm32h7xx_ll_usb.c ****   /* Flush the FIFOs */
 337:Drivers/STM32H7xx_HAL_Driver/Src/stm32h7xx_ll_usb.c ****   if (USB_FlushTxFifo(USBx, 0x10U) != HAL_OK) /* all Tx FIFOs */
 338:Drivers/STM32H7xx_HAL_Driver/Src/stm32h7xx_ll_usb.c ****   {
 339:Drivers/STM32H7xx_HAL_Driver/Src/stm32h7xx_ll_usb.c ****     ret = HAL_ERROR;
 340:Drivers/STM32H7xx_HAL_Driver/Src/stm32h7xx_ll_usb.c ****   }
 341:Drivers/STM32H7xx_HAL_Driver/Src/stm32h7xx_ll_usb.c **** 
 342:Drivers/STM32H7xx_HAL_Driver/Src/stm32h7xx_ll_usb.c ****   if (USB_FlushRxFifo(USBx) != HAL_OK)
 343:Drivers/STM32H7xx_HAL_Driver/Src/stm32h7xx_ll_usb.c ****   {
 344:Drivers/STM32H7xx_HAL_Driver/Src/stm32h7xx_ll_usb.c ****     ret = HAL_ERROR;
 345:Drivers/STM32H7xx_HAL_Driver/Src/stm32h7xx_ll_usb.c ****   }
 346:Drivers/STM32H7xx_HAL_Driver/Src/stm32h7xx_ll_usb.c **** 
 347:Drivers/STM32H7xx_HAL_Driver/Src/stm32h7xx_ll_usb.c ****   /* Clear all pending Device Interrupts */
 348:Drivers/STM32H7xx_HAL_Driver/Src/stm32h7xx_ll_usb.c ****   USBx_DEVICE->DIEPMSK = 0U;
 349:Drivers/STM32H7xx_HAL_Driver/Src/stm32h7xx_ll_usb.c ****   USBx_DEVICE->DOEPMSK = 0U;
 350:Drivers/STM32H7xx_HAL_Driver/Src/stm32h7xx_ll_usb.c ****   USBx_DEVICE->DAINTMSK = 0U;
 351:Drivers/STM32H7xx_HAL_Driver/Src/stm32h7xx_ll_usb.c **** 
 352:Drivers/STM32H7xx_HAL_Driver/Src/stm32h7xx_ll_usb.c ****   for (i = 0U; i < cfg.dev_endpoints; i++)
 353:Drivers/STM32H7xx_HAL_Driver/Src/stm32h7xx_ll_usb.c ****   {
 354:Drivers/STM32H7xx_HAL_Driver/Src/stm32h7xx_ll_usb.c ****     if ((USBx_INEP(i)->DIEPCTL & USB_OTG_DIEPCTL_EPENA) == USB_OTG_DIEPCTL_EPENA)
 355:Drivers/STM32H7xx_HAL_Driver/Src/stm32h7xx_ll_usb.c ****     {
 356:Drivers/STM32H7xx_HAL_Driver/Src/stm32h7xx_ll_usb.c ****       if (i == 0U)
 357:Drivers/STM32H7xx_HAL_Driver/Src/stm32h7xx_ll_usb.c ****       {
 358:Drivers/STM32H7xx_HAL_Driver/Src/stm32h7xx_ll_usb.c ****         USBx_INEP(i)->DIEPCTL = USB_OTG_DIEPCTL_SNAK;
 359:Drivers/STM32H7xx_HAL_Driver/Src/stm32h7xx_ll_usb.c ****       }
 360:Drivers/STM32H7xx_HAL_Driver/Src/stm32h7xx_ll_usb.c ****       else
 361:Drivers/STM32H7xx_HAL_Driver/Src/stm32h7xx_ll_usb.c ****       {
 362:Drivers/STM32H7xx_HAL_Driver/Src/stm32h7xx_ll_usb.c ****         USBx_INEP(i)->DIEPCTL = USB_OTG_DIEPCTL_EPDIS | USB_OTG_DIEPCTL_SNAK;
 363:Drivers/STM32H7xx_HAL_Driver/Src/stm32h7xx_ll_usb.c ****       }
 364:Drivers/STM32H7xx_HAL_Driver/Src/stm32h7xx_ll_usb.c ****     }
 365:Drivers/STM32H7xx_HAL_Driver/Src/stm32h7xx_ll_usb.c ****     else
 366:Drivers/STM32H7xx_HAL_Driver/Src/stm32h7xx_ll_usb.c ****     {
 367:Drivers/STM32H7xx_HAL_Driver/Src/stm32h7xx_ll_usb.c ****       USBx_INEP(i)->DIEPCTL = 0U;
 368:Drivers/STM32H7xx_HAL_Driver/Src/stm32h7xx_ll_usb.c ****     }
 369:Drivers/STM32H7xx_HAL_Driver/Src/stm32h7xx_ll_usb.c **** 
 370:Drivers/STM32H7xx_HAL_Driver/Src/stm32h7xx_ll_usb.c ****     USBx_INEP(i)->DIEPTSIZ = 0U;
 371:Drivers/STM32H7xx_HAL_Driver/Src/stm32h7xx_ll_usb.c ****     USBx_INEP(i)->DIEPINT  = 0xFB7FU;
 372:Drivers/STM32H7xx_HAL_Driver/Src/stm32h7xx_ll_usb.c ****   }
 373:Drivers/STM32H7xx_HAL_Driver/Src/stm32h7xx_ll_usb.c **** 
ARM GAS  /var/folders/26/q55yrwgs1ql1lprjdslmzz800000gn/T//ccC08pEc.s 			page 8


 374:Drivers/STM32H7xx_HAL_Driver/Src/stm32h7xx_ll_usb.c ****   for (i = 0U; i < cfg.dev_endpoints; i++)
 375:Drivers/STM32H7xx_HAL_Driver/Src/stm32h7xx_ll_usb.c ****   {
 376:Drivers/STM32H7xx_HAL_Driver/Src/stm32h7xx_ll_usb.c ****     if ((USBx_OUTEP(i)->DOEPCTL & USB_OTG_DOEPCTL_EPENA) == USB_OTG_DOEPCTL_EPENA)
 377:Drivers/STM32H7xx_HAL_Driver/Src/stm32h7xx_ll_usb.c ****     {
 378:Drivers/STM32H7xx_HAL_Driver/Src/stm32h7xx_ll_usb.c ****       if (i == 0U)
 379:Drivers/STM32H7xx_HAL_Driver/Src/stm32h7xx_ll_usb.c ****       {
 380:Drivers/STM32H7xx_HAL_Driver/Src/stm32h7xx_ll_usb.c ****         USBx_OUTEP(i)->DOEPCTL = USB_OTG_DOEPCTL_SNAK;
 381:Drivers/STM32H7xx_HAL_Driver/Src/stm32h7xx_ll_usb.c ****       }
 382:Drivers/STM32H7xx_HAL_Driver/Src/stm32h7xx_ll_usb.c ****       else
 383:Drivers/STM32H7xx_HAL_Driver/Src/stm32h7xx_ll_usb.c ****       {
 384:Drivers/STM32H7xx_HAL_Driver/Src/stm32h7xx_ll_usb.c ****         USBx_OUTEP(i)->DOEPCTL = USB_OTG_DOEPCTL_EPDIS | USB_OTG_DOEPCTL_SNAK;
 385:Drivers/STM32H7xx_HAL_Driver/Src/stm32h7xx_ll_usb.c ****       }
 386:Drivers/STM32H7xx_HAL_Driver/Src/stm32h7xx_ll_usb.c ****     }
 387:Drivers/STM32H7xx_HAL_Driver/Src/stm32h7xx_ll_usb.c ****     else
 388:Drivers/STM32H7xx_HAL_Driver/Src/stm32h7xx_ll_usb.c ****     {
 389:Drivers/STM32H7xx_HAL_Driver/Src/stm32h7xx_ll_usb.c ****       USBx_OUTEP(i)->DOEPCTL = 0U;
 390:Drivers/STM32H7xx_HAL_Driver/Src/stm32h7xx_ll_usb.c ****     }
 391:Drivers/STM32H7xx_HAL_Driver/Src/stm32h7xx_ll_usb.c **** 
 392:Drivers/STM32H7xx_HAL_Driver/Src/stm32h7xx_ll_usb.c ****     USBx_OUTEP(i)->DOEPTSIZ = 0U;
 393:Drivers/STM32H7xx_HAL_Driver/Src/stm32h7xx_ll_usb.c ****     USBx_OUTEP(i)->DOEPINT  = 0xFB7FU;
 394:Drivers/STM32H7xx_HAL_Driver/Src/stm32h7xx_ll_usb.c ****   }
 395:Drivers/STM32H7xx_HAL_Driver/Src/stm32h7xx_ll_usb.c **** 
 396:Drivers/STM32H7xx_HAL_Driver/Src/stm32h7xx_ll_usb.c ****   USBx_DEVICE->DIEPMSK &= ~(USB_OTG_DIEPMSK_TXFURM);
 397:Drivers/STM32H7xx_HAL_Driver/Src/stm32h7xx_ll_usb.c **** 
 398:Drivers/STM32H7xx_HAL_Driver/Src/stm32h7xx_ll_usb.c ****   /* Disable all interrupts. */
 399:Drivers/STM32H7xx_HAL_Driver/Src/stm32h7xx_ll_usb.c ****   USBx->GINTMSK = 0U;
 400:Drivers/STM32H7xx_HAL_Driver/Src/stm32h7xx_ll_usb.c **** 
 401:Drivers/STM32H7xx_HAL_Driver/Src/stm32h7xx_ll_usb.c ****   /* Clear any pending interrupts */
 402:Drivers/STM32H7xx_HAL_Driver/Src/stm32h7xx_ll_usb.c ****   USBx->GINTSTS = 0xBFFFFFFFU;
 403:Drivers/STM32H7xx_HAL_Driver/Src/stm32h7xx_ll_usb.c **** 
 404:Drivers/STM32H7xx_HAL_Driver/Src/stm32h7xx_ll_usb.c ****   /* Enable the common interrupts */
 405:Drivers/STM32H7xx_HAL_Driver/Src/stm32h7xx_ll_usb.c ****   if (cfg.dma_enable == 0U)
 406:Drivers/STM32H7xx_HAL_Driver/Src/stm32h7xx_ll_usb.c ****   {
 407:Drivers/STM32H7xx_HAL_Driver/Src/stm32h7xx_ll_usb.c ****     USBx->GINTMSK |= USB_OTG_GINTMSK_RXFLVLM;
 408:Drivers/STM32H7xx_HAL_Driver/Src/stm32h7xx_ll_usb.c ****   }
 409:Drivers/STM32H7xx_HAL_Driver/Src/stm32h7xx_ll_usb.c **** 
 410:Drivers/STM32H7xx_HAL_Driver/Src/stm32h7xx_ll_usb.c ****   /* Enable interrupts matching to the Device mode ONLY */
 411:Drivers/STM32H7xx_HAL_Driver/Src/stm32h7xx_ll_usb.c ****   USBx->GINTMSK |= USB_OTG_GINTMSK_USBSUSPM | USB_OTG_GINTMSK_USBRST |
 412:Drivers/STM32H7xx_HAL_Driver/Src/stm32h7xx_ll_usb.c ****                    USB_OTG_GINTMSK_ENUMDNEM | USB_OTG_GINTMSK_IEPINT |
 413:Drivers/STM32H7xx_HAL_Driver/Src/stm32h7xx_ll_usb.c ****                    USB_OTG_GINTMSK_OEPINT   | USB_OTG_GINTMSK_IISOIXFRM |
 414:Drivers/STM32H7xx_HAL_Driver/Src/stm32h7xx_ll_usb.c ****                    USB_OTG_GINTMSK_PXFRM_IISOOXFRM | USB_OTG_GINTMSK_WUIM;
 415:Drivers/STM32H7xx_HAL_Driver/Src/stm32h7xx_ll_usb.c **** 
 416:Drivers/STM32H7xx_HAL_Driver/Src/stm32h7xx_ll_usb.c ****   if (cfg.Sof_enable != 0U)
 417:Drivers/STM32H7xx_HAL_Driver/Src/stm32h7xx_ll_usb.c ****   {
 418:Drivers/STM32H7xx_HAL_Driver/Src/stm32h7xx_ll_usb.c ****     USBx->GINTMSK |= USB_OTG_GINTMSK_SOFM;
 419:Drivers/STM32H7xx_HAL_Driver/Src/stm32h7xx_ll_usb.c ****   }
 420:Drivers/STM32H7xx_HAL_Driver/Src/stm32h7xx_ll_usb.c **** 
 421:Drivers/STM32H7xx_HAL_Driver/Src/stm32h7xx_ll_usb.c ****   if (cfg.vbus_sensing_enable == 1U)
 422:Drivers/STM32H7xx_HAL_Driver/Src/stm32h7xx_ll_usb.c ****   {
 423:Drivers/STM32H7xx_HAL_Driver/Src/stm32h7xx_ll_usb.c ****     USBx->GINTMSK |= (USB_OTG_GINTMSK_SRQIM | USB_OTG_GINTMSK_OTGINT);
 424:Drivers/STM32H7xx_HAL_Driver/Src/stm32h7xx_ll_usb.c ****   }
 425:Drivers/STM32H7xx_HAL_Driver/Src/stm32h7xx_ll_usb.c **** 
 426:Drivers/STM32H7xx_HAL_Driver/Src/stm32h7xx_ll_usb.c ****   return ret;
 427:Drivers/STM32H7xx_HAL_Driver/Src/stm32h7xx_ll_usb.c **** }
 428:Drivers/STM32H7xx_HAL_Driver/Src/stm32h7xx_ll_usb.c **** 
 429:Drivers/STM32H7xx_HAL_Driver/Src/stm32h7xx_ll_usb.c **** /**
 430:Drivers/STM32H7xx_HAL_Driver/Src/stm32h7xx_ll_usb.c ****   * @brief  USB_OTG_FlushTxFifo : Flush a Tx FIFO
ARM GAS  /var/folders/26/q55yrwgs1ql1lprjdslmzz800000gn/T//ccC08pEc.s 			page 9


 431:Drivers/STM32H7xx_HAL_Driver/Src/stm32h7xx_ll_usb.c ****   * @param  USBx  Selected device
 432:Drivers/STM32H7xx_HAL_Driver/Src/stm32h7xx_ll_usb.c ****   * @param  num  FIFO number
 433:Drivers/STM32H7xx_HAL_Driver/Src/stm32h7xx_ll_usb.c ****   *         This parameter can be a value from 1 to 15
 434:Drivers/STM32H7xx_HAL_Driver/Src/stm32h7xx_ll_usb.c ****             15 means Flush all Tx FIFOs
 435:Drivers/STM32H7xx_HAL_Driver/Src/stm32h7xx_ll_usb.c ****   * @retval HAL status
 436:Drivers/STM32H7xx_HAL_Driver/Src/stm32h7xx_ll_usb.c ****   */
 437:Drivers/STM32H7xx_HAL_Driver/Src/stm32h7xx_ll_usb.c **** HAL_StatusTypeDef USB_FlushTxFifo(USB_OTG_GlobalTypeDef *USBx, uint32_t num)
 438:Drivers/STM32H7xx_HAL_Driver/Src/stm32h7xx_ll_usb.c **** {
 439:Drivers/STM32H7xx_HAL_Driver/Src/stm32h7xx_ll_usb.c ****   uint32_t count = 0U;
 440:Drivers/STM32H7xx_HAL_Driver/Src/stm32h7xx_ll_usb.c **** 
 441:Drivers/STM32H7xx_HAL_Driver/Src/stm32h7xx_ll_usb.c ****   USBx->GRSTCTL = (USB_OTG_GRSTCTL_TXFFLSH | (num << 6));
 442:Drivers/STM32H7xx_HAL_Driver/Src/stm32h7xx_ll_usb.c **** 
 443:Drivers/STM32H7xx_HAL_Driver/Src/stm32h7xx_ll_usb.c ****   do
 444:Drivers/STM32H7xx_HAL_Driver/Src/stm32h7xx_ll_usb.c ****   {
 445:Drivers/STM32H7xx_HAL_Driver/Src/stm32h7xx_ll_usb.c ****     if (++count > 200000U)
 446:Drivers/STM32H7xx_HAL_Driver/Src/stm32h7xx_ll_usb.c ****     {
 447:Drivers/STM32H7xx_HAL_Driver/Src/stm32h7xx_ll_usb.c ****       return HAL_TIMEOUT;
 448:Drivers/STM32H7xx_HAL_Driver/Src/stm32h7xx_ll_usb.c ****     }
 449:Drivers/STM32H7xx_HAL_Driver/Src/stm32h7xx_ll_usb.c ****   } while ((USBx->GRSTCTL & USB_OTG_GRSTCTL_TXFFLSH) == USB_OTG_GRSTCTL_TXFFLSH);
 450:Drivers/STM32H7xx_HAL_Driver/Src/stm32h7xx_ll_usb.c **** 
 451:Drivers/STM32H7xx_HAL_Driver/Src/stm32h7xx_ll_usb.c ****   return HAL_OK;
 452:Drivers/STM32H7xx_HAL_Driver/Src/stm32h7xx_ll_usb.c **** }
 453:Drivers/STM32H7xx_HAL_Driver/Src/stm32h7xx_ll_usb.c **** 
 454:Drivers/STM32H7xx_HAL_Driver/Src/stm32h7xx_ll_usb.c **** /**
 455:Drivers/STM32H7xx_HAL_Driver/Src/stm32h7xx_ll_usb.c ****   * @brief  USB_FlushRxFifo : Flush Rx FIFO
 456:Drivers/STM32H7xx_HAL_Driver/Src/stm32h7xx_ll_usb.c ****   * @param  USBx  Selected device
 457:Drivers/STM32H7xx_HAL_Driver/Src/stm32h7xx_ll_usb.c ****   * @retval HAL status
 458:Drivers/STM32H7xx_HAL_Driver/Src/stm32h7xx_ll_usb.c ****   */
 459:Drivers/STM32H7xx_HAL_Driver/Src/stm32h7xx_ll_usb.c **** HAL_StatusTypeDef USB_FlushRxFifo(USB_OTG_GlobalTypeDef *USBx)
 460:Drivers/STM32H7xx_HAL_Driver/Src/stm32h7xx_ll_usb.c **** {
 461:Drivers/STM32H7xx_HAL_Driver/Src/stm32h7xx_ll_usb.c ****   uint32_t count = 0;
 462:Drivers/STM32H7xx_HAL_Driver/Src/stm32h7xx_ll_usb.c **** 
 463:Drivers/STM32H7xx_HAL_Driver/Src/stm32h7xx_ll_usb.c ****   USBx->GRSTCTL = USB_OTG_GRSTCTL_RXFFLSH;
 464:Drivers/STM32H7xx_HAL_Driver/Src/stm32h7xx_ll_usb.c **** 
 465:Drivers/STM32H7xx_HAL_Driver/Src/stm32h7xx_ll_usb.c ****   do
 466:Drivers/STM32H7xx_HAL_Driver/Src/stm32h7xx_ll_usb.c ****   {
 467:Drivers/STM32H7xx_HAL_Driver/Src/stm32h7xx_ll_usb.c ****     if (++count > 200000U)
 468:Drivers/STM32H7xx_HAL_Driver/Src/stm32h7xx_ll_usb.c ****     {
 469:Drivers/STM32H7xx_HAL_Driver/Src/stm32h7xx_ll_usb.c ****       return HAL_TIMEOUT;
 470:Drivers/STM32H7xx_HAL_Driver/Src/stm32h7xx_ll_usb.c ****     }
 471:Drivers/STM32H7xx_HAL_Driver/Src/stm32h7xx_ll_usb.c ****   } while ((USBx->GRSTCTL & USB_OTG_GRSTCTL_RXFFLSH) == USB_OTG_GRSTCTL_RXFFLSH);
 472:Drivers/STM32H7xx_HAL_Driver/Src/stm32h7xx_ll_usb.c **** 
 473:Drivers/STM32H7xx_HAL_Driver/Src/stm32h7xx_ll_usb.c ****   return HAL_OK;
 474:Drivers/STM32H7xx_HAL_Driver/Src/stm32h7xx_ll_usb.c **** }
 475:Drivers/STM32H7xx_HAL_Driver/Src/stm32h7xx_ll_usb.c **** 
 476:Drivers/STM32H7xx_HAL_Driver/Src/stm32h7xx_ll_usb.c **** /**
 477:Drivers/STM32H7xx_HAL_Driver/Src/stm32h7xx_ll_usb.c ****   * @brief  USB_SetDevSpeed  Initializes the DevSpd field of DCFG register
 478:Drivers/STM32H7xx_HAL_Driver/Src/stm32h7xx_ll_usb.c ****   *         depending the PHY type and the enumeration speed of the device.
 479:Drivers/STM32H7xx_HAL_Driver/Src/stm32h7xx_ll_usb.c ****   * @param  USBx  Selected device
 480:Drivers/STM32H7xx_HAL_Driver/Src/stm32h7xx_ll_usb.c ****   * @param  speed  device speed
 481:Drivers/STM32H7xx_HAL_Driver/Src/stm32h7xx_ll_usb.c ****   *          This parameter can be one of these values:
 482:Drivers/STM32H7xx_HAL_Driver/Src/stm32h7xx_ll_usb.c ****   *            @arg USB_OTG_SPEED_HIGH: High speed mode
 483:Drivers/STM32H7xx_HAL_Driver/Src/stm32h7xx_ll_usb.c ****   *            @arg USB_OTG_SPEED_HIGH_IN_FULL: High speed core in Full Speed mode
 484:Drivers/STM32H7xx_HAL_Driver/Src/stm32h7xx_ll_usb.c ****   *            @arg USB_OTG_SPEED_FULL: Full speed mode
 485:Drivers/STM32H7xx_HAL_Driver/Src/stm32h7xx_ll_usb.c ****   * @retval  Hal status
 486:Drivers/STM32H7xx_HAL_Driver/Src/stm32h7xx_ll_usb.c ****   */
 487:Drivers/STM32H7xx_HAL_Driver/Src/stm32h7xx_ll_usb.c **** HAL_StatusTypeDef USB_SetDevSpeed(USB_OTG_GlobalTypeDef *USBx, uint8_t speed)
ARM GAS  /var/folders/26/q55yrwgs1ql1lprjdslmzz800000gn/T//ccC08pEc.s 			page 10


 488:Drivers/STM32H7xx_HAL_Driver/Src/stm32h7xx_ll_usb.c **** {
 489:Drivers/STM32H7xx_HAL_Driver/Src/stm32h7xx_ll_usb.c ****   uint32_t USBx_BASE = (uint32_t)USBx;
 490:Drivers/STM32H7xx_HAL_Driver/Src/stm32h7xx_ll_usb.c **** 
 491:Drivers/STM32H7xx_HAL_Driver/Src/stm32h7xx_ll_usb.c ****   USBx_DEVICE->DCFG |= speed;
 492:Drivers/STM32H7xx_HAL_Driver/Src/stm32h7xx_ll_usb.c ****   return HAL_OK;
 493:Drivers/STM32H7xx_HAL_Driver/Src/stm32h7xx_ll_usb.c **** }
 494:Drivers/STM32H7xx_HAL_Driver/Src/stm32h7xx_ll_usb.c **** 
 495:Drivers/STM32H7xx_HAL_Driver/Src/stm32h7xx_ll_usb.c **** /**
 496:Drivers/STM32H7xx_HAL_Driver/Src/stm32h7xx_ll_usb.c ****   * @brief  USB_GetDevSpeed  Return the Dev Speed
 497:Drivers/STM32H7xx_HAL_Driver/Src/stm32h7xx_ll_usb.c ****   * @param  USBx  Selected device
 498:Drivers/STM32H7xx_HAL_Driver/Src/stm32h7xx_ll_usb.c ****   * @retval speed  device speed
 499:Drivers/STM32H7xx_HAL_Driver/Src/stm32h7xx_ll_usb.c ****   *          This parameter can be one of these values:
 500:Drivers/STM32H7xx_HAL_Driver/Src/stm32h7xx_ll_usb.c ****   *            @arg USBD_HS_SPEED: High speed mode
 501:Drivers/STM32H7xx_HAL_Driver/Src/stm32h7xx_ll_usb.c ****   *            @arg USBD_FS_SPEED: Full speed mode
 502:Drivers/STM32H7xx_HAL_Driver/Src/stm32h7xx_ll_usb.c ****   */
 503:Drivers/STM32H7xx_HAL_Driver/Src/stm32h7xx_ll_usb.c **** uint8_t USB_GetDevSpeed(USB_OTG_GlobalTypeDef *USBx)
 504:Drivers/STM32H7xx_HAL_Driver/Src/stm32h7xx_ll_usb.c **** {
 505:Drivers/STM32H7xx_HAL_Driver/Src/stm32h7xx_ll_usb.c ****   uint32_t USBx_BASE = (uint32_t)USBx;
 506:Drivers/STM32H7xx_HAL_Driver/Src/stm32h7xx_ll_usb.c ****   uint8_t speed;
 507:Drivers/STM32H7xx_HAL_Driver/Src/stm32h7xx_ll_usb.c ****   uint32_t DevEnumSpeed = USBx_DEVICE->DSTS & USB_OTG_DSTS_ENUMSPD;
 508:Drivers/STM32H7xx_HAL_Driver/Src/stm32h7xx_ll_usb.c **** 
 509:Drivers/STM32H7xx_HAL_Driver/Src/stm32h7xx_ll_usb.c ****   if (DevEnumSpeed == DSTS_ENUMSPD_HS_PHY_30MHZ_OR_60MHZ)
 510:Drivers/STM32H7xx_HAL_Driver/Src/stm32h7xx_ll_usb.c ****   {
 511:Drivers/STM32H7xx_HAL_Driver/Src/stm32h7xx_ll_usb.c ****     speed = USBD_HS_SPEED;
 512:Drivers/STM32H7xx_HAL_Driver/Src/stm32h7xx_ll_usb.c ****   }
 513:Drivers/STM32H7xx_HAL_Driver/Src/stm32h7xx_ll_usb.c ****   else if ((DevEnumSpeed == DSTS_ENUMSPD_FS_PHY_30MHZ_OR_60MHZ) ||
 514:Drivers/STM32H7xx_HAL_Driver/Src/stm32h7xx_ll_usb.c ****            (DevEnumSpeed == DSTS_ENUMSPD_FS_PHY_48MHZ))
 515:Drivers/STM32H7xx_HAL_Driver/Src/stm32h7xx_ll_usb.c ****   {
 516:Drivers/STM32H7xx_HAL_Driver/Src/stm32h7xx_ll_usb.c ****     speed = USBD_FS_SPEED;
 517:Drivers/STM32H7xx_HAL_Driver/Src/stm32h7xx_ll_usb.c ****   }
 518:Drivers/STM32H7xx_HAL_Driver/Src/stm32h7xx_ll_usb.c ****   else
 519:Drivers/STM32H7xx_HAL_Driver/Src/stm32h7xx_ll_usb.c ****   {
 520:Drivers/STM32H7xx_HAL_Driver/Src/stm32h7xx_ll_usb.c ****     speed = 0xFU;
 521:Drivers/STM32H7xx_HAL_Driver/Src/stm32h7xx_ll_usb.c ****   }
 522:Drivers/STM32H7xx_HAL_Driver/Src/stm32h7xx_ll_usb.c **** 
 523:Drivers/STM32H7xx_HAL_Driver/Src/stm32h7xx_ll_usb.c ****   return speed;
 524:Drivers/STM32H7xx_HAL_Driver/Src/stm32h7xx_ll_usb.c **** }
 525:Drivers/STM32H7xx_HAL_Driver/Src/stm32h7xx_ll_usb.c **** 
 526:Drivers/STM32H7xx_HAL_Driver/Src/stm32h7xx_ll_usb.c **** /**
 527:Drivers/STM32H7xx_HAL_Driver/Src/stm32h7xx_ll_usb.c ****   * @brief  Activate and configure an endpoint
 528:Drivers/STM32H7xx_HAL_Driver/Src/stm32h7xx_ll_usb.c ****   * @param  USBx  Selected device
 529:Drivers/STM32H7xx_HAL_Driver/Src/stm32h7xx_ll_usb.c ****   * @param  ep pointer to endpoint structure
 530:Drivers/STM32H7xx_HAL_Driver/Src/stm32h7xx_ll_usb.c ****   * @retval HAL status
 531:Drivers/STM32H7xx_HAL_Driver/Src/stm32h7xx_ll_usb.c ****   */
 532:Drivers/STM32H7xx_HAL_Driver/Src/stm32h7xx_ll_usb.c **** HAL_StatusTypeDef USB_ActivateEndpoint(USB_OTG_GlobalTypeDef *USBx, USB_OTG_EPTypeDef *ep)
 533:Drivers/STM32H7xx_HAL_Driver/Src/stm32h7xx_ll_usb.c **** {
 534:Drivers/STM32H7xx_HAL_Driver/Src/stm32h7xx_ll_usb.c ****   uint32_t USBx_BASE = (uint32_t)USBx;
 535:Drivers/STM32H7xx_HAL_Driver/Src/stm32h7xx_ll_usb.c ****   uint32_t epnum = (uint32_t)ep->num;
 536:Drivers/STM32H7xx_HAL_Driver/Src/stm32h7xx_ll_usb.c **** 
 537:Drivers/STM32H7xx_HAL_Driver/Src/stm32h7xx_ll_usb.c ****   if (ep->is_in == 1U)
 538:Drivers/STM32H7xx_HAL_Driver/Src/stm32h7xx_ll_usb.c ****   {
 539:Drivers/STM32H7xx_HAL_Driver/Src/stm32h7xx_ll_usb.c ****     USBx_DEVICE->DAINTMSK |= USB_OTG_DAINTMSK_IEPM & (uint32_t)(1UL << (ep->num & EP_ADDR_MSK));
 540:Drivers/STM32H7xx_HAL_Driver/Src/stm32h7xx_ll_usb.c **** 
 541:Drivers/STM32H7xx_HAL_Driver/Src/stm32h7xx_ll_usb.c ****     if ((USBx_INEP(epnum)->DIEPCTL & USB_OTG_DIEPCTL_USBAEP) == 0U)
 542:Drivers/STM32H7xx_HAL_Driver/Src/stm32h7xx_ll_usb.c ****     {
 543:Drivers/STM32H7xx_HAL_Driver/Src/stm32h7xx_ll_usb.c ****       USBx_INEP(epnum)->DIEPCTL |= (ep->maxpacket & USB_OTG_DIEPCTL_MPSIZ) |
 544:Drivers/STM32H7xx_HAL_Driver/Src/stm32h7xx_ll_usb.c ****                                    ((uint32_t)ep->type << 18) | (epnum << 22) |
ARM GAS  /var/folders/26/q55yrwgs1ql1lprjdslmzz800000gn/T//ccC08pEc.s 			page 11


 545:Drivers/STM32H7xx_HAL_Driver/Src/stm32h7xx_ll_usb.c ****                                    USB_OTG_DIEPCTL_SD0PID_SEVNFRM |
 546:Drivers/STM32H7xx_HAL_Driver/Src/stm32h7xx_ll_usb.c ****                                    USB_OTG_DIEPCTL_USBAEP;
 547:Drivers/STM32H7xx_HAL_Driver/Src/stm32h7xx_ll_usb.c ****     }
 548:Drivers/STM32H7xx_HAL_Driver/Src/stm32h7xx_ll_usb.c ****   }
 549:Drivers/STM32H7xx_HAL_Driver/Src/stm32h7xx_ll_usb.c ****   else
 550:Drivers/STM32H7xx_HAL_Driver/Src/stm32h7xx_ll_usb.c ****   {
 551:Drivers/STM32H7xx_HAL_Driver/Src/stm32h7xx_ll_usb.c ****     USBx_DEVICE->DAINTMSK |= USB_OTG_DAINTMSK_OEPM & ((uint32_t)(1UL << (ep->num & EP_ADDR_MSK)) <<
 552:Drivers/STM32H7xx_HAL_Driver/Src/stm32h7xx_ll_usb.c **** 
 553:Drivers/STM32H7xx_HAL_Driver/Src/stm32h7xx_ll_usb.c ****     if (((USBx_OUTEP(epnum)->DOEPCTL) & USB_OTG_DOEPCTL_USBAEP) == 0U)
 554:Drivers/STM32H7xx_HAL_Driver/Src/stm32h7xx_ll_usb.c ****     {
 555:Drivers/STM32H7xx_HAL_Driver/Src/stm32h7xx_ll_usb.c ****       USBx_OUTEP(epnum)->DOEPCTL |= (ep->maxpacket & USB_OTG_DOEPCTL_MPSIZ) |
 556:Drivers/STM32H7xx_HAL_Driver/Src/stm32h7xx_ll_usb.c ****                                     ((uint32_t)ep->type << 18) |
 557:Drivers/STM32H7xx_HAL_Driver/Src/stm32h7xx_ll_usb.c ****                                     USB_OTG_DIEPCTL_SD0PID_SEVNFRM |
 558:Drivers/STM32H7xx_HAL_Driver/Src/stm32h7xx_ll_usb.c ****                                     USB_OTG_DOEPCTL_USBAEP;
 559:Drivers/STM32H7xx_HAL_Driver/Src/stm32h7xx_ll_usb.c ****     }
 560:Drivers/STM32H7xx_HAL_Driver/Src/stm32h7xx_ll_usb.c ****   }
 561:Drivers/STM32H7xx_HAL_Driver/Src/stm32h7xx_ll_usb.c ****   return HAL_OK;
 562:Drivers/STM32H7xx_HAL_Driver/Src/stm32h7xx_ll_usb.c **** }
 563:Drivers/STM32H7xx_HAL_Driver/Src/stm32h7xx_ll_usb.c **** 
 564:Drivers/STM32H7xx_HAL_Driver/Src/stm32h7xx_ll_usb.c **** /**
 565:Drivers/STM32H7xx_HAL_Driver/Src/stm32h7xx_ll_usb.c ****   * @brief  Activate and configure a dedicated endpoint
 566:Drivers/STM32H7xx_HAL_Driver/Src/stm32h7xx_ll_usb.c ****   * @param  USBx  Selected device
 567:Drivers/STM32H7xx_HAL_Driver/Src/stm32h7xx_ll_usb.c ****   * @param  ep pointer to endpoint structure
 568:Drivers/STM32H7xx_HAL_Driver/Src/stm32h7xx_ll_usb.c ****   * @retval HAL status
 569:Drivers/STM32H7xx_HAL_Driver/Src/stm32h7xx_ll_usb.c ****   */
 570:Drivers/STM32H7xx_HAL_Driver/Src/stm32h7xx_ll_usb.c **** HAL_StatusTypeDef USB_ActivateDedicatedEndpoint(USB_OTG_GlobalTypeDef *USBx, USB_OTG_EPTypeDef *ep)
 571:Drivers/STM32H7xx_HAL_Driver/Src/stm32h7xx_ll_usb.c **** {
 572:Drivers/STM32H7xx_HAL_Driver/Src/stm32h7xx_ll_usb.c ****   uint32_t USBx_BASE = (uint32_t)USBx;
 573:Drivers/STM32H7xx_HAL_Driver/Src/stm32h7xx_ll_usb.c ****   uint32_t epnum = (uint32_t)ep->num;
 574:Drivers/STM32H7xx_HAL_Driver/Src/stm32h7xx_ll_usb.c **** 
 575:Drivers/STM32H7xx_HAL_Driver/Src/stm32h7xx_ll_usb.c ****   /* Read DEPCTLn register */
 576:Drivers/STM32H7xx_HAL_Driver/Src/stm32h7xx_ll_usb.c ****   if (ep->is_in == 1U)
 577:Drivers/STM32H7xx_HAL_Driver/Src/stm32h7xx_ll_usb.c ****   {
 578:Drivers/STM32H7xx_HAL_Driver/Src/stm32h7xx_ll_usb.c ****     if (((USBx_INEP(epnum)->DIEPCTL) & USB_OTG_DIEPCTL_USBAEP) == 0U)
 579:Drivers/STM32H7xx_HAL_Driver/Src/stm32h7xx_ll_usb.c ****     {
 580:Drivers/STM32H7xx_HAL_Driver/Src/stm32h7xx_ll_usb.c ****       USBx_INEP(epnum)->DIEPCTL |= (ep->maxpacket & USB_OTG_DIEPCTL_MPSIZ) |
 581:Drivers/STM32H7xx_HAL_Driver/Src/stm32h7xx_ll_usb.c ****                                    ((uint32_t)ep->type << 18) | (epnum << 22) |
 582:Drivers/STM32H7xx_HAL_Driver/Src/stm32h7xx_ll_usb.c ****                                    USB_OTG_DIEPCTL_SD0PID_SEVNFRM |
 583:Drivers/STM32H7xx_HAL_Driver/Src/stm32h7xx_ll_usb.c ****                                    USB_OTG_DIEPCTL_USBAEP;
 584:Drivers/STM32H7xx_HAL_Driver/Src/stm32h7xx_ll_usb.c ****     }
 585:Drivers/STM32H7xx_HAL_Driver/Src/stm32h7xx_ll_usb.c **** 
 586:Drivers/STM32H7xx_HAL_Driver/Src/stm32h7xx_ll_usb.c ****     USBx_DEVICE->DEACHMSK |= USB_OTG_DAINTMSK_IEPM & (uint32_t)(1UL << (ep->num & EP_ADDR_MSK));
 587:Drivers/STM32H7xx_HAL_Driver/Src/stm32h7xx_ll_usb.c ****   }
 588:Drivers/STM32H7xx_HAL_Driver/Src/stm32h7xx_ll_usb.c ****   else
 589:Drivers/STM32H7xx_HAL_Driver/Src/stm32h7xx_ll_usb.c ****   {
 590:Drivers/STM32H7xx_HAL_Driver/Src/stm32h7xx_ll_usb.c ****     if (((USBx_OUTEP(epnum)->DOEPCTL) & USB_OTG_DOEPCTL_USBAEP) == 0U)
 591:Drivers/STM32H7xx_HAL_Driver/Src/stm32h7xx_ll_usb.c ****     {
 592:Drivers/STM32H7xx_HAL_Driver/Src/stm32h7xx_ll_usb.c ****       USBx_OUTEP(epnum)->DOEPCTL |= (ep->maxpacket & USB_OTG_DOEPCTL_MPSIZ) |
 593:Drivers/STM32H7xx_HAL_Driver/Src/stm32h7xx_ll_usb.c ****                                     ((uint32_t)ep->type << 18) | (epnum << 22) |
 594:Drivers/STM32H7xx_HAL_Driver/Src/stm32h7xx_ll_usb.c ****                                     USB_OTG_DOEPCTL_USBAEP;
 595:Drivers/STM32H7xx_HAL_Driver/Src/stm32h7xx_ll_usb.c ****     }
 596:Drivers/STM32H7xx_HAL_Driver/Src/stm32h7xx_ll_usb.c **** 
 597:Drivers/STM32H7xx_HAL_Driver/Src/stm32h7xx_ll_usb.c ****     USBx_DEVICE->DEACHMSK |= USB_OTG_DAINTMSK_OEPM & ((uint32_t)(1UL << (ep->num & EP_ADDR_MSK)) <<
 598:Drivers/STM32H7xx_HAL_Driver/Src/stm32h7xx_ll_usb.c ****   }
 599:Drivers/STM32H7xx_HAL_Driver/Src/stm32h7xx_ll_usb.c **** 
 600:Drivers/STM32H7xx_HAL_Driver/Src/stm32h7xx_ll_usb.c ****   return HAL_OK;
 601:Drivers/STM32H7xx_HAL_Driver/Src/stm32h7xx_ll_usb.c **** }
ARM GAS  /var/folders/26/q55yrwgs1ql1lprjdslmzz800000gn/T//ccC08pEc.s 			page 12


 602:Drivers/STM32H7xx_HAL_Driver/Src/stm32h7xx_ll_usb.c **** 
 603:Drivers/STM32H7xx_HAL_Driver/Src/stm32h7xx_ll_usb.c **** /**
 604:Drivers/STM32H7xx_HAL_Driver/Src/stm32h7xx_ll_usb.c ****   * @brief  De-activate and de-initialize an endpoint
 605:Drivers/STM32H7xx_HAL_Driver/Src/stm32h7xx_ll_usb.c ****   * @param  USBx  Selected device
 606:Drivers/STM32H7xx_HAL_Driver/Src/stm32h7xx_ll_usb.c ****   * @param  ep pointer to endpoint structure
 607:Drivers/STM32H7xx_HAL_Driver/Src/stm32h7xx_ll_usb.c ****   * @retval HAL status
 608:Drivers/STM32H7xx_HAL_Driver/Src/stm32h7xx_ll_usb.c ****   */
 609:Drivers/STM32H7xx_HAL_Driver/Src/stm32h7xx_ll_usb.c **** HAL_StatusTypeDef USB_DeactivateEndpoint(USB_OTG_GlobalTypeDef *USBx, USB_OTG_EPTypeDef *ep)
 610:Drivers/STM32H7xx_HAL_Driver/Src/stm32h7xx_ll_usb.c **** {
 611:Drivers/STM32H7xx_HAL_Driver/Src/stm32h7xx_ll_usb.c ****   uint32_t USBx_BASE = (uint32_t)USBx;
 612:Drivers/STM32H7xx_HAL_Driver/Src/stm32h7xx_ll_usb.c ****   uint32_t epnum = (uint32_t)ep->num;
 613:Drivers/STM32H7xx_HAL_Driver/Src/stm32h7xx_ll_usb.c **** 
 614:Drivers/STM32H7xx_HAL_Driver/Src/stm32h7xx_ll_usb.c ****   /* Read DEPCTLn register */
 615:Drivers/STM32H7xx_HAL_Driver/Src/stm32h7xx_ll_usb.c ****   if (ep->is_in == 1U)
 616:Drivers/STM32H7xx_HAL_Driver/Src/stm32h7xx_ll_usb.c ****   {
 617:Drivers/STM32H7xx_HAL_Driver/Src/stm32h7xx_ll_usb.c ****     if ((USBx_INEP(epnum)->DIEPCTL & USB_OTG_DIEPCTL_EPENA) == USB_OTG_DIEPCTL_EPENA)
 618:Drivers/STM32H7xx_HAL_Driver/Src/stm32h7xx_ll_usb.c ****     {
 619:Drivers/STM32H7xx_HAL_Driver/Src/stm32h7xx_ll_usb.c ****       USBx_INEP(epnum)->DIEPCTL |= USB_OTG_DIEPCTL_SNAK;
 620:Drivers/STM32H7xx_HAL_Driver/Src/stm32h7xx_ll_usb.c ****       USBx_INEP(epnum)->DIEPCTL |= USB_OTG_DIEPCTL_EPDIS;
 621:Drivers/STM32H7xx_HAL_Driver/Src/stm32h7xx_ll_usb.c ****     }
 622:Drivers/STM32H7xx_HAL_Driver/Src/stm32h7xx_ll_usb.c **** 
 623:Drivers/STM32H7xx_HAL_Driver/Src/stm32h7xx_ll_usb.c ****     USBx_DEVICE->DEACHMSK &= ~(USB_OTG_DAINTMSK_IEPM & (uint32_t)(1UL << (ep->num & EP_ADDR_MSK)));
 624:Drivers/STM32H7xx_HAL_Driver/Src/stm32h7xx_ll_usb.c ****     USBx_DEVICE->DAINTMSK &= ~(USB_OTG_DAINTMSK_IEPM & (uint32_t)(1UL << (ep->num & EP_ADDR_MSK)));
 625:Drivers/STM32H7xx_HAL_Driver/Src/stm32h7xx_ll_usb.c ****     USBx_INEP(epnum)->DIEPCTL &= ~(USB_OTG_DIEPCTL_USBAEP |
 626:Drivers/STM32H7xx_HAL_Driver/Src/stm32h7xx_ll_usb.c ****                                    USB_OTG_DIEPCTL_MPSIZ |
 627:Drivers/STM32H7xx_HAL_Driver/Src/stm32h7xx_ll_usb.c ****                                    USB_OTG_DIEPCTL_TXFNUM |
 628:Drivers/STM32H7xx_HAL_Driver/Src/stm32h7xx_ll_usb.c ****                                    USB_OTG_DIEPCTL_SD0PID_SEVNFRM |
 629:Drivers/STM32H7xx_HAL_Driver/Src/stm32h7xx_ll_usb.c ****                                    USB_OTG_DIEPCTL_EPTYP);
 630:Drivers/STM32H7xx_HAL_Driver/Src/stm32h7xx_ll_usb.c ****   }
 631:Drivers/STM32H7xx_HAL_Driver/Src/stm32h7xx_ll_usb.c ****   else
 632:Drivers/STM32H7xx_HAL_Driver/Src/stm32h7xx_ll_usb.c ****   {
 633:Drivers/STM32H7xx_HAL_Driver/Src/stm32h7xx_ll_usb.c ****     if ((USBx_OUTEP(epnum)->DOEPCTL & USB_OTG_DOEPCTL_EPENA) == USB_OTG_DOEPCTL_EPENA)
 634:Drivers/STM32H7xx_HAL_Driver/Src/stm32h7xx_ll_usb.c ****     {
 635:Drivers/STM32H7xx_HAL_Driver/Src/stm32h7xx_ll_usb.c ****       USBx_OUTEP(epnum)->DOEPCTL |= USB_OTG_DOEPCTL_SNAK;
 636:Drivers/STM32H7xx_HAL_Driver/Src/stm32h7xx_ll_usb.c ****       USBx_OUTEP(epnum)->DOEPCTL |= USB_OTG_DOEPCTL_EPDIS;
 637:Drivers/STM32H7xx_HAL_Driver/Src/stm32h7xx_ll_usb.c ****     }
 638:Drivers/STM32H7xx_HAL_Driver/Src/stm32h7xx_ll_usb.c **** 
 639:Drivers/STM32H7xx_HAL_Driver/Src/stm32h7xx_ll_usb.c ****     USBx_DEVICE->DEACHMSK &= ~(USB_OTG_DAINTMSK_OEPM & ((uint32_t)(1UL << (ep->num & EP_ADDR_MSK)) 
 640:Drivers/STM32H7xx_HAL_Driver/Src/stm32h7xx_ll_usb.c ****     USBx_DEVICE->DAINTMSK &= ~(USB_OTG_DAINTMSK_OEPM & ((uint32_t)(1UL << (ep->num & EP_ADDR_MSK)) 
 641:Drivers/STM32H7xx_HAL_Driver/Src/stm32h7xx_ll_usb.c ****     USBx_OUTEP(epnum)->DOEPCTL &= ~(USB_OTG_DOEPCTL_USBAEP |
 642:Drivers/STM32H7xx_HAL_Driver/Src/stm32h7xx_ll_usb.c ****                                     USB_OTG_DOEPCTL_MPSIZ |
 643:Drivers/STM32H7xx_HAL_Driver/Src/stm32h7xx_ll_usb.c ****                                     USB_OTG_DOEPCTL_SD0PID_SEVNFRM |
 644:Drivers/STM32H7xx_HAL_Driver/Src/stm32h7xx_ll_usb.c ****                                     USB_OTG_DOEPCTL_EPTYP);
 645:Drivers/STM32H7xx_HAL_Driver/Src/stm32h7xx_ll_usb.c ****   }
 646:Drivers/STM32H7xx_HAL_Driver/Src/stm32h7xx_ll_usb.c **** 
 647:Drivers/STM32H7xx_HAL_Driver/Src/stm32h7xx_ll_usb.c ****   return HAL_OK;
 648:Drivers/STM32H7xx_HAL_Driver/Src/stm32h7xx_ll_usb.c **** }
 649:Drivers/STM32H7xx_HAL_Driver/Src/stm32h7xx_ll_usb.c **** 
 650:Drivers/STM32H7xx_HAL_Driver/Src/stm32h7xx_ll_usb.c **** /**
 651:Drivers/STM32H7xx_HAL_Driver/Src/stm32h7xx_ll_usb.c ****   * @brief  De-activate and de-initialize a dedicated endpoint
 652:Drivers/STM32H7xx_HAL_Driver/Src/stm32h7xx_ll_usb.c ****   * @param  USBx  Selected device
 653:Drivers/STM32H7xx_HAL_Driver/Src/stm32h7xx_ll_usb.c ****   * @param  ep pointer to endpoint structure
 654:Drivers/STM32H7xx_HAL_Driver/Src/stm32h7xx_ll_usb.c ****   * @retval HAL status
 655:Drivers/STM32H7xx_HAL_Driver/Src/stm32h7xx_ll_usb.c ****   */
 656:Drivers/STM32H7xx_HAL_Driver/Src/stm32h7xx_ll_usb.c **** HAL_StatusTypeDef USB_DeactivateDedicatedEndpoint(USB_OTG_GlobalTypeDef *USBx, USB_OTG_EPTypeDef *e
 657:Drivers/STM32H7xx_HAL_Driver/Src/stm32h7xx_ll_usb.c **** {
 658:Drivers/STM32H7xx_HAL_Driver/Src/stm32h7xx_ll_usb.c ****   uint32_t USBx_BASE = (uint32_t)USBx;
ARM GAS  /var/folders/26/q55yrwgs1ql1lprjdslmzz800000gn/T//ccC08pEc.s 			page 13


 659:Drivers/STM32H7xx_HAL_Driver/Src/stm32h7xx_ll_usb.c ****   uint32_t epnum = (uint32_t)ep->num;
 660:Drivers/STM32H7xx_HAL_Driver/Src/stm32h7xx_ll_usb.c **** 
 661:Drivers/STM32H7xx_HAL_Driver/Src/stm32h7xx_ll_usb.c ****   /* Read DEPCTLn register */
 662:Drivers/STM32H7xx_HAL_Driver/Src/stm32h7xx_ll_usb.c ****   if (ep->is_in == 1U)
 663:Drivers/STM32H7xx_HAL_Driver/Src/stm32h7xx_ll_usb.c ****   {
 664:Drivers/STM32H7xx_HAL_Driver/Src/stm32h7xx_ll_usb.c ****     if ((USBx_INEP(epnum)->DIEPCTL & USB_OTG_DIEPCTL_EPENA) == USB_OTG_DIEPCTL_EPENA)
 665:Drivers/STM32H7xx_HAL_Driver/Src/stm32h7xx_ll_usb.c ****     {
 666:Drivers/STM32H7xx_HAL_Driver/Src/stm32h7xx_ll_usb.c ****       USBx_INEP(epnum)->DIEPCTL  |= USB_OTG_DIEPCTL_SNAK;
 667:Drivers/STM32H7xx_HAL_Driver/Src/stm32h7xx_ll_usb.c ****       USBx_INEP(epnum)->DIEPCTL  |= USB_OTG_DIEPCTL_EPDIS;
 668:Drivers/STM32H7xx_HAL_Driver/Src/stm32h7xx_ll_usb.c ****     }
 669:Drivers/STM32H7xx_HAL_Driver/Src/stm32h7xx_ll_usb.c **** 
 670:Drivers/STM32H7xx_HAL_Driver/Src/stm32h7xx_ll_usb.c ****     USBx_INEP(epnum)->DIEPCTL &= ~ USB_OTG_DIEPCTL_USBAEP;
 671:Drivers/STM32H7xx_HAL_Driver/Src/stm32h7xx_ll_usb.c ****     USBx_DEVICE->DAINTMSK &= ~(USB_OTG_DAINTMSK_IEPM & (uint32_t)(1UL << (ep->num & EP_ADDR_MSK)));
 672:Drivers/STM32H7xx_HAL_Driver/Src/stm32h7xx_ll_usb.c ****   }
 673:Drivers/STM32H7xx_HAL_Driver/Src/stm32h7xx_ll_usb.c ****   else
 674:Drivers/STM32H7xx_HAL_Driver/Src/stm32h7xx_ll_usb.c ****   {
 675:Drivers/STM32H7xx_HAL_Driver/Src/stm32h7xx_ll_usb.c ****     if ((USBx_OUTEP(epnum)->DOEPCTL & USB_OTG_DOEPCTL_EPENA) == USB_OTG_DOEPCTL_EPENA)
 676:Drivers/STM32H7xx_HAL_Driver/Src/stm32h7xx_ll_usb.c ****     {
 677:Drivers/STM32H7xx_HAL_Driver/Src/stm32h7xx_ll_usb.c ****       USBx_OUTEP(epnum)->DOEPCTL  |= USB_OTG_DOEPCTL_SNAK;
 678:Drivers/STM32H7xx_HAL_Driver/Src/stm32h7xx_ll_usb.c ****       USBx_OUTEP(epnum)->DOEPCTL  |= USB_OTG_DOEPCTL_EPDIS;
 679:Drivers/STM32H7xx_HAL_Driver/Src/stm32h7xx_ll_usb.c ****     }
 680:Drivers/STM32H7xx_HAL_Driver/Src/stm32h7xx_ll_usb.c **** 
 681:Drivers/STM32H7xx_HAL_Driver/Src/stm32h7xx_ll_usb.c ****     USBx_OUTEP(epnum)->DOEPCTL &= ~USB_OTG_DOEPCTL_USBAEP;
 682:Drivers/STM32H7xx_HAL_Driver/Src/stm32h7xx_ll_usb.c ****     USBx_DEVICE->DAINTMSK &= ~(USB_OTG_DAINTMSK_OEPM & ((uint32_t)(1UL << (ep->num & EP_ADDR_MSK)) 
 683:Drivers/STM32H7xx_HAL_Driver/Src/stm32h7xx_ll_usb.c ****   }
 684:Drivers/STM32H7xx_HAL_Driver/Src/stm32h7xx_ll_usb.c **** 
 685:Drivers/STM32H7xx_HAL_Driver/Src/stm32h7xx_ll_usb.c ****   return HAL_OK;
 686:Drivers/STM32H7xx_HAL_Driver/Src/stm32h7xx_ll_usb.c **** }
 687:Drivers/STM32H7xx_HAL_Driver/Src/stm32h7xx_ll_usb.c **** 
 688:Drivers/STM32H7xx_HAL_Driver/Src/stm32h7xx_ll_usb.c **** /**
 689:Drivers/STM32H7xx_HAL_Driver/Src/stm32h7xx_ll_usb.c ****   * @brief  USB_EPStartXfer : setup and starts a transfer over an EP
 690:Drivers/STM32H7xx_HAL_Driver/Src/stm32h7xx_ll_usb.c ****   * @param  USBx  Selected device
 691:Drivers/STM32H7xx_HAL_Driver/Src/stm32h7xx_ll_usb.c ****   * @param  ep pointer to endpoint structure
 692:Drivers/STM32H7xx_HAL_Driver/Src/stm32h7xx_ll_usb.c ****   * @param  dma USB dma enabled or disabled
 693:Drivers/STM32H7xx_HAL_Driver/Src/stm32h7xx_ll_usb.c ****   *          This parameter can be one of these values:
 694:Drivers/STM32H7xx_HAL_Driver/Src/stm32h7xx_ll_usb.c ****   *           0 : DMA feature not used
 695:Drivers/STM32H7xx_HAL_Driver/Src/stm32h7xx_ll_usb.c ****   *           1 : DMA feature used
 696:Drivers/STM32H7xx_HAL_Driver/Src/stm32h7xx_ll_usb.c ****   * @retval HAL status
 697:Drivers/STM32H7xx_HAL_Driver/Src/stm32h7xx_ll_usb.c ****   */
 698:Drivers/STM32H7xx_HAL_Driver/Src/stm32h7xx_ll_usb.c **** HAL_StatusTypeDef USB_EPStartXfer(USB_OTG_GlobalTypeDef *USBx, USB_OTG_EPTypeDef *ep, uint8_t dma)
 699:Drivers/STM32H7xx_HAL_Driver/Src/stm32h7xx_ll_usb.c **** {
 700:Drivers/STM32H7xx_HAL_Driver/Src/stm32h7xx_ll_usb.c ****   uint32_t USBx_BASE = (uint32_t)USBx;
 701:Drivers/STM32H7xx_HAL_Driver/Src/stm32h7xx_ll_usb.c ****   uint32_t epnum = (uint32_t)ep->num;
 702:Drivers/STM32H7xx_HAL_Driver/Src/stm32h7xx_ll_usb.c ****   uint16_t pktcnt;
 703:Drivers/STM32H7xx_HAL_Driver/Src/stm32h7xx_ll_usb.c **** 
 704:Drivers/STM32H7xx_HAL_Driver/Src/stm32h7xx_ll_usb.c ****   /* IN endpoint */
 705:Drivers/STM32H7xx_HAL_Driver/Src/stm32h7xx_ll_usb.c ****   if (ep->is_in == 1U)
 706:Drivers/STM32H7xx_HAL_Driver/Src/stm32h7xx_ll_usb.c ****   {
 707:Drivers/STM32H7xx_HAL_Driver/Src/stm32h7xx_ll_usb.c ****     /* Zero Length Packet? */
 708:Drivers/STM32H7xx_HAL_Driver/Src/stm32h7xx_ll_usb.c ****     if (ep->xfer_len == 0U)
 709:Drivers/STM32H7xx_HAL_Driver/Src/stm32h7xx_ll_usb.c ****     {
 710:Drivers/STM32H7xx_HAL_Driver/Src/stm32h7xx_ll_usb.c ****       USBx_INEP(epnum)->DIEPTSIZ &= ~(USB_OTG_DIEPTSIZ_PKTCNT);
 711:Drivers/STM32H7xx_HAL_Driver/Src/stm32h7xx_ll_usb.c ****       USBx_INEP(epnum)->DIEPTSIZ |= (USB_OTG_DIEPTSIZ_PKTCNT & (1U << 19));
 712:Drivers/STM32H7xx_HAL_Driver/Src/stm32h7xx_ll_usb.c ****       USBx_INEP(epnum)->DIEPTSIZ &= ~(USB_OTG_DIEPTSIZ_XFRSIZ);
 713:Drivers/STM32H7xx_HAL_Driver/Src/stm32h7xx_ll_usb.c ****     }
 714:Drivers/STM32H7xx_HAL_Driver/Src/stm32h7xx_ll_usb.c ****     else
 715:Drivers/STM32H7xx_HAL_Driver/Src/stm32h7xx_ll_usb.c ****     {
ARM GAS  /var/folders/26/q55yrwgs1ql1lprjdslmzz800000gn/T//ccC08pEc.s 			page 14


 716:Drivers/STM32H7xx_HAL_Driver/Src/stm32h7xx_ll_usb.c ****       /* Program the transfer size and packet count
 717:Drivers/STM32H7xx_HAL_Driver/Src/stm32h7xx_ll_usb.c ****       * as follows: xfersize = N * maxpacket +
 718:Drivers/STM32H7xx_HAL_Driver/Src/stm32h7xx_ll_usb.c ****       * short_packet pktcnt = N + (short_packet
 719:Drivers/STM32H7xx_HAL_Driver/Src/stm32h7xx_ll_usb.c ****       * exist ? 1 : 0)
 720:Drivers/STM32H7xx_HAL_Driver/Src/stm32h7xx_ll_usb.c ****       */
 721:Drivers/STM32H7xx_HAL_Driver/Src/stm32h7xx_ll_usb.c ****       USBx_INEP(epnum)->DIEPTSIZ &= ~(USB_OTG_DIEPTSIZ_XFRSIZ);
 722:Drivers/STM32H7xx_HAL_Driver/Src/stm32h7xx_ll_usb.c ****       USBx_INEP(epnum)->DIEPTSIZ &= ~(USB_OTG_DIEPTSIZ_PKTCNT);
 723:Drivers/STM32H7xx_HAL_Driver/Src/stm32h7xx_ll_usb.c ****       USBx_INEP(epnum)->DIEPTSIZ |= (USB_OTG_DIEPTSIZ_PKTCNT & (((ep->xfer_len + ep->maxpacket - 1U
 724:Drivers/STM32H7xx_HAL_Driver/Src/stm32h7xx_ll_usb.c ****       USBx_INEP(epnum)->DIEPTSIZ |= (USB_OTG_DIEPTSIZ_XFRSIZ & ep->xfer_len);
 725:Drivers/STM32H7xx_HAL_Driver/Src/stm32h7xx_ll_usb.c **** 
 726:Drivers/STM32H7xx_HAL_Driver/Src/stm32h7xx_ll_usb.c ****       if (ep->type == EP_TYPE_ISOC)
 727:Drivers/STM32H7xx_HAL_Driver/Src/stm32h7xx_ll_usb.c ****       {
 728:Drivers/STM32H7xx_HAL_Driver/Src/stm32h7xx_ll_usb.c ****         USBx_INEP(epnum)->DIEPTSIZ &= ~(USB_OTG_DIEPTSIZ_MULCNT);
 729:Drivers/STM32H7xx_HAL_Driver/Src/stm32h7xx_ll_usb.c ****         USBx_INEP(epnum)->DIEPTSIZ |= (USB_OTG_DIEPTSIZ_MULCNT & (1U << 29));
 730:Drivers/STM32H7xx_HAL_Driver/Src/stm32h7xx_ll_usb.c ****       }
 731:Drivers/STM32H7xx_HAL_Driver/Src/stm32h7xx_ll_usb.c ****     }
 732:Drivers/STM32H7xx_HAL_Driver/Src/stm32h7xx_ll_usb.c **** 
 733:Drivers/STM32H7xx_HAL_Driver/Src/stm32h7xx_ll_usb.c ****     if (dma == 1U)
 734:Drivers/STM32H7xx_HAL_Driver/Src/stm32h7xx_ll_usb.c ****     {
 735:Drivers/STM32H7xx_HAL_Driver/Src/stm32h7xx_ll_usb.c ****       if ((uint32_t)ep->dma_addr != 0U)
 736:Drivers/STM32H7xx_HAL_Driver/Src/stm32h7xx_ll_usb.c ****       {
 737:Drivers/STM32H7xx_HAL_Driver/Src/stm32h7xx_ll_usb.c ****         USBx_INEP(epnum)->DIEPDMA = (uint32_t)(ep->dma_addr);
 738:Drivers/STM32H7xx_HAL_Driver/Src/stm32h7xx_ll_usb.c ****       }
 739:Drivers/STM32H7xx_HAL_Driver/Src/stm32h7xx_ll_usb.c **** 
 740:Drivers/STM32H7xx_HAL_Driver/Src/stm32h7xx_ll_usb.c ****       if (ep->type == EP_TYPE_ISOC)
 741:Drivers/STM32H7xx_HAL_Driver/Src/stm32h7xx_ll_usb.c ****       {
 742:Drivers/STM32H7xx_HAL_Driver/Src/stm32h7xx_ll_usb.c ****         if ((USBx_DEVICE->DSTS & (1U << 8)) == 0U)
 743:Drivers/STM32H7xx_HAL_Driver/Src/stm32h7xx_ll_usb.c ****         {
 744:Drivers/STM32H7xx_HAL_Driver/Src/stm32h7xx_ll_usb.c ****           USBx_INEP(epnum)->DIEPCTL |= USB_OTG_DIEPCTL_SODDFRM;
 745:Drivers/STM32H7xx_HAL_Driver/Src/stm32h7xx_ll_usb.c ****         }
 746:Drivers/STM32H7xx_HAL_Driver/Src/stm32h7xx_ll_usb.c ****         else
 747:Drivers/STM32H7xx_HAL_Driver/Src/stm32h7xx_ll_usb.c ****         {
 748:Drivers/STM32H7xx_HAL_Driver/Src/stm32h7xx_ll_usb.c ****           USBx_INEP(epnum)->DIEPCTL |= USB_OTG_DIEPCTL_SD0PID_SEVNFRM;
 749:Drivers/STM32H7xx_HAL_Driver/Src/stm32h7xx_ll_usb.c ****         }
 750:Drivers/STM32H7xx_HAL_Driver/Src/stm32h7xx_ll_usb.c ****       }
 751:Drivers/STM32H7xx_HAL_Driver/Src/stm32h7xx_ll_usb.c **** 
 752:Drivers/STM32H7xx_HAL_Driver/Src/stm32h7xx_ll_usb.c ****       /* EP enable, IN data in FIFO */
 753:Drivers/STM32H7xx_HAL_Driver/Src/stm32h7xx_ll_usb.c ****       USBx_INEP(epnum)->DIEPCTL |= (USB_OTG_DIEPCTL_CNAK | USB_OTG_DIEPCTL_EPENA);
 754:Drivers/STM32H7xx_HAL_Driver/Src/stm32h7xx_ll_usb.c ****     }
 755:Drivers/STM32H7xx_HAL_Driver/Src/stm32h7xx_ll_usb.c ****     else
 756:Drivers/STM32H7xx_HAL_Driver/Src/stm32h7xx_ll_usb.c ****     {
 757:Drivers/STM32H7xx_HAL_Driver/Src/stm32h7xx_ll_usb.c ****       /* EP enable, IN data in FIFO */
 758:Drivers/STM32H7xx_HAL_Driver/Src/stm32h7xx_ll_usb.c ****       USBx_INEP(epnum)->DIEPCTL |= (USB_OTG_DIEPCTL_CNAK | USB_OTG_DIEPCTL_EPENA);
 759:Drivers/STM32H7xx_HAL_Driver/Src/stm32h7xx_ll_usb.c **** 
 760:Drivers/STM32H7xx_HAL_Driver/Src/stm32h7xx_ll_usb.c ****       if (ep->type != EP_TYPE_ISOC)
 761:Drivers/STM32H7xx_HAL_Driver/Src/stm32h7xx_ll_usb.c ****       {
 762:Drivers/STM32H7xx_HAL_Driver/Src/stm32h7xx_ll_usb.c ****         /* Enable the Tx FIFO Empty Interrupt for this EP */
 763:Drivers/STM32H7xx_HAL_Driver/Src/stm32h7xx_ll_usb.c ****         if (ep->xfer_len > 0U)
 764:Drivers/STM32H7xx_HAL_Driver/Src/stm32h7xx_ll_usb.c ****         {
 765:Drivers/STM32H7xx_HAL_Driver/Src/stm32h7xx_ll_usb.c ****           USBx_DEVICE->DIEPEMPMSK |= 1UL << (ep->num & EP_ADDR_MSK);
 766:Drivers/STM32H7xx_HAL_Driver/Src/stm32h7xx_ll_usb.c ****         }
 767:Drivers/STM32H7xx_HAL_Driver/Src/stm32h7xx_ll_usb.c ****       }
 768:Drivers/STM32H7xx_HAL_Driver/Src/stm32h7xx_ll_usb.c ****       else
 769:Drivers/STM32H7xx_HAL_Driver/Src/stm32h7xx_ll_usb.c ****       {
 770:Drivers/STM32H7xx_HAL_Driver/Src/stm32h7xx_ll_usb.c ****         if ((USBx_DEVICE->DSTS & (1U << 8)) == 0U)
 771:Drivers/STM32H7xx_HAL_Driver/Src/stm32h7xx_ll_usb.c ****         {
 772:Drivers/STM32H7xx_HAL_Driver/Src/stm32h7xx_ll_usb.c ****           USBx_INEP(epnum)->DIEPCTL |= USB_OTG_DIEPCTL_SODDFRM;
ARM GAS  /var/folders/26/q55yrwgs1ql1lprjdslmzz800000gn/T//ccC08pEc.s 			page 15


 773:Drivers/STM32H7xx_HAL_Driver/Src/stm32h7xx_ll_usb.c ****         }
 774:Drivers/STM32H7xx_HAL_Driver/Src/stm32h7xx_ll_usb.c ****         else
 775:Drivers/STM32H7xx_HAL_Driver/Src/stm32h7xx_ll_usb.c ****         {
 776:Drivers/STM32H7xx_HAL_Driver/Src/stm32h7xx_ll_usb.c ****           USBx_INEP(epnum)->DIEPCTL |= USB_OTG_DIEPCTL_SD0PID_SEVNFRM;
 777:Drivers/STM32H7xx_HAL_Driver/Src/stm32h7xx_ll_usb.c ****         }
 778:Drivers/STM32H7xx_HAL_Driver/Src/stm32h7xx_ll_usb.c **** 
 779:Drivers/STM32H7xx_HAL_Driver/Src/stm32h7xx_ll_usb.c ****         (void)USB_WritePacket(USBx, ep->xfer_buff, ep->num, (uint16_t)ep->xfer_len, dma);
 780:Drivers/STM32H7xx_HAL_Driver/Src/stm32h7xx_ll_usb.c ****       }
 781:Drivers/STM32H7xx_HAL_Driver/Src/stm32h7xx_ll_usb.c ****     }
 782:Drivers/STM32H7xx_HAL_Driver/Src/stm32h7xx_ll_usb.c ****   }
 783:Drivers/STM32H7xx_HAL_Driver/Src/stm32h7xx_ll_usb.c ****   else /* OUT endpoint */
 784:Drivers/STM32H7xx_HAL_Driver/Src/stm32h7xx_ll_usb.c ****   {
 785:Drivers/STM32H7xx_HAL_Driver/Src/stm32h7xx_ll_usb.c ****     /* Program the transfer size and packet count as follows:
 786:Drivers/STM32H7xx_HAL_Driver/Src/stm32h7xx_ll_usb.c ****     * pktcnt = N
 787:Drivers/STM32H7xx_HAL_Driver/Src/stm32h7xx_ll_usb.c ****     * xfersize = N * maxpacket
 788:Drivers/STM32H7xx_HAL_Driver/Src/stm32h7xx_ll_usb.c ****     */
 789:Drivers/STM32H7xx_HAL_Driver/Src/stm32h7xx_ll_usb.c ****     USBx_OUTEP(epnum)->DOEPTSIZ &= ~(USB_OTG_DOEPTSIZ_XFRSIZ);
 790:Drivers/STM32H7xx_HAL_Driver/Src/stm32h7xx_ll_usb.c ****     USBx_OUTEP(epnum)->DOEPTSIZ &= ~(USB_OTG_DOEPTSIZ_PKTCNT);
 791:Drivers/STM32H7xx_HAL_Driver/Src/stm32h7xx_ll_usb.c **** 
 792:Drivers/STM32H7xx_HAL_Driver/Src/stm32h7xx_ll_usb.c ****     if (ep->xfer_len == 0U)
 793:Drivers/STM32H7xx_HAL_Driver/Src/stm32h7xx_ll_usb.c ****     {
 794:Drivers/STM32H7xx_HAL_Driver/Src/stm32h7xx_ll_usb.c ****       USBx_OUTEP(epnum)->DOEPTSIZ |= (USB_OTG_DOEPTSIZ_XFRSIZ & ep->maxpacket);
 795:Drivers/STM32H7xx_HAL_Driver/Src/stm32h7xx_ll_usb.c ****       USBx_OUTEP(epnum)->DOEPTSIZ |= (USB_OTG_DOEPTSIZ_PKTCNT & (1U << 19));
 796:Drivers/STM32H7xx_HAL_Driver/Src/stm32h7xx_ll_usb.c ****     }
 797:Drivers/STM32H7xx_HAL_Driver/Src/stm32h7xx_ll_usb.c ****     else
 798:Drivers/STM32H7xx_HAL_Driver/Src/stm32h7xx_ll_usb.c ****     {
 799:Drivers/STM32H7xx_HAL_Driver/Src/stm32h7xx_ll_usb.c ****       pktcnt = (uint16_t)((ep->xfer_len + ep->maxpacket - 1U) / ep->maxpacket);
 800:Drivers/STM32H7xx_HAL_Driver/Src/stm32h7xx_ll_usb.c ****       USBx_OUTEP(epnum)->DOEPTSIZ |= USB_OTG_DOEPTSIZ_PKTCNT & ((uint32_t)pktcnt << 19);
 801:Drivers/STM32H7xx_HAL_Driver/Src/stm32h7xx_ll_usb.c ****       USBx_OUTEP(epnum)->DOEPTSIZ |= USB_OTG_DOEPTSIZ_XFRSIZ & (ep->maxpacket * pktcnt);
 802:Drivers/STM32H7xx_HAL_Driver/Src/stm32h7xx_ll_usb.c ****     }
 803:Drivers/STM32H7xx_HAL_Driver/Src/stm32h7xx_ll_usb.c **** 
 804:Drivers/STM32H7xx_HAL_Driver/Src/stm32h7xx_ll_usb.c ****     if (dma == 1U)
 805:Drivers/STM32H7xx_HAL_Driver/Src/stm32h7xx_ll_usb.c ****     {
 806:Drivers/STM32H7xx_HAL_Driver/Src/stm32h7xx_ll_usb.c ****       if ((uint32_t)ep->xfer_buff != 0U)
 807:Drivers/STM32H7xx_HAL_Driver/Src/stm32h7xx_ll_usb.c ****       {
 808:Drivers/STM32H7xx_HAL_Driver/Src/stm32h7xx_ll_usb.c ****         USBx_OUTEP(epnum)->DOEPDMA = (uint32_t)(ep->xfer_buff);
 809:Drivers/STM32H7xx_HAL_Driver/Src/stm32h7xx_ll_usb.c ****       }
 810:Drivers/STM32H7xx_HAL_Driver/Src/stm32h7xx_ll_usb.c ****     }
 811:Drivers/STM32H7xx_HAL_Driver/Src/stm32h7xx_ll_usb.c **** 
 812:Drivers/STM32H7xx_HAL_Driver/Src/stm32h7xx_ll_usb.c ****     if (ep->type == EP_TYPE_ISOC)
 813:Drivers/STM32H7xx_HAL_Driver/Src/stm32h7xx_ll_usb.c ****     {
 814:Drivers/STM32H7xx_HAL_Driver/Src/stm32h7xx_ll_usb.c ****       if ((USBx_DEVICE->DSTS & (1U << 8)) == 0U)
 815:Drivers/STM32H7xx_HAL_Driver/Src/stm32h7xx_ll_usb.c ****       {
 816:Drivers/STM32H7xx_HAL_Driver/Src/stm32h7xx_ll_usb.c ****         USBx_OUTEP(epnum)->DOEPCTL |= USB_OTG_DOEPCTL_SODDFRM;
 817:Drivers/STM32H7xx_HAL_Driver/Src/stm32h7xx_ll_usb.c ****       }
 818:Drivers/STM32H7xx_HAL_Driver/Src/stm32h7xx_ll_usb.c ****       else
 819:Drivers/STM32H7xx_HAL_Driver/Src/stm32h7xx_ll_usb.c ****       {
 820:Drivers/STM32H7xx_HAL_Driver/Src/stm32h7xx_ll_usb.c ****         USBx_OUTEP(epnum)->DOEPCTL |= USB_OTG_DOEPCTL_SD0PID_SEVNFRM;
 821:Drivers/STM32H7xx_HAL_Driver/Src/stm32h7xx_ll_usb.c ****       }
 822:Drivers/STM32H7xx_HAL_Driver/Src/stm32h7xx_ll_usb.c ****     }
 823:Drivers/STM32H7xx_HAL_Driver/Src/stm32h7xx_ll_usb.c ****     /* EP enable */
 824:Drivers/STM32H7xx_HAL_Driver/Src/stm32h7xx_ll_usb.c ****     USBx_OUTEP(epnum)->DOEPCTL |= (USB_OTG_DOEPCTL_CNAK | USB_OTG_DOEPCTL_EPENA);
 825:Drivers/STM32H7xx_HAL_Driver/Src/stm32h7xx_ll_usb.c ****   }
 826:Drivers/STM32H7xx_HAL_Driver/Src/stm32h7xx_ll_usb.c **** 
 827:Drivers/STM32H7xx_HAL_Driver/Src/stm32h7xx_ll_usb.c ****   return HAL_OK;
 828:Drivers/STM32H7xx_HAL_Driver/Src/stm32h7xx_ll_usb.c **** }
 829:Drivers/STM32H7xx_HAL_Driver/Src/stm32h7xx_ll_usb.c **** 
ARM GAS  /var/folders/26/q55yrwgs1ql1lprjdslmzz800000gn/T//ccC08pEc.s 			page 16


 830:Drivers/STM32H7xx_HAL_Driver/Src/stm32h7xx_ll_usb.c **** /**
 831:Drivers/STM32H7xx_HAL_Driver/Src/stm32h7xx_ll_usb.c ****   * @brief  USB_EP0StartXfer : setup and starts a transfer over the EP  0
 832:Drivers/STM32H7xx_HAL_Driver/Src/stm32h7xx_ll_usb.c ****   * @param  USBx  Selected device
 833:Drivers/STM32H7xx_HAL_Driver/Src/stm32h7xx_ll_usb.c ****   * @param  ep pointer to endpoint structure
 834:Drivers/STM32H7xx_HAL_Driver/Src/stm32h7xx_ll_usb.c ****   * @param  dma USB dma enabled or disabled
 835:Drivers/STM32H7xx_HAL_Driver/Src/stm32h7xx_ll_usb.c ****   *          This parameter can be one of these values:
 836:Drivers/STM32H7xx_HAL_Driver/Src/stm32h7xx_ll_usb.c ****   *           0 : DMA feature not used
 837:Drivers/STM32H7xx_HAL_Driver/Src/stm32h7xx_ll_usb.c ****   *           1 : DMA feature used
 838:Drivers/STM32H7xx_HAL_Driver/Src/stm32h7xx_ll_usb.c ****   * @retval HAL status
 839:Drivers/STM32H7xx_HAL_Driver/Src/stm32h7xx_ll_usb.c ****   */
 840:Drivers/STM32H7xx_HAL_Driver/Src/stm32h7xx_ll_usb.c **** HAL_StatusTypeDef USB_EP0StartXfer(USB_OTG_GlobalTypeDef *USBx, USB_OTG_EPTypeDef *ep, uint8_t dma)
 841:Drivers/STM32H7xx_HAL_Driver/Src/stm32h7xx_ll_usb.c **** {
 842:Drivers/STM32H7xx_HAL_Driver/Src/stm32h7xx_ll_usb.c ****   uint32_t USBx_BASE = (uint32_t)USBx;
 843:Drivers/STM32H7xx_HAL_Driver/Src/stm32h7xx_ll_usb.c ****   uint32_t epnum = (uint32_t)ep->num;
 844:Drivers/STM32H7xx_HAL_Driver/Src/stm32h7xx_ll_usb.c **** 
 845:Drivers/STM32H7xx_HAL_Driver/Src/stm32h7xx_ll_usb.c ****   /* IN endpoint */
 846:Drivers/STM32H7xx_HAL_Driver/Src/stm32h7xx_ll_usb.c ****   if (ep->is_in == 1U)
 847:Drivers/STM32H7xx_HAL_Driver/Src/stm32h7xx_ll_usb.c ****   {
 848:Drivers/STM32H7xx_HAL_Driver/Src/stm32h7xx_ll_usb.c ****     /* Zero Length Packet? */
 849:Drivers/STM32H7xx_HAL_Driver/Src/stm32h7xx_ll_usb.c ****     if (ep->xfer_len == 0U)
 850:Drivers/STM32H7xx_HAL_Driver/Src/stm32h7xx_ll_usb.c ****     {
 851:Drivers/STM32H7xx_HAL_Driver/Src/stm32h7xx_ll_usb.c ****       USBx_INEP(epnum)->DIEPTSIZ &= ~(USB_OTG_DIEPTSIZ_PKTCNT);
 852:Drivers/STM32H7xx_HAL_Driver/Src/stm32h7xx_ll_usb.c ****       USBx_INEP(epnum)->DIEPTSIZ |= (USB_OTG_DIEPTSIZ_PKTCNT & (1U << 19));
 853:Drivers/STM32H7xx_HAL_Driver/Src/stm32h7xx_ll_usb.c ****       USBx_INEP(epnum)->DIEPTSIZ &= ~(USB_OTG_DIEPTSIZ_XFRSIZ);
 854:Drivers/STM32H7xx_HAL_Driver/Src/stm32h7xx_ll_usb.c ****     }
 855:Drivers/STM32H7xx_HAL_Driver/Src/stm32h7xx_ll_usb.c ****     else
 856:Drivers/STM32H7xx_HAL_Driver/Src/stm32h7xx_ll_usb.c ****     {
 857:Drivers/STM32H7xx_HAL_Driver/Src/stm32h7xx_ll_usb.c ****       /* Program the transfer size and packet count
 858:Drivers/STM32H7xx_HAL_Driver/Src/stm32h7xx_ll_usb.c ****       * as follows: xfersize = N * maxpacket +
 859:Drivers/STM32H7xx_HAL_Driver/Src/stm32h7xx_ll_usb.c ****       * short_packet pktcnt = N + (short_packet
 860:Drivers/STM32H7xx_HAL_Driver/Src/stm32h7xx_ll_usb.c ****       * exist ? 1 : 0)
 861:Drivers/STM32H7xx_HAL_Driver/Src/stm32h7xx_ll_usb.c ****       */
 862:Drivers/STM32H7xx_HAL_Driver/Src/stm32h7xx_ll_usb.c ****       USBx_INEP(epnum)->DIEPTSIZ &= ~(USB_OTG_DIEPTSIZ_XFRSIZ);
 863:Drivers/STM32H7xx_HAL_Driver/Src/stm32h7xx_ll_usb.c ****       USBx_INEP(epnum)->DIEPTSIZ &= ~(USB_OTG_DIEPTSIZ_PKTCNT);
 864:Drivers/STM32H7xx_HAL_Driver/Src/stm32h7xx_ll_usb.c **** 
 865:Drivers/STM32H7xx_HAL_Driver/Src/stm32h7xx_ll_usb.c ****       if (ep->xfer_len > ep->maxpacket)
 866:Drivers/STM32H7xx_HAL_Driver/Src/stm32h7xx_ll_usb.c ****       {
 867:Drivers/STM32H7xx_HAL_Driver/Src/stm32h7xx_ll_usb.c ****         ep->xfer_len = ep->maxpacket;
 868:Drivers/STM32H7xx_HAL_Driver/Src/stm32h7xx_ll_usb.c ****       }
 869:Drivers/STM32H7xx_HAL_Driver/Src/stm32h7xx_ll_usb.c ****       USBx_INEP(epnum)->DIEPTSIZ |= (USB_OTG_DIEPTSIZ_PKTCNT & (1U << 19));
 870:Drivers/STM32H7xx_HAL_Driver/Src/stm32h7xx_ll_usb.c ****       USBx_INEP(epnum)->DIEPTSIZ |= (USB_OTG_DIEPTSIZ_XFRSIZ & ep->xfer_len);
 871:Drivers/STM32H7xx_HAL_Driver/Src/stm32h7xx_ll_usb.c ****     }
 872:Drivers/STM32H7xx_HAL_Driver/Src/stm32h7xx_ll_usb.c **** 
 873:Drivers/STM32H7xx_HAL_Driver/Src/stm32h7xx_ll_usb.c ****     if (dma == 1U)
 874:Drivers/STM32H7xx_HAL_Driver/Src/stm32h7xx_ll_usb.c ****     {
 875:Drivers/STM32H7xx_HAL_Driver/Src/stm32h7xx_ll_usb.c ****       if ((uint32_t)ep->dma_addr != 0U)
 876:Drivers/STM32H7xx_HAL_Driver/Src/stm32h7xx_ll_usb.c ****       {
 877:Drivers/STM32H7xx_HAL_Driver/Src/stm32h7xx_ll_usb.c ****         USBx_INEP(epnum)->DIEPDMA = (uint32_t)(ep->dma_addr);
 878:Drivers/STM32H7xx_HAL_Driver/Src/stm32h7xx_ll_usb.c ****       }
 879:Drivers/STM32H7xx_HAL_Driver/Src/stm32h7xx_ll_usb.c **** 
 880:Drivers/STM32H7xx_HAL_Driver/Src/stm32h7xx_ll_usb.c ****       /* EP enable, IN data in FIFO */
 881:Drivers/STM32H7xx_HAL_Driver/Src/stm32h7xx_ll_usb.c ****       USBx_INEP(epnum)->DIEPCTL |= (USB_OTG_DIEPCTL_CNAK | USB_OTG_DIEPCTL_EPENA);
 882:Drivers/STM32H7xx_HAL_Driver/Src/stm32h7xx_ll_usb.c ****     }
 883:Drivers/STM32H7xx_HAL_Driver/Src/stm32h7xx_ll_usb.c ****     else
 884:Drivers/STM32H7xx_HAL_Driver/Src/stm32h7xx_ll_usb.c ****     {
 885:Drivers/STM32H7xx_HAL_Driver/Src/stm32h7xx_ll_usb.c ****       /* EP enable, IN data in FIFO */
 886:Drivers/STM32H7xx_HAL_Driver/Src/stm32h7xx_ll_usb.c ****       USBx_INEP(epnum)->DIEPCTL |= (USB_OTG_DIEPCTL_CNAK | USB_OTG_DIEPCTL_EPENA);
ARM GAS  /var/folders/26/q55yrwgs1ql1lprjdslmzz800000gn/T//ccC08pEc.s 			page 17


 887:Drivers/STM32H7xx_HAL_Driver/Src/stm32h7xx_ll_usb.c **** 
 888:Drivers/STM32H7xx_HAL_Driver/Src/stm32h7xx_ll_usb.c ****       /* Enable the Tx FIFO Empty Interrupt for this EP */
 889:Drivers/STM32H7xx_HAL_Driver/Src/stm32h7xx_ll_usb.c ****       if (ep->xfer_len > 0U)
 890:Drivers/STM32H7xx_HAL_Driver/Src/stm32h7xx_ll_usb.c ****       {
 891:Drivers/STM32H7xx_HAL_Driver/Src/stm32h7xx_ll_usb.c ****         USBx_DEVICE->DIEPEMPMSK |= 1UL << (ep->num & EP_ADDR_MSK);
 892:Drivers/STM32H7xx_HAL_Driver/Src/stm32h7xx_ll_usb.c ****       }
 893:Drivers/STM32H7xx_HAL_Driver/Src/stm32h7xx_ll_usb.c ****     }
 894:Drivers/STM32H7xx_HAL_Driver/Src/stm32h7xx_ll_usb.c ****   }
 895:Drivers/STM32H7xx_HAL_Driver/Src/stm32h7xx_ll_usb.c ****   else /* OUT endpoint */
 896:Drivers/STM32H7xx_HAL_Driver/Src/stm32h7xx_ll_usb.c ****   {
 897:Drivers/STM32H7xx_HAL_Driver/Src/stm32h7xx_ll_usb.c ****     /* Program the transfer size and packet count as follows:
 898:Drivers/STM32H7xx_HAL_Driver/Src/stm32h7xx_ll_usb.c ****     * pktcnt = N
 899:Drivers/STM32H7xx_HAL_Driver/Src/stm32h7xx_ll_usb.c ****     * xfersize = N * maxpacket
 900:Drivers/STM32H7xx_HAL_Driver/Src/stm32h7xx_ll_usb.c ****     */
 901:Drivers/STM32H7xx_HAL_Driver/Src/stm32h7xx_ll_usb.c ****     USBx_OUTEP(epnum)->DOEPTSIZ &= ~(USB_OTG_DOEPTSIZ_XFRSIZ);
 902:Drivers/STM32H7xx_HAL_Driver/Src/stm32h7xx_ll_usb.c ****     USBx_OUTEP(epnum)->DOEPTSIZ &= ~(USB_OTG_DOEPTSIZ_PKTCNT);
 903:Drivers/STM32H7xx_HAL_Driver/Src/stm32h7xx_ll_usb.c **** 
 904:Drivers/STM32H7xx_HAL_Driver/Src/stm32h7xx_ll_usb.c ****     if (ep->xfer_len > 0U)
 905:Drivers/STM32H7xx_HAL_Driver/Src/stm32h7xx_ll_usb.c ****     {
 906:Drivers/STM32H7xx_HAL_Driver/Src/stm32h7xx_ll_usb.c ****       ep->xfer_len = ep->maxpacket;
 907:Drivers/STM32H7xx_HAL_Driver/Src/stm32h7xx_ll_usb.c ****     }
 908:Drivers/STM32H7xx_HAL_Driver/Src/stm32h7xx_ll_usb.c **** 
 909:Drivers/STM32H7xx_HAL_Driver/Src/stm32h7xx_ll_usb.c ****     USBx_OUTEP(epnum)->DOEPTSIZ |= (USB_OTG_DOEPTSIZ_PKTCNT & (1U << 19));
 910:Drivers/STM32H7xx_HAL_Driver/Src/stm32h7xx_ll_usb.c ****     USBx_OUTEP(epnum)->DOEPTSIZ |= (USB_OTG_DOEPTSIZ_XFRSIZ & (ep->maxpacket));
 911:Drivers/STM32H7xx_HAL_Driver/Src/stm32h7xx_ll_usb.c **** 
 912:Drivers/STM32H7xx_HAL_Driver/Src/stm32h7xx_ll_usb.c ****     if (dma == 1U)
 913:Drivers/STM32H7xx_HAL_Driver/Src/stm32h7xx_ll_usb.c ****     {
 914:Drivers/STM32H7xx_HAL_Driver/Src/stm32h7xx_ll_usb.c ****       if ((uint32_t)ep->xfer_buff != 0U)
 915:Drivers/STM32H7xx_HAL_Driver/Src/stm32h7xx_ll_usb.c ****       {
 916:Drivers/STM32H7xx_HAL_Driver/Src/stm32h7xx_ll_usb.c ****         USBx_OUTEP(epnum)->DOEPDMA = (uint32_t)(ep->xfer_buff);
 917:Drivers/STM32H7xx_HAL_Driver/Src/stm32h7xx_ll_usb.c ****       }
 918:Drivers/STM32H7xx_HAL_Driver/Src/stm32h7xx_ll_usb.c ****     }
 919:Drivers/STM32H7xx_HAL_Driver/Src/stm32h7xx_ll_usb.c **** 
 920:Drivers/STM32H7xx_HAL_Driver/Src/stm32h7xx_ll_usb.c ****     /* EP enable */
 921:Drivers/STM32H7xx_HAL_Driver/Src/stm32h7xx_ll_usb.c ****     USBx_OUTEP(epnum)->DOEPCTL |= (USB_OTG_DOEPCTL_CNAK | USB_OTG_DOEPCTL_EPENA);
 922:Drivers/STM32H7xx_HAL_Driver/Src/stm32h7xx_ll_usb.c ****   }
 923:Drivers/STM32H7xx_HAL_Driver/Src/stm32h7xx_ll_usb.c **** 
 924:Drivers/STM32H7xx_HAL_Driver/Src/stm32h7xx_ll_usb.c ****   return HAL_OK;
 925:Drivers/STM32H7xx_HAL_Driver/Src/stm32h7xx_ll_usb.c **** }
 926:Drivers/STM32H7xx_HAL_Driver/Src/stm32h7xx_ll_usb.c **** 
 927:Drivers/STM32H7xx_HAL_Driver/Src/stm32h7xx_ll_usb.c **** /**
 928:Drivers/STM32H7xx_HAL_Driver/Src/stm32h7xx_ll_usb.c ****   * @brief  USB_WritePacket : Writes a packet into the Tx FIFO associated
 929:Drivers/STM32H7xx_HAL_Driver/Src/stm32h7xx_ll_usb.c ****   *         with the EP/channel
 930:Drivers/STM32H7xx_HAL_Driver/Src/stm32h7xx_ll_usb.c ****   * @param  USBx  Selected device
 931:Drivers/STM32H7xx_HAL_Driver/Src/stm32h7xx_ll_usb.c ****   * @param  src   pointer to source buffer
 932:Drivers/STM32H7xx_HAL_Driver/Src/stm32h7xx_ll_usb.c ****   * @param  ch_ep_num  endpoint or host channel number
 933:Drivers/STM32H7xx_HAL_Driver/Src/stm32h7xx_ll_usb.c ****   * @param  len  Number of bytes to write
 934:Drivers/STM32H7xx_HAL_Driver/Src/stm32h7xx_ll_usb.c ****   * @param  dma USB dma enabled or disabled
 935:Drivers/STM32H7xx_HAL_Driver/Src/stm32h7xx_ll_usb.c ****   *          This parameter can be one of these values:
 936:Drivers/STM32H7xx_HAL_Driver/Src/stm32h7xx_ll_usb.c ****   *           0 : DMA feature not used
 937:Drivers/STM32H7xx_HAL_Driver/Src/stm32h7xx_ll_usb.c ****   *           1 : DMA feature used
 938:Drivers/STM32H7xx_HAL_Driver/Src/stm32h7xx_ll_usb.c ****   * @retval HAL status
 939:Drivers/STM32H7xx_HAL_Driver/Src/stm32h7xx_ll_usb.c ****   */
 940:Drivers/STM32H7xx_HAL_Driver/Src/stm32h7xx_ll_usb.c **** HAL_StatusTypeDef USB_WritePacket(USB_OTG_GlobalTypeDef *USBx, uint8_t *src,
 941:Drivers/STM32H7xx_HAL_Driver/Src/stm32h7xx_ll_usb.c ****                                   uint8_t ch_ep_num, uint16_t len, uint8_t dma)
 942:Drivers/STM32H7xx_HAL_Driver/Src/stm32h7xx_ll_usb.c **** {
 943:Drivers/STM32H7xx_HAL_Driver/Src/stm32h7xx_ll_usb.c ****   uint32_t USBx_BASE = (uint32_t)USBx;
ARM GAS  /var/folders/26/q55yrwgs1ql1lprjdslmzz800000gn/T//ccC08pEc.s 			page 18


 944:Drivers/STM32H7xx_HAL_Driver/Src/stm32h7xx_ll_usb.c ****   uint8_t *pSrc = src;
 945:Drivers/STM32H7xx_HAL_Driver/Src/stm32h7xx_ll_usb.c ****   uint32_t count32b, i;
 946:Drivers/STM32H7xx_HAL_Driver/Src/stm32h7xx_ll_usb.c **** 
 947:Drivers/STM32H7xx_HAL_Driver/Src/stm32h7xx_ll_usb.c ****   if (dma == 0U)
 948:Drivers/STM32H7xx_HAL_Driver/Src/stm32h7xx_ll_usb.c ****   {
 949:Drivers/STM32H7xx_HAL_Driver/Src/stm32h7xx_ll_usb.c ****     count32b = ((uint32_t)len + 3U) / 4U;
 950:Drivers/STM32H7xx_HAL_Driver/Src/stm32h7xx_ll_usb.c ****     for (i = 0U; i < count32b; i++)
 951:Drivers/STM32H7xx_HAL_Driver/Src/stm32h7xx_ll_usb.c ****     {
 952:Drivers/STM32H7xx_HAL_Driver/Src/stm32h7xx_ll_usb.c ****       USBx_DFIFO((uint32_t)ch_ep_num) = __UNALIGNED_UINT32_READ(pSrc);
 953:Drivers/STM32H7xx_HAL_Driver/Src/stm32h7xx_ll_usb.c ****       pSrc++;
 954:Drivers/STM32H7xx_HAL_Driver/Src/stm32h7xx_ll_usb.c ****       pSrc++;
 955:Drivers/STM32H7xx_HAL_Driver/Src/stm32h7xx_ll_usb.c ****       pSrc++;
 956:Drivers/STM32H7xx_HAL_Driver/Src/stm32h7xx_ll_usb.c ****       pSrc++;
 957:Drivers/STM32H7xx_HAL_Driver/Src/stm32h7xx_ll_usb.c ****     }
 958:Drivers/STM32H7xx_HAL_Driver/Src/stm32h7xx_ll_usb.c ****   }
 959:Drivers/STM32H7xx_HAL_Driver/Src/stm32h7xx_ll_usb.c **** 
 960:Drivers/STM32H7xx_HAL_Driver/Src/stm32h7xx_ll_usb.c ****   return HAL_OK;
 961:Drivers/STM32H7xx_HAL_Driver/Src/stm32h7xx_ll_usb.c **** }
 962:Drivers/STM32H7xx_HAL_Driver/Src/stm32h7xx_ll_usb.c **** 
 963:Drivers/STM32H7xx_HAL_Driver/Src/stm32h7xx_ll_usb.c **** /**
 964:Drivers/STM32H7xx_HAL_Driver/Src/stm32h7xx_ll_usb.c ****   * @brief  USB_ReadPacket : read a packet from the RX FIFO
 965:Drivers/STM32H7xx_HAL_Driver/Src/stm32h7xx_ll_usb.c ****   * @param  USBx  Selected device
 966:Drivers/STM32H7xx_HAL_Driver/Src/stm32h7xx_ll_usb.c ****   * @param  dest  source pointer
 967:Drivers/STM32H7xx_HAL_Driver/Src/stm32h7xx_ll_usb.c ****   * @param  len  Number of bytes to read
 968:Drivers/STM32H7xx_HAL_Driver/Src/stm32h7xx_ll_usb.c ****   * @retval pointer to destination buffer
 969:Drivers/STM32H7xx_HAL_Driver/Src/stm32h7xx_ll_usb.c ****   */
 970:Drivers/STM32H7xx_HAL_Driver/Src/stm32h7xx_ll_usb.c **** void *USB_ReadPacket(USB_OTG_GlobalTypeDef *USBx, uint8_t *dest, uint16_t len)
 971:Drivers/STM32H7xx_HAL_Driver/Src/stm32h7xx_ll_usb.c **** {
 972:Drivers/STM32H7xx_HAL_Driver/Src/stm32h7xx_ll_usb.c ****   uint32_t USBx_BASE = (uint32_t)USBx;
 973:Drivers/STM32H7xx_HAL_Driver/Src/stm32h7xx_ll_usb.c ****   uint8_t *pDest = dest;
 974:Drivers/STM32H7xx_HAL_Driver/Src/stm32h7xx_ll_usb.c ****   uint32_t pData;
 975:Drivers/STM32H7xx_HAL_Driver/Src/stm32h7xx_ll_usb.c ****   uint32_t i;
 976:Drivers/STM32H7xx_HAL_Driver/Src/stm32h7xx_ll_usb.c ****   uint32_t count32b = (uint32_t)len >> 2U;
 977:Drivers/STM32H7xx_HAL_Driver/Src/stm32h7xx_ll_usb.c ****   uint16_t remaining_bytes = len % 4U;
 978:Drivers/STM32H7xx_HAL_Driver/Src/stm32h7xx_ll_usb.c **** 
 979:Drivers/STM32H7xx_HAL_Driver/Src/stm32h7xx_ll_usb.c ****   for (i = 0U; i < count32b; i++)
 980:Drivers/STM32H7xx_HAL_Driver/Src/stm32h7xx_ll_usb.c ****   {
 981:Drivers/STM32H7xx_HAL_Driver/Src/stm32h7xx_ll_usb.c ****     __UNALIGNED_UINT32_WRITE(pDest, USBx_DFIFO(0U));
 982:Drivers/STM32H7xx_HAL_Driver/Src/stm32h7xx_ll_usb.c ****     pDest++;
 983:Drivers/STM32H7xx_HAL_Driver/Src/stm32h7xx_ll_usb.c ****     pDest++;
 984:Drivers/STM32H7xx_HAL_Driver/Src/stm32h7xx_ll_usb.c ****     pDest++;
 985:Drivers/STM32H7xx_HAL_Driver/Src/stm32h7xx_ll_usb.c ****     pDest++;
 986:Drivers/STM32H7xx_HAL_Driver/Src/stm32h7xx_ll_usb.c ****   }
 987:Drivers/STM32H7xx_HAL_Driver/Src/stm32h7xx_ll_usb.c **** 
 988:Drivers/STM32H7xx_HAL_Driver/Src/stm32h7xx_ll_usb.c ****   /* When Number of data is not word aligned, read the remaining byte */
 989:Drivers/STM32H7xx_HAL_Driver/Src/stm32h7xx_ll_usb.c ****   if (remaining_bytes != 0U)
 990:Drivers/STM32H7xx_HAL_Driver/Src/stm32h7xx_ll_usb.c ****   {
 991:Drivers/STM32H7xx_HAL_Driver/Src/stm32h7xx_ll_usb.c ****     i = 0U;
 992:Drivers/STM32H7xx_HAL_Driver/Src/stm32h7xx_ll_usb.c ****     __UNALIGNED_UINT32_WRITE(&pData, USBx_DFIFO(0U));
 993:Drivers/STM32H7xx_HAL_Driver/Src/stm32h7xx_ll_usb.c **** 	
 994:Drivers/STM32H7xx_HAL_Driver/Src/stm32h7xx_ll_usb.c ****     do
 995:Drivers/STM32H7xx_HAL_Driver/Src/stm32h7xx_ll_usb.c ****     {
 996:Drivers/STM32H7xx_HAL_Driver/Src/stm32h7xx_ll_usb.c ****       *(uint8_t *)pDest = (uint8_t)(pData >> (8U * (uint8_t)(i)));
 997:Drivers/STM32H7xx_HAL_Driver/Src/stm32h7xx_ll_usb.c ****       i++;
 998:Drivers/STM32H7xx_HAL_Driver/Src/stm32h7xx_ll_usb.c ****       pDest++;
 999:Drivers/STM32H7xx_HAL_Driver/Src/stm32h7xx_ll_usb.c ****       remaining_bytes--;
1000:Drivers/STM32H7xx_HAL_Driver/Src/stm32h7xx_ll_usb.c ****     } while (remaining_bytes != 0U);
ARM GAS  /var/folders/26/q55yrwgs1ql1lprjdslmzz800000gn/T//ccC08pEc.s 			page 19


1001:Drivers/STM32H7xx_HAL_Driver/Src/stm32h7xx_ll_usb.c ****   }
1002:Drivers/STM32H7xx_HAL_Driver/Src/stm32h7xx_ll_usb.c **** 
1003:Drivers/STM32H7xx_HAL_Driver/Src/stm32h7xx_ll_usb.c ****   return ((void *)pDest);
1004:Drivers/STM32H7xx_HAL_Driver/Src/stm32h7xx_ll_usb.c **** }
1005:Drivers/STM32H7xx_HAL_Driver/Src/stm32h7xx_ll_usb.c **** 
1006:Drivers/STM32H7xx_HAL_Driver/Src/stm32h7xx_ll_usb.c **** /**
1007:Drivers/STM32H7xx_HAL_Driver/Src/stm32h7xx_ll_usb.c ****   * @brief  USB_EPSetStall : set a stall condition over an EP
1008:Drivers/STM32H7xx_HAL_Driver/Src/stm32h7xx_ll_usb.c ****   * @param  USBx  Selected device
1009:Drivers/STM32H7xx_HAL_Driver/Src/stm32h7xx_ll_usb.c ****   * @param  ep pointer to endpoint structure
1010:Drivers/STM32H7xx_HAL_Driver/Src/stm32h7xx_ll_usb.c ****   * @retval HAL status
1011:Drivers/STM32H7xx_HAL_Driver/Src/stm32h7xx_ll_usb.c ****   */
1012:Drivers/STM32H7xx_HAL_Driver/Src/stm32h7xx_ll_usb.c **** HAL_StatusTypeDef USB_EPSetStall(USB_OTG_GlobalTypeDef *USBx, USB_OTG_EPTypeDef *ep)
1013:Drivers/STM32H7xx_HAL_Driver/Src/stm32h7xx_ll_usb.c **** {
1014:Drivers/STM32H7xx_HAL_Driver/Src/stm32h7xx_ll_usb.c ****   uint32_t USBx_BASE = (uint32_t)USBx;
1015:Drivers/STM32H7xx_HAL_Driver/Src/stm32h7xx_ll_usb.c ****   uint32_t epnum = (uint32_t)ep->num;
1016:Drivers/STM32H7xx_HAL_Driver/Src/stm32h7xx_ll_usb.c **** 
1017:Drivers/STM32H7xx_HAL_Driver/Src/stm32h7xx_ll_usb.c ****   if (ep->is_in == 1U)
1018:Drivers/STM32H7xx_HAL_Driver/Src/stm32h7xx_ll_usb.c ****   {
1019:Drivers/STM32H7xx_HAL_Driver/Src/stm32h7xx_ll_usb.c ****     if (((USBx_INEP(epnum)->DIEPCTL & USB_OTG_DIEPCTL_EPENA) == 0U) && (epnum != 0U))
1020:Drivers/STM32H7xx_HAL_Driver/Src/stm32h7xx_ll_usb.c ****     {
1021:Drivers/STM32H7xx_HAL_Driver/Src/stm32h7xx_ll_usb.c ****       USBx_INEP(epnum)->DIEPCTL &= ~(USB_OTG_DIEPCTL_EPDIS);
1022:Drivers/STM32H7xx_HAL_Driver/Src/stm32h7xx_ll_usb.c ****     }
1023:Drivers/STM32H7xx_HAL_Driver/Src/stm32h7xx_ll_usb.c ****     USBx_INEP(epnum)->DIEPCTL |= USB_OTG_DIEPCTL_STALL;
1024:Drivers/STM32H7xx_HAL_Driver/Src/stm32h7xx_ll_usb.c ****   }
1025:Drivers/STM32H7xx_HAL_Driver/Src/stm32h7xx_ll_usb.c ****   else
1026:Drivers/STM32H7xx_HAL_Driver/Src/stm32h7xx_ll_usb.c ****   {
1027:Drivers/STM32H7xx_HAL_Driver/Src/stm32h7xx_ll_usb.c ****     if (((USBx_OUTEP(epnum)->DOEPCTL & USB_OTG_DOEPCTL_EPENA) == 0U) && (epnum != 0U))
1028:Drivers/STM32H7xx_HAL_Driver/Src/stm32h7xx_ll_usb.c ****     {
1029:Drivers/STM32H7xx_HAL_Driver/Src/stm32h7xx_ll_usb.c ****       USBx_OUTEP(epnum)->DOEPCTL &= ~(USB_OTG_DOEPCTL_EPDIS);
1030:Drivers/STM32H7xx_HAL_Driver/Src/stm32h7xx_ll_usb.c ****     }
1031:Drivers/STM32H7xx_HAL_Driver/Src/stm32h7xx_ll_usb.c ****     USBx_OUTEP(epnum)->DOEPCTL |= USB_OTG_DOEPCTL_STALL;
1032:Drivers/STM32H7xx_HAL_Driver/Src/stm32h7xx_ll_usb.c ****   }
1033:Drivers/STM32H7xx_HAL_Driver/Src/stm32h7xx_ll_usb.c **** 
1034:Drivers/STM32H7xx_HAL_Driver/Src/stm32h7xx_ll_usb.c ****   return HAL_OK;
1035:Drivers/STM32H7xx_HAL_Driver/Src/stm32h7xx_ll_usb.c **** }
1036:Drivers/STM32H7xx_HAL_Driver/Src/stm32h7xx_ll_usb.c **** 
1037:Drivers/STM32H7xx_HAL_Driver/Src/stm32h7xx_ll_usb.c **** /**
1038:Drivers/STM32H7xx_HAL_Driver/Src/stm32h7xx_ll_usb.c ****   * @brief  USB_EPClearStall : Clear a stall condition over an EP
1039:Drivers/STM32H7xx_HAL_Driver/Src/stm32h7xx_ll_usb.c ****   * @param  USBx  Selected device
1040:Drivers/STM32H7xx_HAL_Driver/Src/stm32h7xx_ll_usb.c ****   * @param  ep pointer to endpoint structure
1041:Drivers/STM32H7xx_HAL_Driver/Src/stm32h7xx_ll_usb.c ****   * @retval HAL status
1042:Drivers/STM32H7xx_HAL_Driver/Src/stm32h7xx_ll_usb.c ****   */
1043:Drivers/STM32H7xx_HAL_Driver/Src/stm32h7xx_ll_usb.c **** HAL_StatusTypeDef USB_EPClearStall(USB_OTG_GlobalTypeDef *USBx, USB_OTG_EPTypeDef *ep)
1044:Drivers/STM32H7xx_HAL_Driver/Src/stm32h7xx_ll_usb.c **** {
1045:Drivers/STM32H7xx_HAL_Driver/Src/stm32h7xx_ll_usb.c ****   uint32_t USBx_BASE = (uint32_t)USBx;
1046:Drivers/STM32H7xx_HAL_Driver/Src/stm32h7xx_ll_usb.c ****   uint32_t epnum = (uint32_t)ep->num;
1047:Drivers/STM32H7xx_HAL_Driver/Src/stm32h7xx_ll_usb.c **** 
1048:Drivers/STM32H7xx_HAL_Driver/Src/stm32h7xx_ll_usb.c ****   if (ep->is_in == 1U)
1049:Drivers/STM32H7xx_HAL_Driver/Src/stm32h7xx_ll_usb.c ****   {
1050:Drivers/STM32H7xx_HAL_Driver/Src/stm32h7xx_ll_usb.c ****     USBx_INEP(epnum)->DIEPCTL &= ~USB_OTG_DIEPCTL_STALL;
1051:Drivers/STM32H7xx_HAL_Driver/Src/stm32h7xx_ll_usb.c ****     if ((ep->type == EP_TYPE_INTR) || (ep->type == EP_TYPE_BULK))
1052:Drivers/STM32H7xx_HAL_Driver/Src/stm32h7xx_ll_usb.c ****     {
1053:Drivers/STM32H7xx_HAL_Driver/Src/stm32h7xx_ll_usb.c ****       USBx_INEP(epnum)->DIEPCTL |= USB_OTG_DIEPCTL_SD0PID_SEVNFRM; /* DATA0 */
1054:Drivers/STM32H7xx_HAL_Driver/Src/stm32h7xx_ll_usb.c ****     }
1055:Drivers/STM32H7xx_HAL_Driver/Src/stm32h7xx_ll_usb.c ****   }
1056:Drivers/STM32H7xx_HAL_Driver/Src/stm32h7xx_ll_usb.c ****   else
1057:Drivers/STM32H7xx_HAL_Driver/Src/stm32h7xx_ll_usb.c ****   {
ARM GAS  /var/folders/26/q55yrwgs1ql1lprjdslmzz800000gn/T//ccC08pEc.s 			page 20


1058:Drivers/STM32H7xx_HAL_Driver/Src/stm32h7xx_ll_usb.c ****     USBx_OUTEP(epnum)->DOEPCTL &= ~USB_OTG_DOEPCTL_STALL;
1059:Drivers/STM32H7xx_HAL_Driver/Src/stm32h7xx_ll_usb.c ****     if ((ep->type == EP_TYPE_INTR) || (ep->type == EP_TYPE_BULK))
1060:Drivers/STM32H7xx_HAL_Driver/Src/stm32h7xx_ll_usb.c ****     {
1061:Drivers/STM32H7xx_HAL_Driver/Src/stm32h7xx_ll_usb.c ****       USBx_OUTEP(epnum)->DOEPCTL |= USB_OTG_DOEPCTL_SD0PID_SEVNFRM; /* DATA0 */
1062:Drivers/STM32H7xx_HAL_Driver/Src/stm32h7xx_ll_usb.c ****     }
1063:Drivers/STM32H7xx_HAL_Driver/Src/stm32h7xx_ll_usb.c ****   }
1064:Drivers/STM32H7xx_HAL_Driver/Src/stm32h7xx_ll_usb.c ****   return HAL_OK;
1065:Drivers/STM32H7xx_HAL_Driver/Src/stm32h7xx_ll_usb.c **** }
1066:Drivers/STM32H7xx_HAL_Driver/Src/stm32h7xx_ll_usb.c **** 
1067:Drivers/STM32H7xx_HAL_Driver/Src/stm32h7xx_ll_usb.c **** /**
1068:Drivers/STM32H7xx_HAL_Driver/Src/stm32h7xx_ll_usb.c ****   * @brief  USB_StopDevice : Stop the usb device mode
1069:Drivers/STM32H7xx_HAL_Driver/Src/stm32h7xx_ll_usb.c ****   * @param  USBx  Selected device
1070:Drivers/STM32H7xx_HAL_Driver/Src/stm32h7xx_ll_usb.c ****   * @retval HAL status
1071:Drivers/STM32H7xx_HAL_Driver/Src/stm32h7xx_ll_usb.c ****   */
1072:Drivers/STM32H7xx_HAL_Driver/Src/stm32h7xx_ll_usb.c **** HAL_StatusTypeDef USB_StopDevice(USB_OTG_GlobalTypeDef *USBx)
1073:Drivers/STM32H7xx_HAL_Driver/Src/stm32h7xx_ll_usb.c **** {
1074:Drivers/STM32H7xx_HAL_Driver/Src/stm32h7xx_ll_usb.c ****   HAL_StatusTypeDef ret;
1075:Drivers/STM32H7xx_HAL_Driver/Src/stm32h7xx_ll_usb.c ****   uint32_t USBx_BASE = (uint32_t)USBx;
1076:Drivers/STM32H7xx_HAL_Driver/Src/stm32h7xx_ll_usb.c ****   uint32_t i;
1077:Drivers/STM32H7xx_HAL_Driver/Src/stm32h7xx_ll_usb.c **** 
1078:Drivers/STM32H7xx_HAL_Driver/Src/stm32h7xx_ll_usb.c ****   /* Clear Pending interrupt */
1079:Drivers/STM32H7xx_HAL_Driver/Src/stm32h7xx_ll_usb.c ****   for (i = 0U; i < 15U; i++)
1080:Drivers/STM32H7xx_HAL_Driver/Src/stm32h7xx_ll_usb.c ****   {
1081:Drivers/STM32H7xx_HAL_Driver/Src/stm32h7xx_ll_usb.c ****     USBx_INEP(i)->DIEPINT = 0xFB7FU;
1082:Drivers/STM32H7xx_HAL_Driver/Src/stm32h7xx_ll_usb.c ****     USBx_OUTEP(i)->DOEPINT = 0xFB7FU;
1083:Drivers/STM32H7xx_HAL_Driver/Src/stm32h7xx_ll_usb.c ****   }
1084:Drivers/STM32H7xx_HAL_Driver/Src/stm32h7xx_ll_usb.c **** 
1085:Drivers/STM32H7xx_HAL_Driver/Src/stm32h7xx_ll_usb.c ****   /* Clear interrupt masks */
1086:Drivers/STM32H7xx_HAL_Driver/Src/stm32h7xx_ll_usb.c ****   USBx_DEVICE->DIEPMSK  = 0U;
1087:Drivers/STM32H7xx_HAL_Driver/Src/stm32h7xx_ll_usb.c ****   USBx_DEVICE->DOEPMSK  = 0U;
1088:Drivers/STM32H7xx_HAL_Driver/Src/stm32h7xx_ll_usb.c ****   USBx_DEVICE->DAINTMSK = 0U;
1089:Drivers/STM32H7xx_HAL_Driver/Src/stm32h7xx_ll_usb.c **** 
1090:Drivers/STM32H7xx_HAL_Driver/Src/stm32h7xx_ll_usb.c ****   /* Flush the FIFO */
1091:Drivers/STM32H7xx_HAL_Driver/Src/stm32h7xx_ll_usb.c ****   ret = USB_FlushRxFifo(USBx);
1092:Drivers/STM32H7xx_HAL_Driver/Src/stm32h7xx_ll_usb.c ****   if (ret != HAL_OK)
1093:Drivers/STM32H7xx_HAL_Driver/Src/stm32h7xx_ll_usb.c ****   {
1094:Drivers/STM32H7xx_HAL_Driver/Src/stm32h7xx_ll_usb.c ****     return ret;
1095:Drivers/STM32H7xx_HAL_Driver/Src/stm32h7xx_ll_usb.c ****   }
1096:Drivers/STM32H7xx_HAL_Driver/Src/stm32h7xx_ll_usb.c **** 
1097:Drivers/STM32H7xx_HAL_Driver/Src/stm32h7xx_ll_usb.c ****   ret = USB_FlushTxFifo(USBx,  0x10U);
1098:Drivers/STM32H7xx_HAL_Driver/Src/stm32h7xx_ll_usb.c ****   if (ret != HAL_OK)
1099:Drivers/STM32H7xx_HAL_Driver/Src/stm32h7xx_ll_usb.c ****   {
1100:Drivers/STM32H7xx_HAL_Driver/Src/stm32h7xx_ll_usb.c ****     return ret;
1101:Drivers/STM32H7xx_HAL_Driver/Src/stm32h7xx_ll_usb.c ****   }
1102:Drivers/STM32H7xx_HAL_Driver/Src/stm32h7xx_ll_usb.c **** 
1103:Drivers/STM32H7xx_HAL_Driver/Src/stm32h7xx_ll_usb.c ****   return ret;
1104:Drivers/STM32H7xx_HAL_Driver/Src/stm32h7xx_ll_usb.c **** }
1105:Drivers/STM32H7xx_HAL_Driver/Src/stm32h7xx_ll_usb.c **** 
1106:Drivers/STM32H7xx_HAL_Driver/Src/stm32h7xx_ll_usb.c **** /**
1107:Drivers/STM32H7xx_HAL_Driver/Src/stm32h7xx_ll_usb.c ****   * @brief  USB_SetDevAddress : Stop the usb device mode
1108:Drivers/STM32H7xx_HAL_Driver/Src/stm32h7xx_ll_usb.c ****   * @param  USBx  Selected device
1109:Drivers/STM32H7xx_HAL_Driver/Src/stm32h7xx_ll_usb.c ****   * @param  address  new device address to be assigned
1110:Drivers/STM32H7xx_HAL_Driver/Src/stm32h7xx_ll_usb.c ****   *          This parameter can be a value from 0 to 255
1111:Drivers/STM32H7xx_HAL_Driver/Src/stm32h7xx_ll_usb.c ****   * @retval HAL status
1112:Drivers/STM32H7xx_HAL_Driver/Src/stm32h7xx_ll_usb.c ****   */
1113:Drivers/STM32H7xx_HAL_Driver/Src/stm32h7xx_ll_usb.c **** HAL_StatusTypeDef  USB_SetDevAddress(USB_OTG_GlobalTypeDef *USBx, uint8_t address)
1114:Drivers/STM32H7xx_HAL_Driver/Src/stm32h7xx_ll_usb.c **** {
ARM GAS  /var/folders/26/q55yrwgs1ql1lprjdslmzz800000gn/T//ccC08pEc.s 			page 21


1115:Drivers/STM32H7xx_HAL_Driver/Src/stm32h7xx_ll_usb.c ****   uint32_t USBx_BASE = (uint32_t)USBx;
1116:Drivers/STM32H7xx_HAL_Driver/Src/stm32h7xx_ll_usb.c **** 
1117:Drivers/STM32H7xx_HAL_Driver/Src/stm32h7xx_ll_usb.c ****   USBx_DEVICE->DCFG &= ~(USB_OTG_DCFG_DAD);
1118:Drivers/STM32H7xx_HAL_Driver/Src/stm32h7xx_ll_usb.c ****   USBx_DEVICE->DCFG |= ((uint32_t)address << 4) & USB_OTG_DCFG_DAD;
1119:Drivers/STM32H7xx_HAL_Driver/Src/stm32h7xx_ll_usb.c **** 
1120:Drivers/STM32H7xx_HAL_Driver/Src/stm32h7xx_ll_usb.c ****   return HAL_OK;
1121:Drivers/STM32H7xx_HAL_Driver/Src/stm32h7xx_ll_usb.c **** }
1122:Drivers/STM32H7xx_HAL_Driver/Src/stm32h7xx_ll_usb.c **** 
1123:Drivers/STM32H7xx_HAL_Driver/Src/stm32h7xx_ll_usb.c **** /**
1124:Drivers/STM32H7xx_HAL_Driver/Src/stm32h7xx_ll_usb.c ****   * @brief  USB_DevConnect : Connect the USB device by enabling Rpu
1125:Drivers/STM32H7xx_HAL_Driver/Src/stm32h7xx_ll_usb.c ****   * @param  USBx  Selected device
1126:Drivers/STM32H7xx_HAL_Driver/Src/stm32h7xx_ll_usb.c ****   * @retval HAL status
1127:Drivers/STM32H7xx_HAL_Driver/Src/stm32h7xx_ll_usb.c ****   */
1128:Drivers/STM32H7xx_HAL_Driver/Src/stm32h7xx_ll_usb.c **** HAL_StatusTypeDef  USB_DevConnect(USB_OTG_GlobalTypeDef *USBx)
1129:Drivers/STM32H7xx_HAL_Driver/Src/stm32h7xx_ll_usb.c **** {
1130:Drivers/STM32H7xx_HAL_Driver/Src/stm32h7xx_ll_usb.c ****   uint32_t USBx_BASE = (uint32_t)USBx;
1131:Drivers/STM32H7xx_HAL_Driver/Src/stm32h7xx_ll_usb.c **** 
1132:Drivers/STM32H7xx_HAL_Driver/Src/stm32h7xx_ll_usb.c ****   /* In case phy is stopped, ensure to ungate and restore the phy CLK */
1133:Drivers/STM32H7xx_HAL_Driver/Src/stm32h7xx_ll_usb.c ****   USBx_PCGCCTL &= ~(USB_OTG_PCGCCTL_STOPCLK | USB_OTG_PCGCCTL_GATECLK);
1134:Drivers/STM32H7xx_HAL_Driver/Src/stm32h7xx_ll_usb.c **** 
1135:Drivers/STM32H7xx_HAL_Driver/Src/stm32h7xx_ll_usb.c ****   USBx_DEVICE->DCTL &= ~USB_OTG_DCTL_SDIS;
1136:Drivers/STM32H7xx_HAL_Driver/Src/stm32h7xx_ll_usb.c **** 
1137:Drivers/STM32H7xx_HAL_Driver/Src/stm32h7xx_ll_usb.c ****   return HAL_OK;
1138:Drivers/STM32H7xx_HAL_Driver/Src/stm32h7xx_ll_usb.c **** }
1139:Drivers/STM32H7xx_HAL_Driver/Src/stm32h7xx_ll_usb.c **** 
1140:Drivers/STM32H7xx_HAL_Driver/Src/stm32h7xx_ll_usb.c **** /**
1141:Drivers/STM32H7xx_HAL_Driver/Src/stm32h7xx_ll_usb.c ****   * @brief  USB_DevDisconnect : Disconnect the USB device by disabling Rpu
1142:Drivers/STM32H7xx_HAL_Driver/Src/stm32h7xx_ll_usb.c ****   * @param  USBx  Selected device
1143:Drivers/STM32H7xx_HAL_Driver/Src/stm32h7xx_ll_usb.c ****   * @retval HAL status
1144:Drivers/STM32H7xx_HAL_Driver/Src/stm32h7xx_ll_usb.c ****   */
1145:Drivers/STM32H7xx_HAL_Driver/Src/stm32h7xx_ll_usb.c **** HAL_StatusTypeDef  USB_DevDisconnect(USB_OTG_GlobalTypeDef *USBx)
1146:Drivers/STM32H7xx_HAL_Driver/Src/stm32h7xx_ll_usb.c **** {
1147:Drivers/STM32H7xx_HAL_Driver/Src/stm32h7xx_ll_usb.c ****   uint32_t USBx_BASE = (uint32_t)USBx;
1148:Drivers/STM32H7xx_HAL_Driver/Src/stm32h7xx_ll_usb.c **** 
1149:Drivers/STM32H7xx_HAL_Driver/Src/stm32h7xx_ll_usb.c ****   /* In case phy is stopped, ensure to ungate and restore the phy CLK */
1150:Drivers/STM32H7xx_HAL_Driver/Src/stm32h7xx_ll_usb.c ****   USBx_PCGCCTL &= ~(USB_OTG_PCGCCTL_STOPCLK | USB_OTG_PCGCCTL_GATECLK);
1151:Drivers/STM32H7xx_HAL_Driver/Src/stm32h7xx_ll_usb.c **** 
1152:Drivers/STM32H7xx_HAL_Driver/Src/stm32h7xx_ll_usb.c ****   USBx_DEVICE->DCTL |= USB_OTG_DCTL_SDIS;
1153:Drivers/STM32H7xx_HAL_Driver/Src/stm32h7xx_ll_usb.c **** 
1154:Drivers/STM32H7xx_HAL_Driver/Src/stm32h7xx_ll_usb.c ****   return HAL_OK;
1155:Drivers/STM32H7xx_HAL_Driver/Src/stm32h7xx_ll_usb.c **** }
1156:Drivers/STM32H7xx_HAL_Driver/Src/stm32h7xx_ll_usb.c **** 
1157:Drivers/STM32H7xx_HAL_Driver/Src/stm32h7xx_ll_usb.c **** /**
1158:Drivers/STM32H7xx_HAL_Driver/Src/stm32h7xx_ll_usb.c ****   * @brief  USB_ReadInterrupts: return the global USB interrupt status
1159:Drivers/STM32H7xx_HAL_Driver/Src/stm32h7xx_ll_usb.c ****   * @param  USBx  Selected device
1160:Drivers/STM32H7xx_HAL_Driver/Src/stm32h7xx_ll_usb.c ****   * @retval HAL status
1161:Drivers/STM32H7xx_HAL_Driver/Src/stm32h7xx_ll_usb.c ****   */
1162:Drivers/STM32H7xx_HAL_Driver/Src/stm32h7xx_ll_usb.c **** uint32_t  USB_ReadInterrupts(USB_OTG_GlobalTypeDef *USBx)
1163:Drivers/STM32H7xx_HAL_Driver/Src/stm32h7xx_ll_usb.c **** {
1164:Drivers/STM32H7xx_HAL_Driver/Src/stm32h7xx_ll_usb.c ****   uint32_t tmpreg;
1165:Drivers/STM32H7xx_HAL_Driver/Src/stm32h7xx_ll_usb.c **** 
1166:Drivers/STM32H7xx_HAL_Driver/Src/stm32h7xx_ll_usb.c ****   tmpreg = USBx->GINTSTS;
1167:Drivers/STM32H7xx_HAL_Driver/Src/stm32h7xx_ll_usb.c ****   tmpreg &= USBx->GINTMSK;
1168:Drivers/STM32H7xx_HAL_Driver/Src/stm32h7xx_ll_usb.c **** 
1169:Drivers/STM32H7xx_HAL_Driver/Src/stm32h7xx_ll_usb.c ****   return tmpreg;
1170:Drivers/STM32H7xx_HAL_Driver/Src/stm32h7xx_ll_usb.c **** }
1171:Drivers/STM32H7xx_HAL_Driver/Src/stm32h7xx_ll_usb.c **** 
ARM GAS  /var/folders/26/q55yrwgs1ql1lprjdslmzz800000gn/T//ccC08pEc.s 			page 22


1172:Drivers/STM32H7xx_HAL_Driver/Src/stm32h7xx_ll_usb.c **** /**
1173:Drivers/STM32H7xx_HAL_Driver/Src/stm32h7xx_ll_usb.c ****   * @brief  USB_ReadDevAllOutEpInterrupt: return the USB device OUT endpoints interrupt status
1174:Drivers/STM32H7xx_HAL_Driver/Src/stm32h7xx_ll_usb.c ****   * @param  USBx  Selected device
1175:Drivers/STM32H7xx_HAL_Driver/Src/stm32h7xx_ll_usb.c ****   * @retval HAL status
1176:Drivers/STM32H7xx_HAL_Driver/Src/stm32h7xx_ll_usb.c ****   */
1177:Drivers/STM32H7xx_HAL_Driver/Src/stm32h7xx_ll_usb.c **** uint32_t USB_ReadDevAllOutEpInterrupt(USB_OTG_GlobalTypeDef *USBx)
1178:Drivers/STM32H7xx_HAL_Driver/Src/stm32h7xx_ll_usb.c **** {
1179:Drivers/STM32H7xx_HAL_Driver/Src/stm32h7xx_ll_usb.c ****   uint32_t USBx_BASE = (uint32_t)USBx;
1180:Drivers/STM32H7xx_HAL_Driver/Src/stm32h7xx_ll_usb.c ****   uint32_t tmpreg;
1181:Drivers/STM32H7xx_HAL_Driver/Src/stm32h7xx_ll_usb.c **** 
1182:Drivers/STM32H7xx_HAL_Driver/Src/stm32h7xx_ll_usb.c ****   tmpreg  = USBx_DEVICE->DAINT;
1183:Drivers/STM32H7xx_HAL_Driver/Src/stm32h7xx_ll_usb.c ****   tmpreg &= USBx_DEVICE->DAINTMSK;
1184:Drivers/STM32H7xx_HAL_Driver/Src/stm32h7xx_ll_usb.c **** 
1185:Drivers/STM32H7xx_HAL_Driver/Src/stm32h7xx_ll_usb.c ****   return ((tmpreg & 0xffff0000U) >> 16);
1186:Drivers/STM32H7xx_HAL_Driver/Src/stm32h7xx_ll_usb.c **** }
1187:Drivers/STM32H7xx_HAL_Driver/Src/stm32h7xx_ll_usb.c **** 
1188:Drivers/STM32H7xx_HAL_Driver/Src/stm32h7xx_ll_usb.c **** /**
1189:Drivers/STM32H7xx_HAL_Driver/Src/stm32h7xx_ll_usb.c ****   * @brief  USB_ReadDevAllInEpInterrupt: return the USB device IN endpoints interrupt status
1190:Drivers/STM32H7xx_HAL_Driver/Src/stm32h7xx_ll_usb.c ****   * @param  USBx  Selected device
1191:Drivers/STM32H7xx_HAL_Driver/Src/stm32h7xx_ll_usb.c ****   * @retval HAL status
1192:Drivers/STM32H7xx_HAL_Driver/Src/stm32h7xx_ll_usb.c ****   */
1193:Drivers/STM32H7xx_HAL_Driver/Src/stm32h7xx_ll_usb.c **** uint32_t USB_ReadDevAllInEpInterrupt(USB_OTG_GlobalTypeDef *USBx)
1194:Drivers/STM32H7xx_HAL_Driver/Src/stm32h7xx_ll_usb.c **** {
1195:Drivers/STM32H7xx_HAL_Driver/Src/stm32h7xx_ll_usb.c ****   uint32_t USBx_BASE = (uint32_t)USBx;
1196:Drivers/STM32H7xx_HAL_Driver/Src/stm32h7xx_ll_usb.c ****   uint32_t tmpreg;
1197:Drivers/STM32H7xx_HAL_Driver/Src/stm32h7xx_ll_usb.c **** 
1198:Drivers/STM32H7xx_HAL_Driver/Src/stm32h7xx_ll_usb.c ****   tmpreg  = USBx_DEVICE->DAINT;
1199:Drivers/STM32H7xx_HAL_Driver/Src/stm32h7xx_ll_usb.c ****   tmpreg &= USBx_DEVICE->DAINTMSK;
1200:Drivers/STM32H7xx_HAL_Driver/Src/stm32h7xx_ll_usb.c **** 
1201:Drivers/STM32H7xx_HAL_Driver/Src/stm32h7xx_ll_usb.c ****   return ((tmpreg & 0xFFFFU));
1202:Drivers/STM32H7xx_HAL_Driver/Src/stm32h7xx_ll_usb.c **** }
1203:Drivers/STM32H7xx_HAL_Driver/Src/stm32h7xx_ll_usb.c **** 
1204:Drivers/STM32H7xx_HAL_Driver/Src/stm32h7xx_ll_usb.c **** /**
1205:Drivers/STM32H7xx_HAL_Driver/Src/stm32h7xx_ll_usb.c ****   * @brief  Returns Device OUT EP Interrupt register
1206:Drivers/STM32H7xx_HAL_Driver/Src/stm32h7xx_ll_usb.c ****   * @param  USBx  Selected device
1207:Drivers/STM32H7xx_HAL_Driver/Src/stm32h7xx_ll_usb.c ****   * @param  epnum  endpoint number
1208:Drivers/STM32H7xx_HAL_Driver/Src/stm32h7xx_ll_usb.c ****   *          This parameter can be a value from 0 to 15
1209:Drivers/STM32H7xx_HAL_Driver/Src/stm32h7xx_ll_usb.c ****   * @retval Device OUT EP Interrupt register
1210:Drivers/STM32H7xx_HAL_Driver/Src/stm32h7xx_ll_usb.c ****   */
1211:Drivers/STM32H7xx_HAL_Driver/Src/stm32h7xx_ll_usb.c **** uint32_t USB_ReadDevOutEPInterrupt(USB_OTG_GlobalTypeDef *USBx, uint8_t epnum)
1212:Drivers/STM32H7xx_HAL_Driver/Src/stm32h7xx_ll_usb.c **** {
1213:Drivers/STM32H7xx_HAL_Driver/Src/stm32h7xx_ll_usb.c ****   uint32_t USBx_BASE = (uint32_t)USBx;
1214:Drivers/STM32H7xx_HAL_Driver/Src/stm32h7xx_ll_usb.c ****   uint32_t tmpreg;
1215:Drivers/STM32H7xx_HAL_Driver/Src/stm32h7xx_ll_usb.c **** 
1216:Drivers/STM32H7xx_HAL_Driver/Src/stm32h7xx_ll_usb.c ****   tmpreg  = USBx_OUTEP((uint32_t)epnum)->DOEPINT;
1217:Drivers/STM32H7xx_HAL_Driver/Src/stm32h7xx_ll_usb.c ****   tmpreg &= USBx_DEVICE->DOEPMSK;
1218:Drivers/STM32H7xx_HAL_Driver/Src/stm32h7xx_ll_usb.c **** 
1219:Drivers/STM32H7xx_HAL_Driver/Src/stm32h7xx_ll_usb.c ****   return tmpreg;
1220:Drivers/STM32H7xx_HAL_Driver/Src/stm32h7xx_ll_usb.c **** }
1221:Drivers/STM32H7xx_HAL_Driver/Src/stm32h7xx_ll_usb.c **** 
1222:Drivers/STM32H7xx_HAL_Driver/Src/stm32h7xx_ll_usb.c **** /**
1223:Drivers/STM32H7xx_HAL_Driver/Src/stm32h7xx_ll_usb.c ****   * @brief  Returns Device IN EP Interrupt register
1224:Drivers/STM32H7xx_HAL_Driver/Src/stm32h7xx_ll_usb.c ****   * @param  USBx  Selected device
1225:Drivers/STM32H7xx_HAL_Driver/Src/stm32h7xx_ll_usb.c ****   * @param  epnum  endpoint number
1226:Drivers/STM32H7xx_HAL_Driver/Src/stm32h7xx_ll_usb.c ****   *          This parameter can be a value from 0 to 15
1227:Drivers/STM32H7xx_HAL_Driver/Src/stm32h7xx_ll_usb.c ****   * @retval Device IN EP Interrupt register
1228:Drivers/STM32H7xx_HAL_Driver/Src/stm32h7xx_ll_usb.c ****   */
ARM GAS  /var/folders/26/q55yrwgs1ql1lprjdslmzz800000gn/T//ccC08pEc.s 			page 23


1229:Drivers/STM32H7xx_HAL_Driver/Src/stm32h7xx_ll_usb.c **** uint32_t USB_ReadDevInEPInterrupt(USB_OTG_GlobalTypeDef *USBx, uint8_t epnum)
1230:Drivers/STM32H7xx_HAL_Driver/Src/stm32h7xx_ll_usb.c **** {
1231:Drivers/STM32H7xx_HAL_Driver/Src/stm32h7xx_ll_usb.c ****   uint32_t USBx_BASE = (uint32_t)USBx;
1232:Drivers/STM32H7xx_HAL_Driver/Src/stm32h7xx_ll_usb.c ****   uint32_t tmpreg, msk, emp;
1233:Drivers/STM32H7xx_HAL_Driver/Src/stm32h7xx_ll_usb.c **** 
1234:Drivers/STM32H7xx_HAL_Driver/Src/stm32h7xx_ll_usb.c ****   msk = USBx_DEVICE->DIEPMSK;
1235:Drivers/STM32H7xx_HAL_Driver/Src/stm32h7xx_ll_usb.c ****   emp = USBx_DEVICE->DIEPEMPMSK;
1236:Drivers/STM32H7xx_HAL_Driver/Src/stm32h7xx_ll_usb.c ****   msk |= ((emp >> (epnum & EP_ADDR_MSK)) & 0x1U) << 7;
1237:Drivers/STM32H7xx_HAL_Driver/Src/stm32h7xx_ll_usb.c ****   tmpreg = USBx_INEP((uint32_t)epnum)->DIEPINT & msk;
1238:Drivers/STM32H7xx_HAL_Driver/Src/stm32h7xx_ll_usb.c **** 
1239:Drivers/STM32H7xx_HAL_Driver/Src/stm32h7xx_ll_usb.c ****   return tmpreg;
1240:Drivers/STM32H7xx_HAL_Driver/Src/stm32h7xx_ll_usb.c **** }
1241:Drivers/STM32H7xx_HAL_Driver/Src/stm32h7xx_ll_usb.c **** 
1242:Drivers/STM32H7xx_HAL_Driver/Src/stm32h7xx_ll_usb.c **** /**
1243:Drivers/STM32H7xx_HAL_Driver/Src/stm32h7xx_ll_usb.c ****   * @brief  USB_ClearInterrupts: clear a USB interrupt
1244:Drivers/STM32H7xx_HAL_Driver/Src/stm32h7xx_ll_usb.c ****   * @param  USBx  Selected device
1245:Drivers/STM32H7xx_HAL_Driver/Src/stm32h7xx_ll_usb.c ****   * @param  interrupt  flag
1246:Drivers/STM32H7xx_HAL_Driver/Src/stm32h7xx_ll_usb.c ****   * @retval None
1247:Drivers/STM32H7xx_HAL_Driver/Src/stm32h7xx_ll_usb.c ****   */
1248:Drivers/STM32H7xx_HAL_Driver/Src/stm32h7xx_ll_usb.c **** void  USB_ClearInterrupts(USB_OTG_GlobalTypeDef *USBx, uint32_t interrupt)
1249:Drivers/STM32H7xx_HAL_Driver/Src/stm32h7xx_ll_usb.c **** {
1250:Drivers/STM32H7xx_HAL_Driver/Src/stm32h7xx_ll_usb.c ****   USBx->GINTSTS |= interrupt;
1251:Drivers/STM32H7xx_HAL_Driver/Src/stm32h7xx_ll_usb.c **** }
1252:Drivers/STM32H7xx_HAL_Driver/Src/stm32h7xx_ll_usb.c **** 
1253:Drivers/STM32H7xx_HAL_Driver/Src/stm32h7xx_ll_usb.c **** /**
1254:Drivers/STM32H7xx_HAL_Driver/Src/stm32h7xx_ll_usb.c ****   * @brief  Returns USB core mode
1255:Drivers/STM32H7xx_HAL_Driver/Src/stm32h7xx_ll_usb.c ****   * @param  USBx  Selected device
1256:Drivers/STM32H7xx_HAL_Driver/Src/stm32h7xx_ll_usb.c ****   * @retval return core mode : Host or Device
1257:Drivers/STM32H7xx_HAL_Driver/Src/stm32h7xx_ll_usb.c ****   *          This parameter can be one of these values:
1258:Drivers/STM32H7xx_HAL_Driver/Src/stm32h7xx_ll_usb.c ****   *           0 : Host
1259:Drivers/STM32H7xx_HAL_Driver/Src/stm32h7xx_ll_usb.c ****   *           1 : Device
1260:Drivers/STM32H7xx_HAL_Driver/Src/stm32h7xx_ll_usb.c ****   */
1261:Drivers/STM32H7xx_HAL_Driver/Src/stm32h7xx_ll_usb.c **** uint32_t USB_GetMode(USB_OTG_GlobalTypeDef *USBx)
1262:Drivers/STM32H7xx_HAL_Driver/Src/stm32h7xx_ll_usb.c **** {
1263:Drivers/STM32H7xx_HAL_Driver/Src/stm32h7xx_ll_usb.c ****   return ((USBx->GINTSTS) & 0x1U);
1264:Drivers/STM32H7xx_HAL_Driver/Src/stm32h7xx_ll_usb.c **** }
1265:Drivers/STM32H7xx_HAL_Driver/Src/stm32h7xx_ll_usb.c **** 
1266:Drivers/STM32H7xx_HAL_Driver/Src/stm32h7xx_ll_usb.c **** /**
1267:Drivers/STM32H7xx_HAL_Driver/Src/stm32h7xx_ll_usb.c ****   * @brief  Activate EP0 for Setup transactions
1268:Drivers/STM32H7xx_HAL_Driver/Src/stm32h7xx_ll_usb.c ****   * @param  USBx  Selected device
1269:Drivers/STM32H7xx_HAL_Driver/Src/stm32h7xx_ll_usb.c ****   * @retval HAL status
1270:Drivers/STM32H7xx_HAL_Driver/Src/stm32h7xx_ll_usb.c ****   */
1271:Drivers/STM32H7xx_HAL_Driver/Src/stm32h7xx_ll_usb.c **** HAL_StatusTypeDef  USB_ActivateSetup(USB_OTG_GlobalTypeDef *USBx)
1272:Drivers/STM32H7xx_HAL_Driver/Src/stm32h7xx_ll_usb.c **** {
1273:Drivers/STM32H7xx_HAL_Driver/Src/stm32h7xx_ll_usb.c ****   uint32_t USBx_BASE = (uint32_t)USBx;
1274:Drivers/STM32H7xx_HAL_Driver/Src/stm32h7xx_ll_usb.c **** 
1275:Drivers/STM32H7xx_HAL_Driver/Src/stm32h7xx_ll_usb.c ****   /* Set the MPS of the IN EP0 to 64 bytes */
1276:Drivers/STM32H7xx_HAL_Driver/Src/stm32h7xx_ll_usb.c ****   USBx_INEP(0U)->DIEPCTL &= ~USB_OTG_DIEPCTL_MPSIZ;
1277:Drivers/STM32H7xx_HAL_Driver/Src/stm32h7xx_ll_usb.c **** 
1278:Drivers/STM32H7xx_HAL_Driver/Src/stm32h7xx_ll_usb.c ****   USBx_DEVICE->DCTL |= USB_OTG_DCTL_CGINAK;
1279:Drivers/STM32H7xx_HAL_Driver/Src/stm32h7xx_ll_usb.c **** 
1280:Drivers/STM32H7xx_HAL_Driver/Src/stm32h7xx_ll_usb.c ****   return HAL_OK;
1281:Drivers/STM32H7xx_HAL_Driver/Src/stm32h7xx_ll_usb.c **** }
1282:Drivers/STM32H7xx_HAL_Driver/Src/stm32h7xx_ll_usb.c **** 
1283:Drivers/STM32H7xx_HAL_Driver/Src/stm32h7xx_ll_usb.c **** /**
1284:Drivers/STM32H7xx_HAL_Driver/Src/stm32h7xx_ll_usb.c ****   * @brief  Prepare the EP0 to start the first control setup
1285:Drivers/STM32H7xx_HAL_Driver/Src/stm32h7xx_ll_usb.c ****   * @param  USBx  Selected device
ARM GAS  /var/folders/26/q55yrwgs1ql1lprjdslmzz800000gn/T//ccC08pEc.s 			page 24


1286:Drivers/STM32H7xx_HAL_Driver/Src/stm32h7xx_ll_usb.c ****   * @param  dma USB dma enabled or disabled
1287:Drivers/STM32H7xx_HAL_Driver/Src/stm32h7xx_ll_usb.c ****   *          This parameter can be one of these values:
1288:Drivers/STM32H7xx_HAL_Driver/Src/stm32h7xx_ll_usb.c ****   *           0 : DMA feature not used
1289:Drivers/STM32H7xx_HAL_Driver/Src/stm32h7xx_ll_usb.c ****   *           1 : DMA feature used
1290:Drivers/STM32H7xx_HAL_Driver/Src/stm32h7xx_ll_usb.c ****   * @param  psetup  pointer to setup packet
1291:Drivers/STM32H7xx_HAL_Driver/Src/stm32h7xx_ll_usb.c ****   * @retval HAL status
1292:Drivers/STM32H7xx_HAL_Driver/Src/stm32h7xx_ll_usb.c ****   */
1293:Drivers/STM32H7xx_HAL_Driver/Src/stm32h7xx_ll_usb.c **** HAL_StatusTypeDef USB_EP0_OutStart(USB_OTG_GlobalTypeDef *USBx, uint8_t dma, uint8_t *psetup)
1294:Drivers/STM32H7xx_HAL_Driver/Src/stm32h7xx_ll_usb.c **** {
1295:Drivers/STM32H7xx_HAL_Driver/Src/stm32h7xx_ll_usb.c ****   uint32_t USBx_BASE = (uint32_t)USBx;
1296:Drivers/STM32H7xx_HAL_Driver/Src/stm32h7xx_ll_usb.c ****   uint32_t gSNPSiD = *(__IO uint32_t *)(&USBx->CID + 0x1U);
1297:Drivers/STM32H7xx_HAL_Driver/Src/stm32h7xx_ll_usb.c **** 
1298:Drivers/STM32H7xx_HAL_Driver/Src/stm32h7xx_ll_usb.c ****   if (gSNPSiD > USB_OTG_CORE_ID_300A)
1299:Drivers/STM32H7xx_HAL_Driver/Src/stm32h7xx_ll_usb.c ****   {
1300:Drivers/STM32H7xx_HAL_Driver/Src/stm32h7xx_ll_usb.c ****     if ((USBx_OUTEP(0U)->DOEPCTL & USB_OTG_DOEPCTL_EPENA) == USB_OTG_DOEPCTL_EPENA)
1301:Drivers/STM32H7xx_HAL_Driver/Src/stm32h7xx_ll_usb.c ****     {
1302:Drivers/STM32H7xx_HAL_Driver/Src/stm32h7xx_ll_usb.c ****       return HAL_OK;
1303:Drivers/STM32H7xx_HAL_Driver/Src/stm32h7xx_ll_usb.c ****     }
1304:Drivers/STM32H7xx_HAL_Driver/Src/stm32h7xx_ll_usb.c ****   }
1305:Drivers/STM32H7xx_HAL_Driver/Src/stm32h7xx_ll_usb.c **** 
1306:Drivers/STM32H7xx_HAL_Driver/Src/stm32h7xx_ll_usb.c ****   USBx_OUTEP(0U)->DOEPTSIZ = 0U;
1307:Drivers/STM32H7xx_HAL_Driver/Src/stm32h7xx_ll_usb.c ****   USBx_OUTEP(0U)->DOEPTSIZ |= (USB_OTG_DOEPTSIZ_PKTCNT & (1U << 19));
1308:Drivers/STM32H7xx_HAL_Driver/Src/stm32h7xx_ll_usb.c ****   USBx_OUTEP(0U)->DOEPTSIZ |= (3U * 8U);
1309:Drivers/STM32H7xx_HAL_Driver/Src/stm32h7xx_ll_usb.c ****   USBx_OUTEP(0U)->DOEPTSIZ |=  USB_OTG_DOEPTSIZ_STUPCNT;
1310:Drivers/STM32H7xx_HAL_Driver/Src/stm32h7xx_ll_usb.c **** 
1311:Drivers/STM32H7xx_HAL_Driver/Src/stm32h7xx_ll_usb.c ****   if (dma == 1U)
1312:Drivers/STM32H7xx_HAL_Driver/Src/stm32h7xx_ll_usb.c ****   {
1313:Drivers/STM32H7xx_HAL_Driver/Src/stm32h7xx_ll_usb.c ****     USBx_OUTEP(0U)->DOEPDMA = (uint32_t)psetup;
1314:Drivers/STM32H7xx_HAL_Driver/Src/stm32h7xx_ll_usb.c ****     /* EP enable */
1315:Drivers/STM32H7xx_HAL_Driver/Src/stm32h7xx_ll_usb.c ****     USBx_OUTEP(0U)->DOEPCTL |= USB_OTG_DOEPCTL_EPENA | USB_OTG_DOEPCTL_USBAEP;
1316:Drivers/STM32H7xx_HAL_Driver/Src/stm32h7xx_ll_usb.c ****   }
1317:Drivers/STM32H7xx_HAL_Driver/Src/stm32h7xx_ll_usb.c **** 
1318:Drivers/STM32H7xx_HAL_Driver/Src/stm32h7xx_ll_usb.c ****   return HAL_OK;
1319:Drivers/STM32H7xx_HAL_Driver/Src/stm32h7xx_ll_usb.c **** }
1320:Drivers/STM32H7xx_HAL_Driver/Src/stm32h7xx_ll_usb.c **** 
1321:Drivers/STM32H7xx_HAL_Driver/Src/stm32h7xx_ll_usb.c **** /**
1322:Drivers/STM32H7xx_HAL_Driver/Src/stm32h7xx_ll_usb.c ****   * @brief  Reset the USB Core (needed after USB clock settings change)
1323:Drivers/STM32H7xx_HAL_Driver/Src/stm32h7xx_ll_usb.c ****   * @param  USBx  Selected device
1324:Drivers/STM32H7xx_HAL_Driver/Src/stm32h7xx_ll_usb.c ****   * @retval HAL status
1325:Drivers/STM32H7xx_HAL_Driver/Src/stm32h7xx_ll_usb.c ****   */
1326:Drivers/STM32H7xx_HAL_Driver/Src/stm32h7xx_ll_usb.c **** static HAL_StatusTypeDef USB_CoreReset(USB_OTG_GlobalTypeDef *USBx)
1327:Drivers/STM32H7xx_HAL_Driver/Src/stm32h7xx_ll_usb.c **** {
  28              		.loc 1 1327 1 view -0
  29              		.cfi_startproc
  30              		@ args = 0, pretend = 0, frame = 0
  31              		@ frame_needed = 0, uses_anonymous_args = 0
  32              		@ link register save eliminated.
1328:Drivers/STM32H7xx_HAL_Driver/Src/stm32h7xx_ll_usb.c ****   uint32_t count = 0U;
  33              		.loc 1 1328 3 view .LVU1
  34              		.loc 1 1328 12 is_stmt 0 view .LVU2
  35 0000 0023     		movs	r3, #0
  36              	.LVL1:
  37              	.L3:
1329:Drivers/STM32H7xx_HAL_Driver/Src/stm32h7xx_ll_usb.c **** 
1330:Drivers/STM32H7xx_HAL_Driver/Src/stm32h7xx_ll_usb.c ****   /* Wait for AHB master IDLE state. */
1331:Drivers/STM32H7xx_HAL_Driver/Src/stm32h7xx_ll_usb.c ****   do
  38              		.loc 1 1331 3 is_stmt 1 view .LVU3
ARM GAS  /var/folders/26/q55yrwgs1ql1lprjdslmzz800000gn/T//ccC08pEc.s 			page 25


1332:Drivers/STM32H7xx_HAL_Driver/Src/stm32h7xx_ll_usb.c ****   {
1333:Drivers/STM32H7xx_HAL_Driver/Src/stm32h7xx_ll_usb.c ****     if (++count > 200000U)
  39              		.loc 1 1333 5 view .LVU4
  40              		.loc 1 1333 8 is_stmt 0 view .LVU5
  41 0002 0133     		adds	r3, r3, #1
  42              	.LVL2:
  43              		.loc 1 1333 8 view .LVU6
  44 0004 0C4A     		ldr	r2, .L7
  45 0006 9342     		cmp	r3, r2
  46 0008 11D8     		bhi	.L5
1334:Drivers/STM32H7xx_HAL_Driver/Src/stm32h7xx_ll_usb.c ****     {
1335:Drivers/STM32H7xx_HAL_Driver/Src/stm32h7xx_ll_usb.c ****       return HAL_TIMEOUT;
1336:Drivers/STM32H7xx_HAL_Driver/Src/stm32h7xx_ll_usb.c ****     }
1337:Drivers/STM32H7xx_HAL_Driver/Src/stm32h7xx_ll_usb.c ****   } while ((USBx->GRSTCTL & USB_OTG_GRSTCTL_AHBIDL) == 0U);
  47              		.loc 1 1337 11 is_stmt 1 view .LVU7
  48              		.loc 1 1337 17 is_stmt 0 view .LVU8
  49 000a 0269     		ldr	r2, [r0, #16]
  50              		.loc 1 1337 3 view .LVU9
  51 000c 002A     		cmp	r2, #0
  52 000e F8DA     		bge	.L3
1338:Drivers/STM32H7xx_HAL_Driver/Src/stm32h7xx_ll_usb.c **** 
1339:Drivers/STM32H7xx_HAL_Driver/Src/stm32h7xx_ll_usb.c ****   /* Core Soft Reset */
1340:Drivers/STM32H7xx_HAL_Driver/Src/stm32h7xx_ll_usb.c ****   count = 0U;
  53              		.loc 1 1340 3 is_stmt 1 view .LVU10
  54              	.LVL3:
1341:Drivers/STM32H7xx_HAL_Driver/Src/stm32h7xx_ll_usb.c ****   USBx->GRSTCTL |= USB_OTG_GRSTCTL_CSRST;
  55              		.loc 1 1341 3 view .LVU11
  56              		.loc 1 1341 17 is_stmt 0 view .LVU12
  57 0010 0369     		ldr	r3, [r0, #16]
  58 0012 43F00103 		orr	r3, r3, #1
  59 0016 0361     		str	r3, [r0, #16]
1340:Drivers/STM32H7xx_HAL_Driver/Src/stm32h7xx_ll_usb.c ****   USBx->GRSTCTL |= USB_OTG_GRSTCTL_CSRST;
  60              		.loc 1 1340 9 view .LVU13
  61 0018 0023     		movs	r3, #0
  62              	.LVL4:
  63              	.L4:
1342:Drivers/STM32H7xx_HAL_Driver/Src/stm32h7xx_ll_usb.c **** 
1343:Drivers/STM32H7xx_HAL_Driver/Src/stm32h7xx_ll_usb.c ****   do
  64              		.loc 1 1343 3 is_stmt 1 view .LVU14
1344:Drivers/STM32H7xx_HAL_Driver/Src/stm32h7xx_ll_usb.c ****   {
1345:Drivers/STM32H7xx_HAL_Driver/Src/stm32h7xx_ll_usb.c ****     if (++count > 200000U)
  65              		.loc 1 1345 5 view .LVU15
  66              		.loc 1 1345 8 is_stmt 0 view .LVU16
  67 001a 0133     		adds	r3, r3, #1
  68              	.LVL5:
  69              		.loc 1 1345 8 view .LVU17
  70 001c 064A     		ldr	r2, .L7
  71 001e 9342     		cmp	r3, r2
  72 0020 07D8     		bhi	.L6
1346:Drivers/STM32H7xx_HAL_Driver/Src/stm32h7xx_ll_usb.c ****     {
1347:Drivers/STM32H7xx_HAL_Driver/Src/stm32h7xx_ll_usb.c ****       return HAL_TIMEOUT;
1348:Drivers/STM32H7xx_HAL_Driver/Src/stm32h7xx_ll_usb.c ****     }
1349:Drivers/STM32H7xx_HAL_Driver/Src/stm32h7xx_ll_usb.c ****   } while ((USBx->GRSTCTL & USB_OTG_GRSTCTL_CSRST) == USB_OTG_GRSTCTL_CSRST);
  73              		.loc 1 1349 11 is_stmt 1 view .LVU18
  74              		.loc 1 1349 17 is_stmt 0 view .LVU19
  75 0022 0269     		ldr	r2, [r0, #16]
  76              		.loc 1 1349 3 view .LVU20
ARM GAS  /var/folders/26/q55yrwgs1ql1lprjdslmzz800000gn/T//ccC08pEc.s 			page 26


  77 0024 12F0010F 		tst	r2, #1
  78 0028 F7D1     		bne	.L4
1350:Drivers/STM32H7xx_HAL_Driver/Src/stm32h7xx_ll_usb.c **** 
1351:Drivers/STM32H7xx_HAL_Driver/Src/stm32h7xx_ll_usb.c ****   return HAL_OK;
  79              		.loc 1 1351 10 view .LVU21
  80 002a 0020     		movs	r0, #0
  81              	.LVL6:
  82              		.loc 1 1351 10 view .LVU22
  83 002c 7047     		bx	lr
  84              	.LVL7:
  85              	.L5:
1335:Drivers/STM32H7xx_HAL_Driver/Src/stm32h7xx_ll_usb.c ****     }
  86              		.loc 1 1335 14 view .LVU23
  87 002e 0320     		movs	r0, #3
  88              	.LVL8:
1335:Drivers/STM32H7xx_HAL_Driver/Src/stm32h7xx_ll_usb.c ****     }
  89              		.loc 1 1335 14 view .LVU24
  90 0030 7047     		bx	lr
  91              	.LVL9:
  92              	.L6:
1347:Drivers/STM32H7xx_HAL_Driver/Src/stm32h7xx_ll_usb.c ****     }
  93              		.loc 1 1347 14 view .LVU25
  94 0032 0320     		movs	r0, #3
  95              	.LVL10:
1352:Drivers/STM32H7xx_HAL_Driver/Src/stm32h7xx_ll_usb.c **** }
  96              		.loc 1 1352 1 view .LVU26
  97 0034 7047     		bx	lr
  98              	.L8:
  99 0036 00BF     		.align	2
 100              	.L7:
 101 0038 400D0300 		.word	200000
 102              		.cfi_endproc
 103              	.LFE177:
 105              		.section	.text.USB_CoreInit,"ax",%progbits
 106              		.align	1
 107              		.global	USB_CoreInit
 108              		.syntax unified
 109              		.thumb
 110              		.thumb_func
 112              	USB_CoreInit:
 113              	.LVL11:
 114              	.LFB144:
  83:Drivers/STM32H7xx_HAL_Driver/Src/stm32h7xx_ll_usb.c ****   HAL_StatusTypeDef ret;
 115              		.loc 1 83 1 is_stmt 1 view -0
 116              		.cfi_startproc
 117              		@ args = 56, pretend = 16, frame = 0
 118              		@ frame_needed = 0, uses_anonymous_args = 0
  83:Drivers/STM32H7xx_HAL_Driver/Src/stm32h7xx_ll_usb.c ****   HAL_StatusTypeDef ret;
 119              		.loc 1 83 1 is_stmt 0 view .LVU28
 120 0000 84B0     		sub	sp, sp, #16
 121              	.LCFI0:
 122              		.cfi_def_cfa_offset 16
 123 0002 10B5     		push	{r4, lr}
 124              	.LCFI1:
 125              		.cfi_def_cfa_offset 24
 126              		.cfi_offset 4, -24
 127              		.cfi_offset 14, -20
ARM GAS  /var/folders/26/q55yrwgs1ql1lprjdslmzz800000gn/T//ccC08pEc.s 			page 27


 128 0004 0446     		mov	r4, r0
 129 0006 03A8     		add	r0, sp, #12
 130 0008 80E80E00 		stm	r0, {r1, r2, r3}
  84:Drivers/STM32H7xx_HAL_Driver/Src/stm32h7xx_ll_usb.c **** 
 131              		.loc 1 84 3 is_stmt 1 view .LVU29
  86:Drivers/STM32H7xx_HAL_Driver/Src/stm32h7xx_ll_usb.c ****   {
 132              		.loc 1 86 3 view .LVU30
  86:Drivers/STM32H7xx_HAL_Driver/Src/stm32h7xx_ll_usb.c ****   {
 133              		.loc 1 86 10 is_stmt 0 view .LVU31
 134 000c 089B     		ldr	r3, [sp, #32]
  86:Drivers/STM32H7xx_HAL_Driver/Src/stm32h7xx_ll_usb.c ****   {
 135              		.loc 1 86 6 view .LVU32
 136 000e 012B     		cmp	r3, #1
 137 0010 1DD1     		bne	.L10
  88:Drivers/STM32H7xx_HAL_Driver/Src/stm32h7xx_ll_usb.c **** 
 138              		.loc 1 88 5 is_stmt 1 view .LVU33
  88:Drivers/STM32H7xx_HAL_Driver/Src/stm32h7xx_ll_usb.c **** 
 139              		.loc 1 88 17 is_stmt 0 view .LVU34
 140 0012 A36B     		ldr	r3, [r4, #56]
 141 0014 23F48033 		bic	r3, r3, #65536
 142 0018 A363     		str	r3, [r4, #56]
  91:Drivers/STM32H7xx_HAL_Driver/Src/stm32h7xx_ll_usb.c **** 
 143              		.loc 1 91 5 is_stmt 1 view .LVU35
  91:Drivers/STM32H7xx_HAL_Driver/Src/stm32h7xx_ll_usb.c **** 
 144              		.loc 1 91 19 is_stmt 0 view .LVU36
 145 001a E268     		ldr	r2, [r4, #12]
 146 001c 1D4B     		ldr	r3, .L18
 147 001e 1340     		ands	r3, r3, r2
 148 0020 E360     		str	r3, [r4, #12]
  94:Drivers/STM32H7xx_HAL_Driver/Src/stm32h7xx_ll_usb.c ****     if (cfg.use_external_vbus == 1U)
 149              		.loc 1 94 5 is_stmt 1 view .LVU37
  94:Drivers/STM32H7xx_HAL_Driver/Src/stm32h7xx_ll_usb.c ****     if (cfg.use_external_vbus == 1U)
 150              		.loc 1 94 19 is_stmt 0 view .LVU38
 151 0022 E368     		ldr	r3, [r4, #12]
 152 0024 23F44013 		bic	r3, r3, #3145728
 153 0028 E360     		str	r3, [r4, #12]
  95:Drivers/STM32H7xx_HAL_Driver/Src/stm32h7xx_ll_usb.c ****     {
 154              		.loc 1 95 5 is_stmt 1 view .LVU39
  95:Drivers/STM32H7xx_HAL_Driver/Src/stm32h7xx_ll_usb.c ****     {
 155              		.loc 1 95 12 is_stmt 0 view .LVU40
 156 002a 0F9B     		ldr	r3, [sp, #60]
  95:Drivers/STM32H7xx_HAL_Driver/Src/stm32h7xx_ll_usb.c ****     {
 157              		.loc 1 95 8 view .LVU41
 158 002c 012B     		cmp	r3, #1
 159 002e 09D0     		beq	.L16
 160              	.L11:
 101:Drivers/STM32H7xx_HAL_Driver/Src/stm32h7xx_ll_usb.c ****   }
 161              		.loc 1 101 5 is_stmt 1 view .LVU42
 101:Drivers/STM32H7xx_HAL_Driver/Src/stm32h7xx_ll_usb.c ****   }
 162              		.loc 1 101 11 is_stmt 0 view .LVU43
 163 0030 2046     		mov	r0, r4
 164              	.LVL12:
 101:Drivers/STM32H7xx_HAL_Driver/Src/stm32h7xx_ll_usb.c ****   }
 165              		.loc 1 101 11 view .LVU44
 166 0032 FFF7FEFF 		bl	USB_CoreReset
 167              	.LVL13:
 168              	.L12:
ARM GAS  /var/folders/26/q55yrwgs1ql1lprjdslmzz800000gn/T//ccC08pEc.s 			page 28


 123:Drivers/STM32H7xx_HAL_Driver/Src/stm32h7xx_ll_usb.c ****   {
 169              		.loc 1 123 3 is_stmt 1 view .LVU45
 123:Drivers/STM32H7xx_HAL_Driver/Src/stm32h7xx_ll_usb.c ****   {
 170              		.loc 1 123 10 is_stmt 0 view .LVU46
 171 0036 069B     		ldr	r3, [sp, #24]
 123:Drivers/STM32H7xx_HAL_Driver/Src/stm32h7xx_ll_usb.c ****   {
 172              		.loc 1 123 6 view .LVU47
 173 0038 012B     		cmp	r3, #1
 174 003a 1BD0     		beq	.L17
 175              	.L14:
 133:Drivers/STM32H7xx_HAL_Driver/Src/stm32h7xx_ll_usb.c **** }
 176              		.loc 1 133 3 is_stmt 1 view .LVU48
 134:Drivers/STM32H7xx_HAL_Driver/Src/stm32h7xx_ll_usb.c **** 
 177              		.loc 1 134 1 is_stmt 0 view .LVU49
 178 003c BDE81040 		pop	{r4, lr}
 179              	.LCFI2:
 180              		.cfi_remember_state
 181              		.cfi_restore 14
 182              		.cfi_restore 4
 183              		.cfi_def_cfa_offset 16
 184              	.LVL14:
 134:Drivers/STM32H7xx_HAL_Driver/Src/stm32h7xx_ll_usb.c **** 
 185              		.loc 1 134 1 view .LVU50
 186 0040 04B0     		add	sp, sp, #16
 187              	.LCFI3:
 188              		.cfi_def_cfa_offset 0
 189 0042 7047     		bx	lr
 190              	.LVL15:
 191              	.L16:
 192              	.LCFI4:
 193              		.cfi_restore_state
  97:Drivers/STM32H7xx_HAL_Driver/Src/stm32h7xx_ll_usb.c ****     }
 194              		.loc 1 97 7 is_stmt 1 view .LVU51
  97:Drivers/STM32H7xx_HAL_Driver/Src/stm32h7xx_ll_usb.c ****     }
 195              		.loc 1 97 21 is_stmt 0 view .LVU52
 196 0044 E368     		ldr	r3, [r4, #12]
 197 0046 43F48013 		orr	r3, r3, #1048576
 198 004a E360     		str	r3, [r4, #12]
 199 004c F0E7     		b	.L11
 200              	.L10:
 106:Drivers/STM32H7xx_HAL_Driver/Src/stm32h7xx_ll_usb.c **** 
 201              		.loc 1 106 5 is_stmt 1 view .LVU53
 106:Drivers/STM32H7xx_HAL_Driver/Src/stm32h7xx_ll_usb.c **** 
 202              		.loc 1 106 19 is_stmt 0 view .LVU54
 203 004e E368     		ldr	r3, [r4, #12]
 204 0050 43F04003 		orr	r3, r3, #64
 205 0054 E360     		str	r3, [r4, #12]
 109:Drivers/STM32H7xx_HAL_Driver/Src/stm32h7xx_ll_usb.c **** 
 206              		.loc 1 109 5 is_stmt 1 view .LVU55
 109:Drivers/STM32H7xx_HAL_Driver/Src/stm32h7xx_ll_usb.c **** 
 207              		.loc 1 109 11 is_stmt 0 view .LVU56
 208 0056 2046     		mov	r0, r4
 209              	.LVL16:
 109:Drivers/STM32H7xx_HAL_Driver/Src/stm32h7xx_ll_usb.c **** 
 210              		.loc 1 109 11 view .LVU57
 211 0058 FFF7FEFF 		bl	USB_CoreReset
 212              	.LVL17:
ARM GAS  /var/folders/26/q55yrwgs1ql1lprjdslmzz800000gn/T//ccC08pEc.s 			page 29


 111:Drivers/STM32H7xx_HAL_Driver/Src/stm32h7xx_ll_usb.c ****     {
 213              		.loc 1 111 5 is_stmt 1 view .LVU58
 111:Drivers/STM32H7xx_HAL_Driver/Src/stm32h7xx_ll_usb.c ****     {
 214              		.loc 1 111 12 is_stmt 0 view .LVU59
 215 005c 0C9B     		ldr	r3, [sp, #48]
 111:Drivers/STM32H7xx_HAL_Driver/Src/stm32h7xx_ll_usb.c ****     {
 216              		.loc 1 111 8 view .LVU60
 217 005e 23B9     		cbnz	r3, .L13
 114:Drivers/STM32H7xx_HAL_Driver/Src/stm32h7xx_ll_usb.c ****     }
 218              		.loc 1 114 7 is_stmt 1 view .LVU61
 114:Drivers/STM32H7xx_HAL_Driver/Src/stm32h7xx_ll_usb.c ****     }
 219              		.loc 1 114 19 is_stmt 0 view .LVU62
 220 0060 A36B     		ldr	r3, [r4, #56]
 221 0062 43F48033 		orr	r3, r3, #65536
 222 0066 A363     		str	r3, [r4, #56]
 223 0068 E5E7     		b	.L12
 224              	.L13:
 119:Drivers/STM32H7xx_HAL_Driver/Src/stm32h7xx_ll_usb.c ****     }
 225              		.loc 1 119 7 is_stmt 1 view .LVU63
 119:Drivers/STM32H7xx_HAL_Driver/Src/stm32h7xx_ll_usb.c ****     }
 226              		.loc 1 119 19 is_stmt 0 view .LVU64
 227 006a A36B     		ldr	r3, [r4, #56]
 228 006c 23F48033 		bic	r3, r3, #65536
 229 0070 A363     		str	r3, [r4, #56]
 230 0072 E0E7     		b	.L12
 231              	.L17:
 126:Drivers/STM32H7xx_HAL_Driver/Src/stm32h7xx_ll_usb.c ****     USBx->GDFIFOCFG |= 0x3EEU << 16;
 232              		.loc 1 126 5 is_stmt 1 view .LVU65
 126:Drivers/STM32H7xx_HAL_Driver/Src/stm32h7xx_ll_usb.c ****     USBx->GDFIFOCFG |= 0x3EEU << 16;
 233              		.loc 1 126 21 is_stmt 0 view .LVU66
 234 0074 E36D     		ldr	r3, [r4, #92]
 235 0076 9BB2     		uxth	r3, r3
 236 0078 E365     		str	r3, [r4, #92]
 127:Drivers/STM32H7xx_HAL_Driver/Src/stm32h7xx_ll_usb.c **** 
 237              		.loc 1 127 5 is_stmt 1 view .LVU67
 127:Drivers/STM32H7xx_HAL_Driver/Src/stm32h7xx_ll_usb.c **** 
 238              		.loc 1 127 21 is_stmt 0 view .LVU68
 239 007a E26D     		ldr	r2, [r4, #92]
 240 007c 064B     		ldr	r3, .L18+4
 241 007e 1343     		orrs	r3, r3, r2
 242 0080 E365     		str	r3, [r4, #92]
 129:Drivers/STM32H7xx_HAL_Driver/Src/stm32h7xx_ll_usb.c ****     USBx->GAHBCFG |= USB_OTG_GAHBCFG_DMAEN;
 243              		.loc 1 129 5 is_stmt 1 view .LVU69
 129:Drivers/STM32H7xx_HAL_Driver/Src/stm32h7xx_ll_usb.c ****     USBx->GAHBCFG |= USB_OTG_GAHBCFG_DMAEN;
 244              		.loc 1 129 19 is_stmt 0 view .LVU70
 245 0082 A368     		ldr	r3, [r4, #8]
 246 0084 43F00603 		orr	r3, r3, #6
 247 0088 A360     		str	r3, [r4, #8]
 130:Drivers/STM32H7xx_HAL_Driver/Src/stm32h7xx_ll_usb.c ****   }
 248              		.loc 1 130 5 is_stmt 1 view .LVU71
 130:Drivers/STM32H7xx_HAL_Driver/Src/stm32h7xx_ll_usb.c ****   }
 249              		.loc 1 130 19 is_stmt 0 view .LVU72
 250 008a A368     		ldr	r3, [r4, #8]
 251 008c 43F02003 		orr	r3, r3, #32
 252 0090 A360     		str	r3, [r4, #8]
 253 0092 D3E7     		b	.L14
 254              	.L19:
ARM GAS  /var/folders/26/q55yrwgs1ql1lprjdslmzz800000gn/T//ccC08pEc.s 			page 30


 255              		.align	2
 256              	.L18:
 257 0094 BFFFBDFF 		.word	-4325441
 258 0098 0000EE03 		.word	65929216
 259              		.cfi_endproc
 260              	.LFE144:
 262              		.section	.text.USB_SetTurnaroundTime,"ax",%progbits
 263              		.align	1
 264              		.global	USB_SetTurnaroundTime
 265              		.syntax unified
 266              		.thumb
 267              		.thumb_func
 269              	USB_SetTurnaroundTime:
 270              	.LVL18:
 271              	.LFB145:
 145:Drivers/STM32H7xx_HAL_Driver/Src/stm32h7xx_ll_usb.c ****   uint32_t UsbTrd;
 272              		.loc 1 145 1 is_stmt 1 view -0
 273              		.cfi_startproc
 274              		@ args = 0, pretend = 0, frame = 0
 275              		@ frame_needed = 0, uses_anonymous_args = 0
 276              		@ link register save eliminated.
 146:Drivers/STM32H7xx_HAL_Driver/Src/stm32h7xx_ll_usb.c **** 
 277              		.loc 1 146 3 view .LVU74
 152:Drivers/STM32H7xx_HAL_Driver/Src/stm32h7xx_ll_usb.c ****   {
 278              		.loc 1 152 3 view .LVU75
 152:Drivers/STM32H7xx_HAL_Driver/Src/stm32h7xx_ll_usb.c ****   {
 279              		.loc 1 152 6 is_stmt 0 view .LVU76
 280 0000 022A     		cmp	r2, #2
 281 0002 0AD0     		beq	.L32
 207:Drivers/STM32H7xx_HAL_Driver/Src/stm32h7xx_ll_usb.c ****   }
 282              		.loc 1 207 12 view .LVU77
 283 0004 0921     		movs	r1, #9
 284              	.LVL19:
 285              	.L21:
 214:Drivers/STM32H7xx_HAL_Driver/Src/stm32h7xx_ll_usb.c ****   USBx->GUSBCFG |= (uint32_t)((UsbTrd << 10) & USB_OTG_GUSBCFG_TRDT);
 286              		.loc 1 214 3 is_stmt 1 view .LVU78
 214:Drivers/STM32H7xx_HAL_Driver/Src/stm32h7xx_ll_usb.c ****   USBx->GUSBCFG |= (uint32_t)((UsbTrd << 10) & USB_OTG_GUSBCFG_TRDT);
 287              		.loc 1 214 17 is_stmt 0 view .LVU79
 288 0006 C268     		ldr	r2, [r0, #12]
 289 0008 22F47052 		bic	r2, r2, #15360
 290 000c C260     		str	r2, [r0, #12]
 215:Drivers/STM32H7xx_HAL_Driver/Src/stm32h7xx_ll_usb.c **** 
 291              		.loc 1 215 3 is_stmt 1 view .LVU80
 215:Drivers/STM32H7xx_HAL_Driver/Src/stm32h7xx_ll_usb.c **** 
 292              		.loc 1 215 17 is_stmt 0 view .LVU81
 293 000e C368     		ldr	r3, [r0, #12]
 294 0010 43EA8123 		orr	r3, r3, r1, lsl #10
 295 0014 C360     		str	r3, [r0, #12]
 217:Drivers/STM32H7xx_HAL_Driver/Src/stm32h7xx_ll_usb.c **** }
 296              		.loc 1 217 3 is_stmt 1 view .LVU82
 218:Drivers/STM32H7xx_HAL_Driver/Src/stm32h7xx_ll_usb.c **** 
 297              		.loc 1 218 1 is_stmt 0 view .LVU83
 298 0016 0020     		movs	r0, #0
 299              	.LVL20:
 218:Drivers/STM32H7xx_HAL_Driver/Src/stm32h7xx_ll_usb.c **** 
 300              		.loc 1 218 1 view .LVU84
 301 0018 7047     		bx	lr
ARM GAS  /var/folders/26/q55yrwgs1ql1lprjdslmzz800000gn/T//ccC08pEc.s 			page 31


 302              	.LVL21:
 303              	.L32:
 154:Drivers/STM32H7xx_HAL_Driver/Src/stm32h7xx_ll_usb.c ****     {
 304              		.loc 1 154 5 is_stmt 1 view .LVU85
 154:Drivers/STM32H7xx_HAL_Driver/Src/stm32h7xx_ll_usb.c ****     {
 305              		.loc 1 154 29 is_stmt 0 view .LVU86
 306 001a 204B     		ldr	r3, .L33
 307 001c 0B44     		add	r3, r3, r1
 154:Drivers/STM32H7xx_HAL_Driver/Src/stm32h7xx_ll_usb.c ****     {
 308              		.loc 1 154 8 view .LVU87
 309 001e 204A     		ldr	r2, .L33+4
 310              	.LVL22:
 154:Drivers/STM32H7xx_HAL_Driver/Src/stm32h7xx_ll_usb.c ****     {
 311              		.loc 1 154 8 view .LVU88
 312 0020 9342     		cmp	r3, r2
 313 0022 29D9     		bls	.L23
 159:Drivers/STM32H7xx_HAL_Driver/Src/stm32h7xx_ll_usb.c ****     {
 314              		.loc 1 159 10 is_stmt 1 view .LVU89
 159:Drivers/STM32H7xx_HAL_Driver/Src/stm32h7xx_ll_usb.c ****     {
 315              		.loc 1 159 34 is_stmt 0 view .LVU90
 316 0024 1F4B     		ldr	r3, .L33+8
 317 0026 0B44     		add	r3, r3, r1
 159:Drivers/STM32H7xx_HAL_Driver/Src/stm32h7xx_ll_usb.c ****     {
 318              		.loc 1 159 13 view .LVU91
 319 0028 1F4A     		ldr	r2, .L33+12
 320 002a 9342     		cmp	r3, r2
 321 002c 26D9     		bls	.L24
 164:Drivers/STM32H7xx_HAL_Driver/Src/stm32h7xx_ll_usb.c ****     {
 322              		.loc 1 164 10 is_stmt 1 view .LVU92
 164:Drivers/STM32H7xx_HAL_Driver/Src/stm32h7xx_ll_usb.c ****     {
 323              		.loc 1 164 34 is_stmt 0 view .LVU93
 324 002e 1F4B     		ldr	r3, .L33+16
 325 0030 0B44     		add	r3, r3, r1
 164:Drivers/STM32H7xx_HAL_Driver/Src/stm32h7xx_ll_usb.c ****     {
 326              		.loc 1 164 13 view .LVU94
 327 0032 1F4A     		ldr	r2, .L33+20
 328 0034 9342     		cmp	r3, r2
 329 0036 23D9     		bls	.L25
 169:Drivers/STM32H7xx_HAL_Driver/Src/stm32h7xx_ll_usb.c ****     {
 330              		.loc 1 169 10 is_stmt 1 view .LVU95
 169:Drivers/STM32H7xx_HAL_Driver/Src/stm32h7xx_ll_usb.c ****     {
 331              		.loc 1 169 34 is_stmt 0 view .LVU96
 332 0038 1E4B     		ldr	r3, .L33+24
 333 003a 0B44     		add	r3, r3, r1
 169:Drivers/STM32H7xx_HAL_Driver/Src/stm32h7xx_ll_usb.c ****     {
 334              		.loc 1 169 13 view .LVU97
 335 003c 1E4A     		ldr	r2, .L33+28
 336 003e 9342     		cmp	r3, r2
 337 0040 20D3     		bcc	.L26
 174:Drivers/STM32H7xx_HAL_Driver/Src/stm32h7xx_ll_usb.c ****     {
 338              		.loc 1 174 10 is_stmt 1 view .LVU98
 174:Drivers/STM32H7xx_HAL_Driver/Src/stm32h7xx_ll_usb.c ****     {
 339              		.loc 1 174 34 is_stmt 0 view .LVU99
 340 0042 1E4B     		ldr	r3, .L33+32
 341 0044 0B44     		add	r3, r3, r1
 174:Drivers/STM32H7xx_HAL_Driver/Src/stm32h7xx_ll_usb.c ****     {
 342              		.loc 1 174 13 view .LVU100
ARM GAS  /var/folders/26/q55yrwgs1ql1lprjdslmzz800000gn/T//ccC08pEc.s 			page 32


 343 0046 1E4A     		ldr	r2, .L33+36
 344 0048 9342     		cmp	r3, r2
 345 004a 1DD9     		bls	.L27
 179:Drivers/STM32H7xx_HAL_Driver/Src/stm32h7xx_ll_usb.c ****     {
 346              		.loc 1 179 10 is_stmt 1 view .LVU101
 179:Drivers/STM32H7xx_HAL_Driver/Src/stm32h7xx_ll_usb.c ****     {
 347              		.loc 1 179 34 is_stmt 0 view .LVU102
 348 004c 1D4B     		ldr	r3, .L33+40
 349 004e 0B44     		add	r3, r3, r1
 179:Drivers/STM32H7xx_HAL_Driver/Src/stm32h7xx_ll_usb.c ****     {
 350              		.loc 1 179 13 view .LVU103
 351 0050 1D4A     		ldr	r2, .L33+44
 352 0052 9342     		cmp	r3, r2
 353 0054 1AD3     		bcc	.L28
 184:Drivers/STM32H7xx_HAL_Driver/Src/stm32h7xx_ll_usb.c ****     {
 354              		.loc 1 184 10 is_stmt 1 view .LVU104
 184:Drivers/STM32H7xx_HAL_Driver/Src/stm32h7xx_ll_usb.c ****     {
 355              		.loc 1 184 34 is_stmt 0 view .LVU105
 356 0056 1D4B     		ldr	r3, .L33+48
 357 0058 0B44     		add	r3, r3, r1
 184:Drivers/STM32H7xx_HAL_Driver/Src/stm32h7xx_ll_usb.c ****     {
 358              		.loc 1 184 13 view .LVU106
 359 005a 1D4A     		ldr	r2, .L33+52
 360 005c 9342     		cmp	r3, r2
 361 005e 17D3     		bcc	.L29
 189:Drivers/STM32H7xx_HAL_Driver/Src/stm32h7xx_ll_usb.c ****     {
 362              		.loc 1 189 10 is_stmt 1 view .LVU107
 189:Drivers/STM32H7xx_HAL_Driver/Src/stm32h7xx_ll_usb.c ****     {
 363              		.loc 1 189 34 is_stmt 0 view .LVU108
 364 0060 1C4B     		ldr	r3, .L33+56
 365 0062 0B44     		add	r3, r3, r1
 189:Drivers/STM32H7xx_HAL_Driver/Src/stm32h7xx_ll_usb.c ****     {
 366              		.loc 1 189 13 view .LVU109
 367 0064 1C4A     		ldr	r2, .L33+60
 368 0066 9342     		cmp	r3, r2
 369 0068 14D3     		bcc	.L30
 194:Drivers/STM32H7xx_HAL_Driver/Src/stm32h7xx_ll_usb.c ****     {
 370              		.loc 1 194 10 is_stmt 1 view .LVU110
 194:Drivers/STM32H7xx_HAL_Driver/Src/stm32h7xx_ll_usb.c ****     {
 371              		.loc 1 194 34 is_stmt 0 view .LVU111
 372 006a 1C4B     		ldr	r3, .L33+64
 373 006c 0B44     		add	r3, r3, r1
 194:Drivers/STM32H7xx_HAL_Driver/Src/stm32h7xx_ll_usb.c ****     {
 374              		.loc 1 194 13 view .LVU112
 375 006e 1C4A     		ldr	r2, .L33+68
 376 0070 9342     		cmp	r3, r2
 377 0072 11D2     		bcs	.L31
 197:Drivers/STM32H7xx_HAL_Driver/Src/stm32h7xx_ll_usb.c ****     }
 378              		.loc 1 197 14 view .LVU113
 379 0074 0721     		movs	r1, #7
 380              	.LVL23:
 197:Drivers/STM32H7xx_HAL_Driver/Src/stm32h7xx_ll_usb.c ****     }
 381              		.loc 1 197 14 view .LVU114
 382 0076 C6E7     		b	.L21
 383              	.LVL24:
 384              	.L23:
 157:Drivers/STM32H7xx_HAL_Driver/Src/stm32h7xx_ll_usb.c ****     }
ARM GAS  /var/folders/26/q55yrwgs1ql1lprjdslmzz800000gn/T//ccC08pEc.s 			page 33


 385              		.loc 1 157 14 view .LVU115
 386 0078 0F21     		movs	r1, #15
 387              	.LVL25:
 157:Drivers/STM32H7xx_HAL_Driver/Src/stm32h7xx_ll_usb.c ****     }
 388              		.loc 1 157 14 view .LVU116
 389 007a C4E7     		b	.L21
 390              	.LVL26:
 391              	.L24:
 162:Drivers/STM32H7xx_HAL_Driver/Src/stm32h7xx_ll_usb.c ****     }
 392              		.loc 1 162 14 view .LVU117
 393 007c 0E21     		movs	r1, #14
 394              	.LVL27:
 162:Drivers/STM32H7xx_HAL_Driver/Src/stm32h7xx_ll_usb.c ****     }
 395              		.loc 1 162 14 view .LVU118
 396 007e C2E7     		b	.L21
 397              	.LVL28:
 398              	.L25:
 167:Drivers/STM32H7xx_HAL_Driver/Src/stm32h7xx_ll_usb.c ****     }
 399              		.loc 1 167 14 view .LVU119
 400 0080 0D21     		movs	r1, #13
 401              	.LVL29:
 167:Drivers/STM32H7xx_HAL_Driver/Src/stm32h7xx_ll_usb.c ****     }
 402              		.loc 1 167 14 view .LVU120
 403 0082 C0E7     		b	.L21
 404              	.LVL30:
 405              	.L26:
 172:Drivers/STM32H7xx_HAL_Driver/Src/stm32h7xx_ll_usb.c ****     }
 406              		.loc 1 172 14 view .LVU121
 407 0084 0C21     		movs	r1, #12
 408              	.LVL31:
 172:Drivers/STM32H7xx_HAL_Driver/Src/stm32h7xx_ll_usb.c ****     }
 409              		.loc 1 172 14 view .LVU122
 410 0086 BEE7     		b	.L21
 411              	.LVL32:
 412              	.L27:
 177:Drivers/STM32H7xx_HAL_Driver/Src/stm32h7xx_ll_usb.c ****     }
 413              		.loc 1 177 14 view .LVU123
 414 0088 0B21     		movs	r1, #11
 415              	.LVL33:
 177:Drivers/STM32H7xx_HAL_Driver/Src/stm32h7xx_ll_usb.c ****     }
 416              		.loc 1 177 14 view .LVU124
 417 008a BCE7     		b	.L21
 418              	.LVL34:
 419              	.L28:
 182:Drivers/STM32H7xx_HAL_Driver/Src/stm32h7xx_ll_usb.c ****     }
 420              		.loc 1 182 14 view .LVU125
 421 008c 0A21     		movs	r1, #10
 422              	.LVL35:
 182:Drivers/STM32H7xx_HAL_Driver/Src/stm32h7xx_ll_usb.c ****     }
 423              		.loc 1 182 14 view .LVU126
 424 008e BAE7     		b	.L21
 425              	.LVL36:
 426              	.L29:
 187:Drivers/STM32H7xx_HAL_Driver/Src/stm32h7xx_ll_usb.c ****     }
 427              		.loc 1 187 14 view .LVU127
 428 0090 0921     		movs	r1, #9
 429              	.LVL37:
ARM GAS  /var/folders/26/q55yrwgs1ql1lprjdslmzz800000gn/T//ccC08pEc.s 			page 34


 187:Drivers/STM32H7xx_HAL_Driver/Src/stm32h7xx_ll_usb.c ****     }
 430              		.loc 1 187 14 view .LVU128
 431 0092 B8E7     		b	.L21
 432              	.LVL38:
 433              	.L30:
 192:Drivers/STM32H7xx_HAL_Driver/Src/stm32h7xx_ll_usb.c ****     }
 434              		.loc 1 192 14 view .LVU129
 435 0094 0821     		movs	r1, #8
 436              	.LVL39:
 192:Drivers/STM32H7xx_HAL_Driver/Src/stm32h7xx_ll_usb.c ****     }
 437              		.loc 1 192 14 view .LVU130
 438 0096 B6E7     		b	.L21
 439              	.LVL40:
 440              	.L31:
 202:Drivers/STM32H7xx_HAL_Driver/Src/stm32h7xx_ll_usb.c ****     }
 441              		.loc 1 202 14 view .LVU131
 442 0098 0621     		movs	r1, #6
 443              	.LVL41:
 202:Drivers/STM32H7xx_HAL_Driver/Src/stm32h7xx_ll_usb.c ****     }
 444              		.loc 1 202 14 view .LVU132
 445 009a B4E7     		b	.L21
 446              	.L34:
 447              		.align	2
 448              	.L33:
 449 009c 405327FF 		.word	-14200000
 450 00a0 FF340C00 		.word	799999
 451 00a4 401E1BFF 		.word	-15000000
 452 00a8 3F420F00 		.word	999999
 453 00ac 00DC0BFF 		.word	-16000000
 454 00b0 7F4F1200 		.word	1199999
 455 00b4 808CF9FE 		.word	-17200000
 456 00b8 20D61300 		.word	1300000
 457 00bc 60B6E5FE 		.word	-18500000
 458 00c0 5FE31600 		.word	1499999
 459 00c4 00D3CEFE 		.word	-20000000
 460 00c8 40771B00 		.word	1800000
 461 00cc C05BB3FE 		.word	-21800000
 462 00d0 C0912100 		.word	2200000
 463 00d4 00CA91FE 		.word	-24000000
 464 00d8 20753800 		.word	3700000
 465 00dc E05459FE 		.word	-27700000
 466 00e0 E09C4100 		.word	4300000
 467              		.cfi_endproc
 468              	.LFE145:
 470              		.section	.text.USB_EnableGlobalInt,"ax",%progbits
 471              		.align	1
 472              		.global	USB_EnableGlobalInt
 473              		.syntax unified
 474              		.thumb
 475              		.thumb_func
 477              	USB_EnableGlobalInt:
 478              	.LVL42:
 479              	.LFB146:
 227:Drivers/STM32H7xx_HAL_Driver/Src/stm32h7xx_ll_usb.c ****   USBx->GAHBCFG |= USB_OTG_GAHBCFG_GINT;
 480              		.loc 1 227 1 is_stmt 1 view -0
 481              		.cfi_startproc
 482              		@ args = 0, pretend = 0, frame = 0
ARM GAS  /var/folders/26/q55yrwgs1ql1lprjdslmzz800000gn/T//ccC08pEc.s 			page 35


 483              		@ frame_needed = 0, uses_anonymous_args = 0
 484              		@ link register save eliminated.
 228:Drivers/STM32H7xx_HAL_Driver/Src/stm32h7xx_ll_usb.c ****   return HAL_OK;
 485              		.loc 1 228 3 view .LVU134
 228:Drivers/STM32H7xx_HAL_Driver/Src/stm32h7xx_ll_usb.c ****   return HAL_OK;
 486              		.loc 1 228 17 is_stmt 0 view .LVU135
 487 0000 8368     		ldr	r3, [r0, #8]
 488 0002 43F00103 		orr	r3, r3, #1
 489 0006 8360     		str	r3, [r0, #8]
 229:Drivers/STM32H7xx_HAL_Driver/Src/stm32h7xx_ll_usb.c **** }
 490              		.loc 1 229 3 is_stmt 1 view .LVU136
 230:Drivers/STM32H7xx_HAL_Driver/Src/stm32h7xx_ll_usb.c **** 
 491              		.loc 1 230 1 is_stmt 0 view .LVU137
 492 0008 0020     		movs	r0, #0
 493              	.LVL43:
 230:Drivers/STM32H7xx_HAL_Driver/Src/stm32h7xx_ll_usb.c **** 
 494              		.loc 1 230 1 view .LVU138
 495 000a 7047     		bx	lr
 496              		.cfi_endproc
 497              	.LFE146:
 499              		.section	.text.USB_DisableGlobalInt,"ax",%progbits
 500              		.align	1
 501              		.global	USB_DisableGlobalInt
 502              		.syntax unified
 503              		.thumb
 504              		.thumb_func
 506              	USB_DisableGlobalInt:
 507              	.LVL44:
 508              	.LFB147:
 239:Drivers/STM32H7xx_HAL_Driver/Src/stm32h7xx_ll_usb.c ****   USBx->GAHBCFG &= ~USB_OTG_GAHBCFG_GINT;
 509              		.loc 1 239 1 is_stmt 1 view -0
 510              		.cfi_startproc
 511              		@ args = 0, pretend = 0, frame = 0
 512              		@ frame_needed = 0, uses_anonymous_args = 0
 513              		@ link register save eliminated.
 240:Drivers/STM32H7xx_HAL_Driver/Src/stm32h7xx_ll_usb.c ****   return HAL_OK;
 514              		.loc 1 240 3 view .LVU140
 240:Drivers/STM32H7xx_HAL_Driver/Src/stm32h7xx_ll_usb.c ****   return HAL_OK;
 515              		.loc 1 240 17 is_stmt 0 view .LVU141
 516 0000 8368     		ldr	r3, [r0, #8]
 517 0002 23F00103 		bic	r3, r3, #1
 518 0006 8360     		str	r3, [r0, #8]
 241:Drivers/STM32H7xx_HAL_Driver/Src/stm32h7xx_ll_usb.c **** }
 519              		.loc 1 241 3 is_stmt 1 view .LVU142
 242:Drivers/STM32H7xx_HAL_Driver/Src/stm32h7xx_ll_usb.c **** 
 520              		.loc 1 242 1 is_stmt 0 view .LVU143
 521 0008 0020     		movs	r0, #0
 522              	.LVL45:
 242:Drivers/STM32H7xx_HAL_Driver/Src/stm32h7xx_ll_usb.c **** 
 523              		.loc 1 242 1 view .LVU144
 524 000a 7047     		bx	lr
 525              		.cfi_endproc
 526              	.LFE147:
 528              		.section	.text.USB_SetCurrentMode,"ax",%progbits
 529              		.align	1
 530              		.global	USB_SetCurrentMode
 531              		.syntax unified
ARM GAS  /var/folders/26/q55yrwgs1ql1lprjdslmzz800000gn/T//ccC08pEc.s 			page 36


 532              		.thumb
 533              		.thumb_func
 535              	USB_SetCurrentMode:
 536              	.LVL46:
 537              	.LFB148:
 254:Drivers/STM32H7xx_HAL_Driver/Src/stm32h7xx_ll_usb.c ****   USBx->GUSBCFG &= ~(USB_OTG_GUSBCFG_FHMOD | USB_OTG_GUSBCFG_FDMOD);
 538              		.loc 1 254 1 is_stmt 1 view -0
 539              		.cfi_startproc
 540              		@ args = 0, pretend = 0, frame = 0
 541              		@ frame_needed = 0, uses_anonymous_args = 0
 254:Drivers/STM32H7xx_HAL_Driver/Src/stm32h7xx_ll_usb.c ****   USBx->GUSBCFG &= ~(USB_OTG_GUSBCFG_FHMOD | USB_OTG_GUSBCFG_FDMOD);
 542              		.loc 1 254 1 is_stmt 0 view .LVU146
 543 0000 08B5     		push	{r3, lr}
 544              	.LCFI5:
 545              		.cfi_def_cfa_offset 8
 546              		.cfi_offset 3, -8
 547              		.cfi_offset 14, -4
 255:Drivers/STM32H7xx_HAL_Driver/Src/stm32h7xx_ll_usb.c **** 
 548              		.loc 1 255 3 is_stmt 1 view .LVU147
 255:Drivers/STM32H7xx_HAL_Driver/Src/stm32h7xx_ll_usb.c **** 
 549              		.loc 1 255 17 is_stmt 0 view .LVU148
 550 0002 C368     		ldr	r3, [r0, #12]
 551 0004 23F0C043 		bic	r3, r3, #1610612736
 552 0008 C360     		str	r3, [r0, #12]
 257:Drivers/STM32H7xx_HAL_Driver/Src/stm32h7xx_ll_usb.c ****   {
 553              		.loc 1 257 3 is_stmt 1 view .LVU149
 257:Drivers/STM32H7xx_HAL_Driver/Src/stm32h7xx_ll_usb.c ****   {
 554              		.loc 1 257 6 is_stmt 0 view .LVU150
 555 000a 0129     		cmp	r1, #1
 556 000c 09D0     		beq	.L43
 261:Drivers/STM32H7xx_HAL_Driver/Src/stm32h7xx_ll_usb.c ****   {
 557              		.loc 1 261 8 is_stmt 1 view .LVU151
 261:Drivers/STM32H7xx_HAL_Driver/Src/stm32h7xx_ll_usb.c ****   {
 558              		.loc 1 261 11 is_stmt 0 view .LVU152
 559 000e 69B9     		cbnz	r1, .L41
 263:Drivers/STM32H7xx_HAL_Driver/Src/stm32h7xx_ll_usb.c ****   }
 560              		.loc 1 263 5 is_stmt 1 view .LVU153
 263:Drivers/STM32H7xx_HAL_Driver/Src/stm32h7xx_ll_usb.c ****   }
 561              		.loc 1 263 19 is_stmt 0 view .LVU154
 562 0010 C368     		ldr	r3, [r0, #12]
 563 0012 43F08043 		orr	r3, r3, #1073741824
 564 0016 C360     		str	r3, [r0, #12]
 565              	.L39:
 269:Drivers/STM32H7xx_HAL_Driver/Src/stm32h7xx_ll_usb.c **** 
 566              		.loc 1 269 3 is_stmt 1 view .LVU155
 567 0018 3220     		movs	r0, #50
 568              	.LVL47:
 269:Drivers/STM32H7xx_HAL_Driver/Src/stm32h7xx_ll_usb.c **** 
 569              		.loc 1 269 3 is_stmt 0 view .LVU156
 570 001a FFF7FEFF 		bl	HAL_Delay
 571              	.LVL48:
 271:Drivers/STM32H7xx_HAL_Driver/Src/stm32h7xx_ll_usb.c **** }
 572              		.loc 1 271 3 is_stmt 1 view .LVU157
 271:Drivers/STM32H7xx_HAL_Driver/Src/stm32h7xx_ll_usb.c **** }
 573              		.loc 1 271 10 is_stmt 0 view .LVU158
 574 001e 0020     		movs	r0, #0
 575              	.L40:
ARM GAS  /var/folders/26/q55yrwgs1ql1lprjdslmzz800000gn/T//ccC08pEc.s 			page 37


 272:Drivers/STM32H7xx_HAL_Driver/Src/stm32h7xx_ll_usb.c **** 
 576              		.loc 1 272 1 view .LVU159
 577 0020 08BD     		pop	{r3, pc}
 578              	.LVL49:
 579              	.L43:
 259:Drivers/STM32H7xx_HAL_Driver/Src/stm32h7xx_ll_usb.c ****   }
 580              		.loc 1 259 5 is_stmt 1 view .LVU160
 259:Drivers/STM32H7xx_HAL_Driver/Src/stm32h7xx_ll_usb.c ****   }
 581              		.loc 1 259 19 is_stmt 0 view .LVU161
 582 0022 C368     		ldr	r3, [r0, #12]
 583 0024 43F00053 		orr	r3, r3, #536870912
 584 0028 C360     		str	r3, [r0, #12]
 585 002a F5E7     		b	.L39
 586              	.L41:
 267:Drivers/STM32H7xx_HAL_Driver/Src/stm32h7xx_ll_usb.c ****   }
 587              		.loc 1 267 12 view .LVU162
 588 002c 0120     		movs	r0, #1
 589              	.LVL50:
 267:Drivers/STM32H7xx_HAL_Driver/Src/stm32h7xx_ll_usb.c ****   }
 590              		.loc 1 267 12 view .LVU163
 591 002e F7E7     		b	.L40
 592              		.cfi_endproc
 593              	.LFE148:
 595              		.section	.text.USB_FlushTxFifo,"ax",%progbits
 596              		.align	1
 597              		.global	USB_FlushTxFifo
 598              		.syntax unified
 599              		.thumb
 600              		.thumb_func
 602              	USB_FlushTxFifo:
 603              	.LVL51:
 604              	.LFB150:
 438:Drivers/STM32H7xx_HAL_Driver/Src/stm32h7xx_ll_usb.c ****   uint32_t count = 0U;
 605              		.loc 1 438 1 is_stmt 1 view -0
 606              		.cfi_startproc
 607              		@ args = 0, pretend = 0, frame = 0
 608              		@ frame_needed = 0, uses_anonymous_args = 0
 609              		@ link register save eliminated.
 439:Drivers/STM32H7xx_HAL_Driver/Src/stm32h7xx_ll_usb.c **** 
 610              		.loc 1 439 3 view .LVU165
 441:Drivers/STM32H7xx_HAL_Driver/Src/stm32h7xx_ll_usb.c **** 
 611              		.loc 1 441 3 view .LVU166
 441:Drivers/STM32H7xx_HAL_Driver/Src/stm32h7xx_ll_usb.c **** 
 612              		.loc 1 441 51 is_stmt 0 view .LVU167
 613 0000 8901     		lsls	r1, r1, #6
 614              	.LVL52:
 441:Drivers/STM32H7xx_HAL_Driver/Src/stm32h7xx_ll_usb.c **** 
 615              		.loc 1 441 44 view .LVU168
 616 0002 41F02001 		orr	r1, r1, #32
 441:Drivers/STM32H7xx_HAL_Driver/Src/stm32h7xx_ll_usb.c **** 
 617              		.loc 1 441 17 view .LVU169
 618 0006 0161     		str	r1, [r0, #16]
 439:Drivers/STM32H7xx_HAL_Driver/Src/stm32h7xx_ll_usb.c **** 
 619              		.loc 1 439 12 view .LVU170
 620 0008 0023     		movs	r3, #0
 621              	.LVL53:
 622              	.L46:
ARM GAS  /var/folders/26/q55yrwgs1ql1lprjdslmzz800000gn/T//ccC08pEc.s 			page 38


 443:Drivers/STM32H7xx_HAL_Driver/Src/stm32h7xx_ll_usb.c ****   {
 623              		.loc 1 443 3 is_stmt 1 view .LVU171
 445:Drivers/STM32H7xx_HAL_Driver/Src/stm32h7xx_ll_usb.c ****     {
 624              		.loc 1 445 5 view .LVU172
 445:Drivers/STM32H7xx_HAL_Driver/Src/stm32h7xx_ll_usb.c ****     {
 625              		.loc 1 445 8 is_stmt 0 view .LVU173
 626 000a 0133     		adds	r3, r3, #1
 627              	.LVL54:
 445:Drivers/STM32H7xx_HAL_Driver/Src/stm32h7xx_ll_usb.c ****     {
 628              		.loc 1 445 8 view .LVU174
 629 000c 054A     		ldr	r2, .L48
 630 000e 9342     		cmp	r3, r2
 631 0010 05D8     		bhi	.L47
 449:Drivers/STM32H7xx_HAL_Driver/Src/stm32h7xx_ll_usb.c **** 
 632              		.loc 1 449 11 is_stmt 1 view .LVU175
 449:Drivers/STM32H7xx_HAL_Driver/Src/stm32h7xx_ll_usb.c **** 
 633              		.loc 1 449 17 is_stmt 0 view .LVU176
 634 0012 0269     		ldr	r2, [r0, #16]
 449:Drivers/STM32H7xx_HAL_Driver/Src/stm32h7xx_ll_usb.c **** 
 635              		.loc 1 449 3 view .LVU177
 636 0014 12F0200F 		tst	r2, #32
 637 0018 F7D1     		bne	.L46
 451:Drivers/STM32H7xx_HAL_Driver/Src/stm32h7xx_ll_usb.c **** }
 638              		.loc 1 451 10 view .LVU178
 639 001a 0020     		movs	r0, #0
 640              	.LVL55:
 451:Drivers/STM32H7xx_HAL_Driver/Src/stm32h7xx_ll_usb.c **** }
 641              		.loc 1 451 10 view .LVU179
 642 001c 7047     		bx	lr
 643              	.LVL56:
 644              	.L47:
 447:Drivers/STM32H7xx_HAL_Driver/Src/stm32h7xx_ll_usb.c ****     }
 645              		.loc 1 447 14 view .LVU180
 646 001e 0320     		movs	r0, #3
 647              	.LVL57:
 452:Drivers/STM32H7xx_HAL_Driver/Src/stm32h7xx_ll_usb.c **** 
 648              		.loc 1 452 1 view .LVU181
 649 0020 7047     		bx	lr
 650              	.L49:
 651 0022 00BF     		.align	2
 652              	.L48:
 653 0024 400D0300 		.word	200000
 654              		.cfi_endproc
 655              	.LFE150:
 657              		.section	.text.USB_FlushRxFifo,"ax",%progbits
 658              		.align	1
 659              		.global	USB_FlushRxFifo
 660              		.syntax unified
 661              		.thumb
 662              		.thumb_func
 664              	USB_FlushRxFifo:
 665              	.LVL58:
 666              	.LFB151:
 460:Drivers/STM32H7xx_HAL_Driver/Src/stm32h7xx_ll_usb.c ****   uint32_t count = 0;
 667              		.loc 1 460 1 is_stmt 1 view -0
 668              		.cfi_startproc
 669              		@ args = 0, pretend = 0, frame = 0
ARM GAS  /var/folders/26/q55yrwgs1ql1lprjdslmzz800000gn/T//ccC08pEc.s 			page 39


 670              		@ frame_needed = 0, uses_anonymous_args = 0
 671              		@ link register save eliminated.
 461:Drivers/STM32H7xx_HAL_Driver/Src/stm32h7xx_ll_usb.c **** 
 672              		.loc 1 461 3 view .LVU183
 463:Drivers/STM32H7xx_HAL_Driver/Src/stm32h7xx_ll_usb.c **** 
 673              		.loc 1 463 3 view .LVU184
 463:Drivers/STM32H7xx_HAL_Driver/Src/stm32h7xx_ll_usb.c **** 
 674              		.loc 1 463 17 is_stmt 0 view .LVU185
 675 0000 1023     		movs	r3, #16
 676 0002 0361     		str	r3, [r0, #16]
 461:Drivers/STM32H7xx_HAL_Driver/Src/stm32h7xx_ll_usb.c **** 
 677              		.loc 1 461 12 view .LVU186
 678 0004 0023     		movs	r3, #0
 679              	.LVL59:
 680              	.L52:
 465:Drivers/STM32H7xx_HAL_Driver/Src/stm32h7xx_ll_usb.c ****   {
 681              		.loc 1 465 3 is_stmt 1 view .LVU187
 467:Drivers/STM32H7xx_HAL_Driver/Src/stm32h7xx_ll_usb.c ****     {
 682              		.loc 1 467 5 view .LVU188
 467:Drivers/STM32H7xx_HAL_Driver/Src/stm32h7xx_ll_usb.c ****     {
 683              		.loc 1 467 8 is_stmt 0 view .LVU189
 684 0006 0133     		adds	r3, r3, #1
 685              	.LVL60:
 467:Drivers/STM32H7xx_HAL_Driver/Src/stm32h7xx_ll_usb.c ****     {
 686              		.loc 1 467 8 view .LVU190
 687 0008 054A     		ldr	r2, .L54
 688 000a 9342     		cmp	r3, r2
 689 000c 05D8     		bhi	.L53
 471:Drivers/STM32H7xx_HAL_Driver/Src/stm32h7xx_ll_usb.c **** 
 690              		.loc 1 471 11 is_stmt 1 view .LVU191
 471:Drivers/STM32H7xx_HAL_Driver/Src/stm32h7xx_ll_usb.c **** 
 691              		.loc 1 471 17 is_stmt 0 view .LVU192
 692 000e 0269     		ldr	r2, [r0, #16]
 471:Drivers/STM32H7xx_HAL_Driver/Src/stm32h7xx_ll_usb.c **** 
 693              		.loc 1 471 3 view .LVU193
 694 0010 12F0100F 		tst	r2, #16
 695 0014 F7D1     		bne	.L52
 473:Drivers/STM32H7xx_HAL_Driver/Src/stm32h7xx_ll_usb.c **** }
 696              		.loc 1 473 10 view .LVU194
 697 0016 0020     		movs	r0, #0
 698              	.LVL61:
 473:Drivers/STM32H7xx_HAL_Driver/Src/stm32h7xx_ll_usb.c **** }
 699              		.loc 1 473 10 view .LVU195
 700 0018 7047     		bx	lr
 701              	.LVL62:
 702              	.L53:
 469:Drivers/STM32H7xx_HAL_Driver/Src/stm32h7xx_ll_usb.c ****     }
 703              		.loc 1 469 14 view .LVU196
 704 001a 0320     		movs	r0, #3
 705              	.LVL63:
 474:Drivers/STM32H7xx_HAL_Driver/Src/stm32h7xx_ll_usb.c **** 
 706              		.loc 1 474 1 view .LVU197
 707 001c 7047     		bx	lr
 708              	.L55:
 709 001e 00BF     		.align	2
 710              	.L54:
 711 0020 400D0300 		.word	200000
ARM GAS  /var/folders/26/q55yrwgs1ql1lprjdslmzz800000gn/T//ccC08pEc.s 			page 40


 712              		.cfi_endproc
 713              	.LFE151:
 715              		.section	.text.USB_SetDevSpeed,"ax",%progbits
 716              		.align	1
 717              		.global	USB_SetDevSpeed
 718              		.syntax unified
 719              		.thumb
 720              		.thumb_func
 722              	USB_SetDevSpeed:
 723              	.LVL64:
 724              	.LFB152:
 488:Drivers/STM32H7xx_HAL_Driver/Src/stm32h7xx_ll_usb.c ****   uint32_t USBx_BASE = (uint32_t)USBx;
 725              		.loc 1 488 1 is_stmt 1 view -0
 726              		.cfi_startproc
 727              		@ args = 0, pretend = 0, frame = 0
 728              		@ frame_needed = 0, uses_anonymous_args = 0
 729              		@ link register save eliminated.
 489:Drivers/STM32H7xx_HAL_Driver/Src/stm32h7xx_ll_usb.c **** 
 730              		.loc 1 489 3 view .LVU199
 491:Drivers/STM32H7xx_HAL_Driver/Src/stm32h7xx_ll_usb.c ****   return HAL_OK;
 731              		.loc 1 491 3 view .LVU200
 491:Drivers/STM32H7xx_HAL_Driver/Src/stm32h7xx_ll_usb.c ****   return HAL_OK;
 732              		.loc 1 491 21 is_stmt 0 view .LVU201
 733 0000 D0F80038 		ldr	r3, [r0, #2048]
 734 0004 1943     		orrs	r1, r1, r3
 735              	.LVL65:
 491:Drivers/STM32H7xx_HAL_Driver/Src/stm32h7xx_ll_usb.c ****   return HAL_OK;
 736              		.loc 1 491 21 view .LVU202
 737 0006 C0F80018 		str	r1, [r0, #2048]
 492:Drivers/STM32H7xx_HAL_Driver/Src/stm32h7xx_ll_usb.c **** }
 738              		.loc 1 492 3 is_stmt 1 view .LVU203
 493:Drivers/STM32H7xx_HAL_Driver/Src/stm32h7xx_ll_usb.c **** 
 739              		.loc 1 493 1 is_stmt 0 view .LVU204
 740 000a 0020     		movs	r0, #0
 741              	.LVL66:
 493:Drivers/STM32H7xx_HAL_Driver/Src/stm32h7xx_ll_usb.c **** 
 742              		.loc 1 493 1 view .LVU205
 743 000c 7047     		bx	lr
 744              		.cfi_endproc
 745              	.LFE152:
 747              		.section	.text.USB_DevInit,"ax",%progbits
 748              		.align	1
 749              		.global	USB_DevInit
 750              		.syntax unified
 751              		.thumb
 752              		.thumb_func
 754              	USB_DevInit:
 755              	.LVL67:
 756              	.LFB149:
 283:Drivers/STM32H7xx_HAL_Driver/Src/stm32h7xx_ll_usb.c ****   HAL_StatusTypeDef ret = HAL_OK;
 757              		.loc 1 283 1 is_stmt 1 view -0
 758              		.cfi_startproc
 759              		@ args = 56, pretend = 16, frame = 0
 760              		@ frame_needed = 0, uses_anonymous_args = 0
 283:Drivers/STM32H7xx_HAL_Driver/Src/stm32h7xx_ll_usb.c ****   HAL_StatusTypeDef ret = HAL_OK;
 761              		.loc 1 283 1 is_stmt 0 view .LVU207
 762 0000 84B0     		sub	sp, sp, #16
ARM GAS  /var/folders/26/q55yrwgs1ql1lprjdslmzz800000gn/T//ccC08pEc.s 			page 41


 763              	.LCFI6:
 764              		.cfi_def_cfa_offset 16
 765 0002 2DE9F041 		push	{r4, r5, r6, r7, r8, lr}
 766              	.LCFI7:
 767              		.cfi_def_cfa_offset 40
 768              		.cfi_offset 4, -40
 769              		.cfi_offset 5, -36
 770              		.cfi_offset 6, -32
 771              		.cfi_offset 7, -28
 772              		.cfi_offset 8, -24
 773              		.cfi_offset 14, -20
 774 0006 0446     		mov	r4, r0
 775 0008 07A8     		add	r0, sp, #28
 776 000a 80E80E00 		stm	r0, {r1, r2, r3}
 284:Drivers/STM32H7xx_HAL_Driver/Src/stm32h7xx_ll_usb.c ****   uint32_t USBx_BASE = (uint32_t)USBx;
 777              		.loc 1 284 3 is_stmt 1 view .LVU208
 778              	.LVL68:
 285:Drivers/STM32H7xx_HAL_Driver/Src/stm32h7xx_ll_usb.c ****   uint32_t i;
 779              		.loc 1 285 3 view .LVU209
 286:Drivers/STM32H7xx_HAL_Driver/Src/stm32h7xx_ll_usb.c **** 
 780              		.loc 1 286 3 view .LVU210
 288:Drivers/STM32H7xx_HAL_Driver/Src/stm32h7xx_ll_usb.c ****   {
 781              		.loc 1 288 3 view .LVU211
 288:Drivers/STM32H7xx_HAL_Driver/Src/stm32h7xx_ll_usb.c ****   {
 782              		.loc 1 288 10 is_stmt 0 view .LVU212
 783 000e 0023     		movs	r3, #0
 288:Drivers/STM32H7xx_HAL_Driver/Src/stm32h7xx_ll_usb.c ****   {
 784              		.loc 1 288 3 view .LVU213
 785 0010 06E0     		b	.L58
 786              	.LVL69:
 787              	.L59:
 290:Drivers/STM32H7xx_HAL_Driver/Src/stm32h7xx_ll_usb.c ****   }
 788              		.loc 1 290 5 is_stmt 1 discriminator 3 view .LVU214
 290:Drivers/STM32H7xx_HAL_Driver/Src/stm32h7xx_ll_usb.c ****   }
 789              		.loc 1 290 22 is_stmt 0 discriminator 3 view .LVU215
 790 0012 03F14002 		add	r2, r3, #64
 791 0016 04EB8202 		add	r2, r4, r2, lsl #2
 792 001a 0021     		movs	r1, #0
 793 001c 5160     		str	r1, [r2, #4]
 288:Drivers/STM32H7xx_HAL_Driver/Src/stm32h7xx_ll_usb.c ****   {
 794              		.loc 1 288 25 is_stmt 1 discriminator 3 view .LVU216
 288:Drivers/STM32H7xx_HAL_Driver/Src/stm32h7xx_ll_usb.c ****   {
 795              		.loc 1 288 26 is_stmt 0 discriminator 3 view .LVU217
 796 001e 0133     		adds	r3, r3, #1
 797              	.LVL70:
 798              	.L58:
 288:Drivers/STM32H7xx_HAL_Driver/Src/stm32h7xx_ll_usb.c ****   {
 799              		.loc 1 288 16 is_stmt 1 discriminator 1 view .LVU218
 288:Drivers/STM32H7xx_HAL_Driver/Src/stm32h7xx_ll_usb.c ****   {
 800              		.loc 1 288 3 is_stmt 0 discriminator 1 view .LVU219
 801 0020 0E2B     		cmp	r3, #14
 802 0022 F6D9     		bls	.L59
 294:Drivers/STM32H7xx_HAL_Driver/Src/stm32h7xx_ll_usb.c ****   {
 803              		.loc 1 294 3 is_stmt 1 view .LVU220
 294:Drivers/STM32H7xx_HAL_Driver/Src/stm32h7xx_ll_usb.c ****   {
 804              		.loc 1 294 10 is_stmt 0 view .LVU221
 805 0024 119F     		ldr	r7, [sp, #68]
ARM GAS  /var/folders/26/q55yrwgs1ql1lprjdslmzz800000gn/T//ccC08pEc.s 			page 42


 294:Drivers/STM32H7xx_HAL_Driver/Src/stm32h7xx_ll_usb.c ****   {
 806              		.loc 1 294 6 view .LVU222
 807 0026 27BB     		cbnz	r7, .L60
 296:Drivers/STM32H7xx_HAL_Driver/Src/stm32h7xx_ll_usb.c **** 
 808              		.loc 1 296 5 is_stmt 1 view .LVU223
 296:Drivers/STM32H7xx_HAL_Driver/Src/stm32h7xx_ll_usb.c **** 
 809              		.loc 1 296 23 is_stmt 0 view .LVU224
 810 0028 D4F80438 		ldr	r3, [r4, #2052]
 811              	.LVL71:
 296:Drivers/STM32H7xx_HAL_Driver/Src/stm32h7xx_ll_usb.c **** 
 812              		.loc 1 296 23 view .LVU225
 813 002c 43F00203 		orr	r3, r3, #2
 814 0030 C4F80438 		str	r3, [r4, #2052]
 299:Drivers/STM32H7xx_HAL_Driver/Src/stm32h7xx_ll_usb.c **** 
 815              		.loc 1 299 5 is_stmt 1 view .LVU226
 299:Drivers/STM32H7xx_HAL_Driver/Src/stm32h7xx_ll_usb.c **** 
 816              		.loc 1 299 17 is_stmt 0 view .LVU227
 817 0034 A36B     		ldr	r3, [r4, #56]
 818 0036 23F40013 		bic	r3, r3, #2097152
 819 003a A363     		str	r3, [r4, #56]
 302:Drivers/STM32H7xx_HAL_Driver/Src/stm32h7xx_ll_usb.c ****     USBx->GOTGCTL |= USB_OTG_GOTGCTL_BVALOVAL;
 820              		.loc 1 302 5 is_stmt 1 view .LVU228
 302:Drivers/STM32H7xx_HAL_Driver/Src/stm32h7xx_ll_usb.c ****     USBx->GOTGCTL |= USB_OTG_GOTGCTL_BVALOVAL;
 821              		.loc 1 302 19 is_stmt 0 view .LVU229
 822 003c 2368     		ldr	r3, [r4]
 823 003e 43F04003 		orr	r3, r3, #64
 824 0042 2360     		str	r3, [r4]
 303:Drivers/STM32H7xx_HAL_Driver/Src/stm32h7xx_ll_usb.c ****   }
 825              		.loc 1 303 5 is_stmt 1 view .LVU230
 303:Drivers/STM32H7xx_HAL_Driver/Src/stm32h7xx_ll_usb.c ****   }
 826              		.loc 1 303 19 is_stmt 0 view .LVU231
 827 0044 2368     		ldr	r3, [r4]
 828 0046 43F08003 		orr	r3, r3, #128
 829 004a 2360     		str	r3, [r4]
 830              	.L61:
 312:Drivers/STM32H7xx_HAL_Driver/Src/stm32h7xx_ll_usb.c **** 
 831              		.loc 1 312 3 is_stmt 1 view .LVU232
 312:Drivers/STM32H7xx_HAL_Driver/Src/stm32h7xx_ll_usb.c **** 
 832              		.loc 1 312 16 is_stmt 0 view .LVU233
 833 004c 0023     		movs	r3, #0
 834 004e C4F8003E 		str	r3, [r4, #3584]
 315:Drivers/STM32H7xx_HAL_Driver/Src/stm32h7xx_ll_usb.c **** 
 835              		.loc 1 315 3 is_stmt 1 view .LVU234
 315:Drivers/STM32H7xx_HAL_Driver/Src/stm32h7xx_ll_usb.c **** 
 836              		.loc 1 315 21 is_stmt 0 view .LVU235
 837 0052 04F50065 		add	r5, r4, #2048
 838 0056 D4F80038 		ldr	r3, [r4, #2048]
 839 005a C4F80038 		str	r3, [r4, #2048]
 317:Drivers/STM32H7xx_HAL_Driver/Src/stm32h7xx_ll_usb.c ****   {
 840              		.loc 1 317 3 is_stmt 1 view .LVU236
 317:Drivers/STM32H7xx_HAL_Driver/Src/stm32h7xx_ll_usb.c ****   {
 841              		.loc 1 317 10 is_stmt 0 view .LVU237
 842 005e 0C9B     		ldr	r3, [sp, #48]
 317:Drivers/STM32H7xx_HAL_Driver/Src/stm32h7xx_ll_usb.c ****   {
 843              		.loc 1 317 6 view .LVU238
 844 0060 012B     		cmp	r3, #1
 845 0062 10D1     		bne	.L62
ARM GAS  /var/folders/26/q55yrwgs1ql1lprjdslmzz800000gn/T//ccC08pEc.s 			page 43


 319:Drivers/STM32H7xx_HAL_Driver/Src/stm32h7xx_ll_usb.c ****     {
 846              		.loc 1 319 5 is_stmt 1 view .LVU239
 319:Drivers/STM32H7xx_HAL_Driver/Src/stm32h7xx_ll_usb.c ****     {
 847              		.loc 1 319 12 is_stmt 0 view .LVU240
 848 0064 099B     		ldr	r3, [sp, #36]
 319:Drivers/STM32H7xx_HAL_Driver/Src/stm32h7xx_ll_usb.c ****     {
 849              		.loc 1 319 8 view .LVU241
 850 0066 4BB9     		cbnz	r3, .L63
 322:Drivers/STM32H7xx_HAL_Driver/Src/stm32h7xx_ll_usb.c ****     }
 851              		.loc 1 322 7 is_stmt 1 view .LVU242
 322:Drivers/STM32H7xx_HAL_Driver/Src/stm32h7xx_ll_usb.c ****     }
 852              		.loc 1 322 13 is_stmt 0 view .LVU243
 853 0068 0021     		movs	r1, #0
 854 006a 2046     		mov	r0, r4
 855              	.LVL72:
 322:Drivers/STM32H7xx_HAL_Driver/Src/stm32h7xx_ll_usb.c ****     }
 856              		.loc 1 322 13 view .LVU244
 857 006c FFF7FEFF 		bl	USB_SetDevSpeed
 858              	.LVL73:
 859 0070 0DE0     		b	.L64
 860              	.LVL74:
 861              	.L60:
 308:Drivers/STM32H7xx_HAL_Driver/Src/stm32h7xx_ll_usb.c ****   }
 862              		.loc 1 308 5 is_stmt 1 view .LVU245
 308:Drivers/STM32H7xx_HAL_Driver/Src/stm32h7xx_ll_usb.c ****   }
 863              		.loc 1 308 17 is_stmt 0 view .LVU246
 864 0072 A36B     		ldr	r3, [r4, #56]
 865              	.LVL75:
 308:Drivers/STM32H7xx_HAL_Driver/Src/stm32h7xx_ll_usb.c ****   }
 866              		.loc 1 308 17 view .LVU247
 867 0074 43F40013 		orr	r3, r3, #2097152
 868 0078 A363     		str	r3, [r4, #56]
 869 007a E7E7     		b	.L61
 870              	.L63:
 327:Drivers/STM32H7xx_HAL_Driver/Src/stm32h7xx_ll_usb.c ****     }
 871              		.loc 1 327 7 is_stmt 1 view .LVU248
 327:Drivers/STM32H7xx_HAL_Driver/Src/stm32h7xx_ll_usb.c ****     }
 872              		.loc 1 327 13 is_stmt 0 view .LVU249
 873 007c 0121     		movs	r1, #1
 874 007e 2046     		mov	r0, r4
 875              	.LVL76:
 327:Drivers/STM32H7xx_HAL_Driver/Src/stm32h7xx_ll_usb.c ****     }
 876              		.loc 1 327 13 view .LVU250
 877 0080 FFF7FEFF 		bl	USB_SetDevSpeed
 878              	.LVL77:
 879 0084 03E0     		b	.L64
 880              	.LVL78:
 881              	.L62:
 333:Drivers/STM32H7xx_HAL_Driver/Src/stm32h7xx_ll_usb.c ****   }
 882              		.loc 1 333 5 is_stmt 1 view .LVU251
 333:Drivers/STM32H7xx_HAL_Driver/Src/stm32h7xx_ll_usb.c ****   }
 883              		.loc 1 333 11 is_stmt 0 view .LVU252
 884 0086 0321     		movs	r1, #3
 885 0088 2046     		mov	r0, r4
 886              	.LVL79:
 333:Drivers/STM32H7xx_HAL_Driver/Src/stm32h7xx_ll_usb.c ****   }
 887              		.loc 1 333 11 view .LVU253
ARM GAS  /var/folders/26/q55yrwgs1ql1lprjdslmzz800000gn/T//ccC08pEc.s 			page 44


 888 008a FFF7FEFF 		bl	USB_SetDevSpeed
 889              	.LVL80:
 890              	.L64:
 337:Drivers/STM32H7xx_HAL_Driver/Src/stm32h7xx_ll_usb.c ****   {
 891              		.loc 1 337 3 is_stmt 1 view .LVU254
 337:Drivers/STM32H7xx_HAL_Driver/Src/stm32h7xx_ll_usb.c ****   {
 892              		.loc 1 337 7 is_stmt 0 view .LVU255
 893 008e 1021     		movs	r1, #16
 894 0090 2046     		mov	r0, r4
 895 0092 FFF7FEFF 		bl	USB_FlushTxFifo
 896              	.LVL81:
 337:Drivers/STM32H7xx_HAL_Driver/Src/stm32h7xx_ll_usb.c ****   {
 897              		.loc 1 337 6 view .LVU256
 898 0096 8046     		mov	r8, r0
 899 0098 08B1     		cbz	r0, .L65
 339:Drivers/STM32H7xx_HAL_Driver/Src/stm32h7xx_ll_usb.c ****   }
 900              		.loc 1 339 9 view .LVU257
 901 009a 4FF00108 		mov	r8, #1
 902              	.L65:
 903              	.LVL82:
 342:Drivers/STM32H7xx_HAL_Driver/Src/stm32h7xx_ll_usb.c ****   {
 904              		.loc 1 342 3 is_stmt 1 view .LVU258
 342:Drivers/STM32H7xx_HAL_Driver/Src/stm32h7xx_ll_usb.c ****   {
 905              		.loc 1 342 7 is_stmt 0 view .LVU259
 906 009e 2046     		mov	r0, r4
 907 00a0 FFF7FEFF 		bl	USB_FlushRxFifo
 908              	.LVL83:
 342:Drivers/STM32H7xx_HAL_Driver/Src/stm32h7xx_ll_usb.c ****   {
 909              		.loc 1 342 6 view .LVU260
 910 00a4 08B1     		cbz	r0, .L66
 344:Drivers/STM32H7xx_HAL_Driver/Src/stm32h7xx_ll_usb.c ****   }
 911              		.loc 1 344 9 view .LVU261
 912 00a6 4FF00108 		mov	r8, #1
 913              	.LVL84:
 914              	.L66:
 348:Drivers/STM32H7xx_HAL_Driver/Src/stm32h7xx_ll_usb.c ****   USBx_DEVICE->DOEPMSK = 0U;
 915              		.loc 1 348 3 is_stmt 1 view .LVU262
 348:Drivers/STM32H7xx_HAL_Driver/Src/stm32h7xx_ll_usb.c ****   USBx_DEVICE->DOEPMSK = 0U;
 916              		.loc 1 348 24 is_stmt 0 view .LVU263
 917 00aa 0023     		movs	r3, #0
 918 00ac 2B61     		str	r3, [r5, #16]
 349:Drivers/STM32H7xx_HAL_Driver/Src/stm32h7xx_ll_usb.c ****   USBx_DEVICE->DAINTMSK = 0U;
 919              		.loc 1 349 3 is_stmt 1 view .LVU264
 349:Drivers/STM32H7xx_HAL_Driver/Src/stm32h7xx_ll_usb.c ****   USBx_DEVICE->DAINTMSK = 0U;
 920              		.loc 1 349 24 is_stmt 0 view .LVU265
 921 00ae 6B61     		str	r3, [r5, #20]
 350:Drivers/STM32H7xx_HAL_Driver/Src/stm32h7xx_ll_usb.c **** 
 922              		.loc 1 350 3 is_stmt 1 view .LVU266
 350:Drivers/STM32H7xx_HAL_Driver/Src/stm32h7xx_ll_usb.c **** 
 923              		.loc 1 350 25 is_stmt 0 view .LVU267
 924 00b0 EB61     		str	r3, [r5, #28]
 352:Drivers/STM32H7xx_HAL_Driver/Src/stm32h7xx_ll_usb.c ****   {
 925              		.loc 1 352 3 is_stmt 1 view .LVU268
 926              	.LVL85:
 352:Drivers/STM32H7xx_HAL_Driver/Src/stm32h7xx_ll_usb.c ****   {
 927              		.loc 1 352 3 is_stmt 0 view .LVU269
 928 00b2 0AE0     		b	.L67
ARM GAS  /var/folders/26/q55yrwgs1ql1lprjdslmzz800000gn/T//ccC08pEc.s 			page 45


 929              	.LVL86:
 930              	.L84:
 356:Drivers/STM32H7xx_HAL_Driver/Src/stm32h7xx_ll_usb.c ****       {
 931              		.loc 1 356 7 is_stmt 1 view .LVU270
 356:Drivers/STM32H7xx_HAL_Driver/Src/stm32h7xx_ll_usb.c ****       {
 932              		.loc 1 356 10 is_stmt 0 view .LVU271
 933 00b4 C3B9     		cbnz	r3, .L69
 358:Drivers/STM32H7xx_HAL_Driver/Src/stm32h7xx_ll_usb.c ****       }
 934              		.loc 1 358 9 is_stmt 1 view .LVU272
 358:Drivers/STM32H7xx_HAL_Driver/Src/stm32h7xx_ll_usb.c ****       }
 935              		.loc 1 358 31 is_stmt 0 view .LVU273
 936 00b6 4FF00060 		mov	r0, #134217728
 937 00ba C2F80009 		str	r0, [r2, #2304]
 938              	.L70:
 370:Drivers/STM32H7xx_HAL_Driver/Src/stm32h7xx_ll_usb.c ****     USBx_INEP(i)->DIEPINT  = 0xFB7FU;
 939              		.loc 1 370 5 is_stmt 1 discriminator 2 view .LVU274
 370:Drivers/STM32H7xx_HAL_Driver/Src/stm32h7xx_ll_usb.c ****     USBx_INEP(i)->DIEPINT  = 0xFB7FU;
 940              		.loc 1 370 28 is_stmt 0 discriminator 2 view .LVU275
 941 00be 0022     		movs	r2, #0
 942 00c0 0A61     		str	r2, [r1, #16]
 371:Drivers/STM32H7xx_HAL_Driver/Src/stm32h7xx_ll_usb.c ****   }
 943              		.loc 1 371 5 is_stmt 1 discriminator 2 view .LVU276
 371:Drivers/STM32H7xx_HAL_Driver/Src/stm32h7xx_ll_usb.c ****   }
 944              		.loc 1 371 28 is_stmt 0 discriminator 2 view .LVU277
 945 00c2 4FF67F32 		movw	r2, #64383
 946 00c6 8A60     		str	r2, [r1, #8]
 352:Drivers/STM32H7xx_HAL_Driver/Src/stm32h7xx_ll_usb.c ****   {
 947              		.loc 1 352 39 is_stmt 1 discriminator 2 view .LVU278
 352:Drivers/STM32H7xx_HAL_Driver/Src/stm32h7xx_ll_usb.c ****   {
 948              		.loc 1 352 40 is_stmt 0 discriminator 2 view .LVU279
 949 00c8 0133     		adds	r3, r3, #1
 950              	.LVL87:
 951              	.L67:
 352:Drivers/STM32H7xx_HAL_Driver/Src/stm32h7xx_ll_usb.c ****   {
 952              		.loc 1 352 16 is_stmt 1 discriminator 1 view .LVU280
 352:Drivers/STM32H7xx_HAL_Driver/Src/stm32h7xx_ll_usb.c ****   {
 953              		.loc 1 352 23 is_stmt 0 discriminator 1 view .LVU281
 954 00ca 0799     		ldr	r1, [sp, #28]
 352:Drivers/STM32H7xx_HAL_Driver/Src/stm32h7xx_ll_usb.c ****   {
 955              		.loc 1 352 3 discriminator 1 view .LVU282
 956 00cc 9942     		cmp	r1, r3
 957 00ce 10D9     		bls	.L83
 354:Drivers/STM32H7xx_HAL_Driver/Src/stm32h7xx_ll_usb.c ****     {
 958              		.loc 1 354 5 is_stmt 1 view .LVU283
 354:Drivers/STM32H7xx_HAL_Driver/Src/stm32h7xx_ll_usb.c ****     {
 959              		.loc 1 354 10 is_stmt 0 view .LVU284
 960 00d0 04EB4312 		add	r2, r4, r3, lsl #5
 961 00d4 02F51061 		add	r1, r2, #2304
 354:Drivers/STM32H7xx_HAL_Driver/Src/stm32h7xx_ll_usb.c ****     {
 962              		.loc 1 354 22 view .LVU285
 963 00d8 D2F80009 		ldr	r0, [r2, #2304]
 354:Drivers/STM32H7xx_HAL_Driver/Src/stm32h7xx_ll_usb.c ****     {
 964              		.loc 1 354 8 view .LVU286
 965 00dc 0028     		cmp	r0, #0
 966 00de E9DB     		blt	.L84
 367:Drivers/STM32H7xx_HAL_Driver/Src/stm32h7xx_ll_usb.c ****     }
 967              		.loc 1 367 7 is_stmt 1 view .LVU287
ARM GAS  /var/folders/26/q55yrwgs1ql1lprjdslmzz800000gn/T//ccC08pEc.s 			page 46


 367:Drivers/STM32H7xx_HAL_Driver/Src/stm32h7xx_ll_usb.c ****     }
 968              		.loc 1 367 29 is_stmt 0 view .LVU288
 969 00e0 0020     		movs	r0, #0
 970 00e2 C2F80009 		str	r0, [r2, #2304]
 971 00e6 EAE7     		b	.L70
 972              	.L69:
 362:Drivers/STM32H7xx_HAL_Driver/Src/stm32h7xx_ll_usb.c ****       }
 973              		.loc 1 362 9 is_stmt 1 view .LVU289
 362:Drivers/STM32H7xx_HAL_Driver/Src/stm32h7xx_ll_usb.c ****       }
 974              		.loc 1 362 31 is_stmt 0 view .LVU290
 975 00e8 4FF09040 		mov	r0, #1207959552
 976 00ec C2F80009 		str	r0, [r2, #2304]
 977 00f0 E5E7     		b	.L70
 978              	.L83:
 374:Drivers/STM32H7xx_HAL_Driver/Src/stm32h7xx_ll_usb.c ****   {
 979              		.loc 1 374 10 view .LVU291
 980 00f2 0023     		movs	r3, #0
 981              	.LVL88:
 374:Drivers/STM32H7xx_HAL_Driver/Src/stm32h7xx_ll_usb.c ****   {
 982              		.loc 1 374 10 view .LVU292
 983 00f4 0AE0     		b	.L72
 984              	.LVL89:
 985              	.L87:
 378:Drivers/STM32H7xx_HAL_Driver/Src/stm32h7xx_ll_usb.c ****       {
 986              		.loc 1 378 7 is_stmt 1 view .LVU293
 378:Drivers/STM32H7xx_HAL_Driver/Src/stm32h7xx_ll_usb.c ****       {
 987              		.loc 1 378 10 is_stmt 0 view .LVU294
 988 00f6 C3B1     		cbz	r3, .L85
 384:Drivers/STM32H7xx_HAL_Driver/Src/stm32h7xx_ll_usb.c ****       }
 989              		.loc 1 384 9 is_stmt 1 view .LVU295
 384:Drivers/STM32H7xx_HAL_Driver/Src/stm32h7xx_ll_usb.c ****       }
 990              		.loc 1 384 32 is_stmt 0 view .LVU296
 991 00f8 4FF0904C 		mov	ip, #1207959552
 992 00fc C2F800CB 		str	ip, [r2, #2816]
 993              	.L75:
 392:Drivers/STM32H7xx_HAL_Driver/Src/stm32h7xx_ll_usb.c ****     USBx_OUTEP(i)->DOEPINT  = 0xFB7FU;
 994              		.loc 1 392 5 is_stmt 1 discriminator 2 view .LVU297
 392:Drivers/STM32H7xx_HAL_Driver/Src/stm32h7xx_ll_usb.c ****     USBx_OUTEP(i)->DOEPINT  = 0xFB7FU;
 995              		.loc 1 392 29 is_stmt 0 discriminator 2 view .LVU298
 996 0100 0022     		movs	r2, #0
 997 0102 0261     		str	r2, [r0, #16]
 393:Drivers/STM32H7xx_HAL_Driver/Src/stm32h7xx_ll_usb.c ****   }
 998              		.loc 1 393 5 is_stmt 1 discriminator 2 view .LVU299
 393:Drivers/STM32H7xx_HAL_Driver/Src/stm32h7xx_ll_usb.c ****   }
 999              		.loc 1 393 29 is_stmt 0 discriminator 2 view .LVU300
 1000 0104 4FF67F32 		movw	r2, #64383
 1001 0108 8260     		str	r2, [r0, #8]
 374:Drivers/STM32H7xx_HAL_Driver/Src/stm32h7xx_ll_usb.c ****   {
 1002              		.loc 1 374 39 is_stmt 1 discriminator 2 view .LVU301
 374:Drivers/STM32H7xx_HAL_Driver/Src/stm32h7xx_ll_usb.c ****   {
 1003              		.loc 1 374 40 is_stmt 0 discriminator 2 view .LVU302
 1004 010a 0133     		adds	r3, r3, #1
 1005              	.LVL90:
 1006              	.L72:
 374:Drivers/STM32H7xx_HAL_Driver/Src/stm32h7xx_ll_usb.c ****   {
 1007              		.loc 1 374 16 is_stmt 1 discriminator 1 view .LVU303
 374:Drivers/STM32H7xx_HAL_Driver/Src/stm32h7xx_ll_usb.c ****   {
ARM GAS  /var/folders/26/q55yrwgs1ql1lprjdslmzz800000gn/T//ccC08pEc.s 			page 47


 1008              		.loc 1 374 3 is_stmt 0 discriminator 1 view .LVU304
 1009 010c 9942     		cmp	r1, r3
 1010 010e 11D9     		bls	.L86
 376:Drivers/STM32H7xx_HAL_Driver/Src/stm32h7xx_ll_usb.c ****     {
 1011              		.loc 1 376 5 is_stmt 1 view .LVU305
 376:Drivers/STM32H7xx_HAL_Driver/Src/stm32h7xx_ll_usb.c ****     {
 1012              		.loc 1 376 10 is_stmt 0 view .LVU306
 1013 0110 04EB4312 		add	r2, r4, r3, lsl #5
 1014 0114 02F53060 		add	r0, r2, #2816
 376:Drivers/STM32H7xx_HAL_Driver/Src/stm32h7xx_ll_usb.c ****     {
 1015              		.loc 1 376 23 view .LVU307
 1016 0118 D2F8006B 		ldr	r6, [r2, #2816]
 376:Drivers/STM32H7xx_HAL_Driver/Src/stm32h7xx_ll_usb.c ****     {
 1017              		.loc 1 376 8 view .LVU308
 1018 011c 002E     		cmp	r6, #0
 1019 011e EADB     		blt	.L87
 389:Drivers/STM32H7xx_HAL_Driver/Src/stm32h7xx_ll_usb.c ****     }
 1020              		.loc 1 389 7 is_stmt 1 view .LVU309
 389:Drivers/STM32H7xx_HAL_Driver/Src/stm32h7xx_ll_usb.c ****     }
 1021              		.loc 1 389 30 is_stmt 0 view .LVU310
 1022 0120 4FF0000C 		mov	ip, #0
 1023 0124 C2F800CB 		str	ip, [r2, #2816]
 1024 0128 EAE7     		b	.L75
 1025              	.L85:
 380:Drivers/STM32H7xx_HAL_Driver/Src/stm32h7xx_ll_usb.c ****       }
 1026              		.loc 1 380 9 is_stmt 1 view .LVU311
 380:Drivers/STM32H7xx_HAL_Driver/Src/stm32h7xx_ll_usb.c ****       }
 1027              		.loc 1 380 32 is_stmt 0 view .LVU312
 1028 012a 4FF0006C 		mov	ip, #134217728
 1029 012e C2F800CB 		str	ip, [r2, #2816]
 1030 0132 E5E7     		b	.L75
 1031              	.L86:
 396:Drivers/STM32H7xx_HAL_Driver/Src/stm32h7xx_ll_usb.c **** 
 1032              		.loc 1 396 3 is_stmt 1 view .LVU313
 396:Drivers/STM32H7xx_HAL_Driver/Src/stm32h7xx_ll_usb.c **** 
 1033              		.loc 1 396 24 is_stmt 0 view .LVU314
 1034 0134 2B69     		ldr	r3, [r5, #16]
 1035              	.LVL91:
 396:Drivers/STM32H7xx_HAL_Driver/Src/stm32h7xx_ll_usb.c **** 
 1036              		.loc 1 396 24 view .LVU315
 1037 0136 23F48073 		bic	r3, r3, #256
 1038 013a 2B61     		str	r3, [r5, #16]
 399:Drivers/STM32H7xx_HAL_Driver/Src/stm32h7xx_ll_usb.c **** 
 1039              		.loc 1 399 3 is_stmt 1 view .LVU316
 399:Drivers/STM32H7xx_HAL_Driver/Src/stm32h7xx_ll_usb.c **** 
 1040              		.loc 1 399 17 is_stmt 0 view .LVU317
 1041 013c 0023     		movs	r3, #0
 1042 013e A361     		str	r3, [r4, #24]
 402:Drivers/STM32H7xx_HAL_Driver/Src/stm32h7xx_ll_usb.c **** 
 1043              		.loc 1 402 3 is_stmt 1 view .LVU318
 402:Drivers/STM32H7xx_HAL_Driver/Src/stm32h7xx_ll_usb.c **** 
 1044              		.loc 1 402 17 is_stmt 0 view .LVU319
 1045 0140 6FF08043 		mvn	r3, #1073741824
 1046 0144 6361     		str	r3, [r4, #20]
 405:Drivers/STM32H7xx_HAL_Driver/Src/stm32h7xx_ll_usb.c ****   {
 1047              		.loc 1 405 3 is_stmt 1 view .LVU320
 405:Drivers/STM32H7xx_HAL_Driver/Src/stm32h7xx_ll_usb.c ****   {
ARM GAS  /var/folders/26/q55yrwgs1ql1lprjdslmzz800000gn/T//ccC08pEc.s 			page 48


 1048              		.loc 1 405 10 is_stmt 0 view .LVU321
 1049 0146 0A9B     		ldr	r3, [sp, #40]
 405:Drivers/STM32H7xx_HAL_Driver/Src/stm32h7xx_ll_usb.c ****   {
 1050              		.loc 1 405 6 view .LVU322
 1051 0148 1BB9     		cbnz	r3, .L77
 407:Drivers/STM32H7xx_HAL_Driver/Src/stm32h7xx_ll_usb.c ****   }
 1052              		.loc 1 407 5 is_stmt 1 view .LVU323
 407:Drivers/STM32H7xx_HAL_Driver/Src/stm32h7xx_ll_usb.c ****   }
 1053              		.loc 1 407 19 is_stmt 0 view .LVU324
 1054 014a A369     		ldr	r3, [r4, #24]
 1055 014c 43F01003 		orr	r3, r3, #16
 1056 0150 A361     		str	r3, [r4, #24]
 1057              	.L77:
 411:Drivers/STM32H7xx_HAL_Driver/Src/stm32h7xx_ll_usb.c ****                    USB_OTG_GINTMSK_ENUMDNEM | USB_OTG_GINTMSK_IEPINT |
 1058              		.loc 1 411 3 is_stmt 1 view .LVU325
 411:Drivers/STM32H7xx_HAL_Driver/Src/stm32h7xx_ll_usb.c ****                    USB_OTG_GINTMSK_ENUMDNEM | USB_OTG_GINTMSK_IEPINT |
 1059              		.loc 1 411 17 is_stmt 0 view .LVU326
 1060 0152 A269     		ldr	r2, [r4, #24]
 1061 0154 0A4B     		ldr	r3, .L89
 1062 0156 1343     		orrs	r3, r3, r2
 1063 0158 A361     		str	r3, [r4, #24]
 416:Drivers/STM32H7xx_HAL_Driver/Src/stm32h7xx_ll_usb.c ****   {
 1064              		.loc 1 416 3 is_stmt 1 view .LVU327
 416:Drivers/STM32H7xx_HAL_Driver/Src/stm32h7xx_ll_usb.c ****   {
 1065              		.loc 1 416 10 is_stmt 0 view .LVU328
 1066 015a 0D9B     		ldr	r3, [sp, #52]
 416:Drivers/STM32H7xx_HAL_Driver/Src/stm32h7xx_ll_usb.c ****   {
 1067              		.loc 1 416 6 view .LVU329
 1068 015c 1BB1     		cbz	r3, .L78
 418:Drivers/STM32H7xx_HAL_Driver/Src/stm32h7xx_ll_usb.c ****   }
 1069              		.loc 1 418 5 is_stmt 1 view .LVU330
 418:Drivers/STM32H7xx_HAL_Driver/Src/stm32h7xx_ll_usb.c ****   }
 1070              		.loc 1 418 19 is_stmt 0 view .LVU331
 1071 015e A369     		ldr	r3, [r4, #24]
 1072 0160 43F00803 		orr	r3, r3, #8
 1073 0164 A361     		str	r3, [r4, #24]
 1074              	.L78:
 421:Drivers/STM32H7xx_HAL_Driver/Src/stm32h7xx_ll_usb.c ****   {
 1075              		.loc 1 421 3 is_stmt 1 view .LVU332
 421:Drivers/STM32H7xx_HAL_Driver/Src/stm32h7xx_ll_usb.c ****   {
 1076              		.loc 1 421 6 is_stmt 0 view .LVU333
 1077 0166 012F     		cmp	r7, #1
 1078 0168 04D0     		beq	.L88
 1079              	.L79:
 426:Drivers/STM32H7xx_HAL_Driver/Src/stm32h7xx_ll_usb.c **** }
 1080              		.loc 1 426 3 is_stmt 1 view .LVU334
 427:Drivers/STM32H7xx_HAL_Driver/Src/stm32h7xx_ll_usb.c **** 
 1081              		.loc 1 427 1 is_stmt 0 view .LVU335
 1082 016a 4046     		mov	r0, r8
 1083 016c BDE8F041 		pop	{r4, r5, r6, r7, r8, lr}
 1084              	.LCFI8:
 1085              		.cfi_remember_state
 1086              		.cfi_restore 14
 1087              		.cfi_restore 8
 1088              		.cfi_restore 7
 1089              		.cfi_restore 6
 1090              		.cfi_restore 5
ARM GAS  /var/folders/26/q55yrwgs1ql1lprjdslmzz800000gn/T//ccC08pEc.s 			page 49


 1091              		.cfi_restore 4
 1092              		.cfi_def_cfa_offset 16
 1093              	.LVL92:
 427:Drivers/STM32H7xx_HAL_Driver/Src/stm32h7xx_ll_usb.c **** 
 1094              		.loc 1 427 1 view .LVU336
 1095 0170 04B0     		add	sp, sp, #16
 1096              	.LCFI9:
 1097              		.cfi_def_cfa_offset 0
 1098 0172 7047     		bx	lr
 1099              	.LVL93:
 1100              	.L88:
 1101              	.LCFI10:
 1102              		.cfi_restore_state
 423:Drivers/STM32H7xx_HAL_Driver/Src/stm32h7xx_ll_usb.c ****   }
 1103              		.loc 1 423 5 is_stmt 1 view .LVU337
 423:Drivers/STM32H7xx_HAL_Driver/Src/stm32h7xx_ll_usb.c ****   }
 1104              		.loc 1 423 19 is_stmt 0 view .LVU338
 1105 0174 A269     		ldr	r2, [r4, #24]
 1106 0176 034B     		ldr	r3, .L89+4
 1107 0178 1343     		orrs	r3, r3, r2
 1108 017a A361     		str	r3, [r4, #24]
 1109 017c F5E7     		b	.L79
 1110              	.L90:
 1111 017e 00BF     		.align	2
 1112              	.L89:
 1113 0180 00383C80 		.word	-2143537152
 1114 0184 04000040 		.word	1073741828
 1115              		.cfi_endproc
 1116              	.LFE149:
 1118              		.section	.text.USB_GetDevSpeed,"ax",%progbits
 1119              		.align	1
 1120              		.global	USB_GetDevSpeed
 1121              		.syntax unified
 1122              		.thumb
 1123              		.thumb_func
 1125              	USB_GetDevSpeed:
 1126              	.LVL94:
 1127              	.LFB153:
 504:Drivers/STM32H7xx_HAL_Driver/Src/stm32h7xx_ll_usb.c ****   uint32_t USBx_BASE = (uint32_t)USBx;
 1128              		.loc 1 504 1 is_stmt 1 view -0
 1129              		.cfi_startproc
 1130              		@ args = 0, pretend = 0, frame = 0
 1131              		@ frame_needed = 0, uses_anonymous_args = 0
 1132              		@ link register save eliminated.
 505:Drivers/STM32H7xx_HAL_Driver/Src/stm32h7xx_ll_usb.c ****   uint8_t speed;
 1133              		.loc 1 505 3 view .LVU340
 506:Drivers/STM32H7xx_HAL_Driver/Src/stm32h7xx_ll_usb.c ****   uint32_t DevEnumSpeed = USBx_DEVICE->DSTS & USB_OTG_DSTS_ENUMSPD;
 1134              		.loc 1 506 3 view .LVU341
 507:Drivers/STM32H7xx_HAL_Driver/Src/stm32h7xx_ll_usb.c **** 
 1135              		.loc 1 507 3 view .LVU342
 507:Drivers/STM32H7xx_HAL_Driver/Src/stm32h7xx_ll_usb.c **** 
 1136              		.loc 1 507 38 is_stmt 0 view .LVU343
 1137 0000 D0F80838 		ldr	r3, [r0, #2056]
 1138              	.LVL95:
 509:Drivers/STM32H7xx_HAL_Driver/Src/stm32h7xx_ll_usb.c ****   {
 1139              		.loc 1 509 3 is_stmt 1 view .LVU344
 509:Drivers/STM32H7xx_HAL_Driver/Src/stm32h7xx_ll_usb.c ****   {
ARM GAS  /var/folders/26/q55yrwgs1ql1lprjdslmzz800000gn/T//ccC08pEc.s 			page 50


 1140              		.loc 1 509 6 is_stmt 0 view .LVU345
 1141 0004 13F00603 		ands	r3, r3, #6
 1142              	.LVL96:
 509:Drivers/STM32H7xx_HAL_Driver/Src/stm32h7xx_ll_usb.c ****   {
 1143              		.loc 1 509 6 view .LVU346
 1144 0008 05D0     		beq	.L93
 513:Drivers/STM32H7xx_HAL_Driver/Src/stm32h7xx_ll_usb.c ****            (DevEnumSpeed == DSTS_ENUMSPD_FS_PHY_48MHZ))
 1145              		.loc 1 513 8 is_stmt 1 view .LVU347
 513:Drivers/STM32H7xx_HAL_Driver/Src/stm32h7xx_ll_usb.c ****            (DevEnumSpeed == DSTS_ENUMSPD_FS_PHY_48MHZ))
 1146              		.loc 1 513 11 is_stmt 0 view .LVU348
 1147 000a 062B     		cmp	r3, #6
 1148 000c 18BF     		it	ne
 1149 000e 022B     		cmpne	r3, #2
 1150 0010 03D1     		bne	.L94
 516:Drivers/STM32H7xx_HAL_Driver/Src/stm32h7xx_ll_usb.c ****   }
 1151              		.loc 1 516 11 view .LVU349
 1152 0012 0220     		movs	r0, #2
 1153              	.LVL97:
 516:Drivers/STM32H7xx_HAL_Driver/Src/stm32h7xx_ll_usb.c ****   }
 1154              		.loc 1 516 11 view .LVU350
 1155 0014 7047     		bx	lr
 1156              	.LVL98:
 1157              	.L93:
 511:Drivers/STM32H7xx_HAL_Driver/Src/stm32h7xx_ll_usb.c ****   }
 1158              		.loc 1 511 11 view .LVU351
 1159 0016 0020     		movs	r0, #0
 1160              	.LVL99:
 511:Drivers/STM32H7xx_HAL_Driver/Src/stm32h7xx_ll_usb.c ****   }
 1161              		.loc 1 511 11 view .LVU352
 1162 0018 7047     		bx	lr
 1163              	.LVL100:
 1164              	.L94:
 520:Drivers/STM32H7xx_HAL_Driver/Src/stm32h7xx_ll_usb.c ****   }
 1165              		.loc 1 520 11 view .LVU353
 1166 001a 0F20     		movs	r0, #15
 1167              	.LVL101:
 523:Drivers/STM32H7xx_HAL_Driver/Src/stm32h7xx_ll_usb.c **** }
 1168              		.loc 1 523 3 is_stmt 1 view .LVU354
 524:Drivers/STM32H7xx_HAL_Driver/Src/stm32h7xx_ll_usb.c **** 
 1169              		.loc 1 524 1 is_stmt 0 view .LVU355
 1170 001c 7047     		bx	lr
 1171              		.cfi_endproc
 1172              	.LFE153:
 1174              		.section	.text.USB_ActivateEndpoint,"ax",%progbits
 1175              		.align	1
 1176              		.global	USB_ActivateEndpoint
 1177              		.syntax unified
 1178              		.thumb
 1179              		.thumb_func
 1181              	USB_ActivateEndpoint:
 1182              	.LVL102:
 1183              	.LFB154:
 533:Drivers/STM32H7xx_HAL_Driver/Src/stm32h7xx_ll_usb.c ****   uint32_t USBx_BASE = (uint32_t)USBx;
 1184              		.loc 1 533 1 is_stmt 1 view -0
 1185              		.cfi_startproc
 1186              		@ args = 0, pretend = 0, frame = 0
 1187              		@ frame_needed = 0, uses_anonymous_args = 0
ARM GAS  /var/folders/26/q55yrwgs1ql1lprjdslmzz800000gn/T//ccC08pEc.s 			page 51


 533:Drivers/STM32H7xx_HAL_Driver/Src/stm32h7xx_ll_usb.c ****   uint32_t USBx_BASE = (uint32_t)USBx;
 1188              		.loc 1 533 1 is_stmt 0 view .LVU357
 1189 0000 10B5     		push	{r4, lr}
 1190              	.LCFI11:
 1191              		.cfi_def_cfa_offset 8
 1192              		.cfi_offset 4, -8
 1193              		.cfi_offset 14, -4
 534:Drivers/STM32H7xx_HAL_Driver/Src/stm32h7xx_ll_usb.c ****   uint32_t epnum = (uint32_t)ep->num;
 1194              		.loc 1 534 3 is_stmt 1 view .LVU358
 1195              	.LVL103:
 535:Drivers/STM32H7xx_HAL_Driver/Src/stm32h7xx_ll_usb.c **** 
 1196              		.loc 1 535 3 view .LVU359
 535:Drivers/STM32H7xx_HAL_Driver/Src/stm32h7xx_ll_usb.c **** 
 1197              		.loc 1 535 32 is_stmt 0 view .LVU360
 1198 0002 91F800C0 		ldrb	ip, [r1]	@ zero_extendqisi2
 1199              	.LVL104:
 537:Drivers/STM32H7xx_HAL_Driver/Src/stm32h7xx_ll_usb.c ****   {
 1200              		.loc 1 537 3 is_stmt 1 view .LVU361
 537:Drivers/STM32H7xx_HAL_Driver/Src/stm32h7xx_ll_usb.c ****   {
 1201              		.loc 1 537 9 is_stmt 0 view .LVU362
 1202 0006 4B78     		ldrb	r3, [r1, #1]	@ zero_extendqisi2
 537:Drivers/STM32H7xx_HAL_Driver/Src/stm32h7xx_ll_usb.c ****   {
 1203              		.loc 1 537 6 view .LVU363
 1204 0008 012B     		cmp	r3, #1
 1205 000a 21D0     		beq	.L99
 551:Drivers/STM32H7xx_HAL_Driver/Src/stm32h7xx_ll_usb.c **** 
 1206              		.loc 1 551 5 is_stmt 1 view .LVU364
 551:Drivers/STM32H7xx_HAL_Driver/Src/stm32h7xx_ll_usb.c **** 
 1207              		.loc 1 551 27 is_stmt 0 view .LVU365
 1208 000c 00F5006E 		add	lr, r0, #2048
 1209 0010 D0F81C38 		ldr	r3, [r0, #2076]
 551:Drivers/STM32H7xx_HAL_Driver/Src/stm32h7xx_ll_usb.c **** 
 1210              		.loc 1 551 82 view .LVU366
 1211 0014 0CF00F04 		and	r4, ip, #15
 551:Drivers/STM32H7xx_HAL_Driver/Src/stm32h7xx_ll_usb.c **** 
 1212              		.loc 1 551 55 view .LVU367
 1213 0018 0122     		movs	r2, #1
 1214 001a A240     		lsls	r2, r2, r4
 551:Drivers/STM32H7xx_HAL_Driver/Src/stm32h7xx_ll_usb.c **** 
 1215              		.loc 1 551 27 view .LVU368
 1216 001c 43EA0243 		orr	r3, r3, r2, lsl #16
 1217 0020 C0F81C38 		str	r3, [r0, #2076]
 553:Drivers/STM32H7xx_HAL_Driver/Src/stm32h7xx_ll_usb.c ****     {
 1218              		.loc 1 553 5 is_stmt 1 view .LVU369
 553:Drivers/STM32H7xx_HAL_Driver/Src/stm32h7xx_ll_usb.c ****     {
 1219              		.loc 1 553 11 is_stmt 0 view .LVU370
 1220 0024 00EB4C10 		add	r0, r0, ip, lsl #5
 1221              	.LVL105:
 553:Drivers/STM32H7xx_HAL_Driver/Src/stm32h7xx_ll_usb.c ****     {
 1222              		.loc 1 553 28 view .LVU371
 1223 0028 D0F8003B 		ldr	r3, [r0, #2816]
 553:Drivers/STM32H7xx_HAL_Driver/Src/stm32h7xx_ll_usb.c ****     {
 1224              		.loc 1 553 8 view .LVU372
 1225 002c 13F4004F 		tst	r3, #32768
 1226 0030 0CD1     		bne	.L97
 555:Drivers/STM32H7xx_HAL_Driver/Src/stm32h7xx_ll_usb.c ****                                     ((uint32_t)ep->type << 18) |
 1227              		.loc 1 555 7 is_stmt 1 view .LVU373
ARM GAS  /var/folders/26/q55yrwgs1ql1lprjdslmzz800000gn/T//ccC08pEc.s 			page 52


 555:Drivers/STM32H7xx_HAL_Driver/Src/stm32h7xx_ll_usb.c ****                                     ((uint32_t)ep->type << 18) |
 1228              		.loc 1 555 34 is_stmt 0 view .LVU374
 1229 0032 D0F8002B 		ldr	r2, [r0, #2816]
 555:Drivers/STM32H7xx_HAL_Driver/Src/stm32h7xx_ll_usb.c ****                                     ((uint32_t)ep->type << 18) |
 1230              		.loc 1 555 40 view .LVU375
 1231 0036 8B68     		ldr	r3, [r1, #8]
 555:Drivers/STM32H7xx_HAL_Driver/Src/stm32h7xx_ll_usb.c ****                                     ((uint32_t)ep->type << 18) |
 1232              		.loc 1 555 52 view .LVU376
 1233 0038 C3F30A03 		ubfx	r3, r3, #0, #11
 556:Drivers/STM32H7xx_HAL_Driver/Src/stm32h7xx_ll_usb.c ****                                     USB_OTG_DIEPCTL_SD0PID_SEVNFRM |
 1234              		.loc 1 556 50 view .LVU377
 1235 003c C978     		ldrb	r1, [r1, #3]	@ zero_extendqisi2
 1236              	.LVL106:
 555:Drivers/STM32H7xx_HAL_Driver/Src/stm32h7xx_ll_usb.c ****                                     ((uint32_t)ep->type << 18) |
 1237              		.loc 1 555 77 view .LVU378
 1238 003e 43EA8143 		orr	r3, r3, r1, lsl #18
 555:Drivers/STM32H7xx_HAL_Driver/Src/stm32h7xx_ll_usb.c ****                                     ((uint32_t)ep->type << 18) |
 1239              		.loc 1 555 34 view .LVU379
 1240 0042 1343     		orrs	r3, r3, r2
 1241 0044 144A     		ldr	r2, .L100
 1242 0046 1A43     		orrs	r2, r2, r3
 1243 0048 C0F8002B 		str	r2, [r0, #2816]
 1244              	.LVL107:
 1245              	.L97:
 561:Drivers/STM32H7xx_HAL_Driver/Src/stm32h7xx_ll_usb.c **** }
 1246              		.loc 1 561 3 is_stmt 1 view .LVU380
 562:Drivers/STM32H7xx_HAL_Driver/Src/stm32h7xx_ll_usb.c **** 
 1247              		.loc 1 562 1 is_stmt 0 view .LVU381
 1248 004c 0020     		movs	r0, #0
 1249 004e 10BD     		pop	{r4, pc}
 1250              	.LVL108:
 1251              	.L99:
 539:Drivers/STM32H7xx_HAL_Driver/Src/stm32h7xx_ll_usb.c **** 
 1252              		.loc 1 539 5 is_stmt 1 view .LVU382
 539:Drivers/STM32H7xx_HAL_Driver/Src/stm32h7xx_ll_usb.c **** 
 1253              		.loc 1 539 27 is_stmt 0 view .LVU383
 1254 0050 D0F81C28 		ldr	r2, [r0, #2076]
 539:Drivers/STM32H7xx_HAL_Driver/Src/stm32h7xx_ll_usb.c **** 
 1255              		.loc 1 539 81 view .LVU384
 1256 0054 0CF00F0E 		and	lr, ip, #15
 539:Drivers/STM32H7xx_HAL_Driver/Src/stm32h7xx_ll_usb.c **** 
 1257              		.loc 1 539 54 view .LVU385
 1258 0058 03FA0EF3 		lsl	r3, r3, lr
 539:Drivers/STM32H7xx_HAL_Driver/Src/stm32h7xx_ll_usb.c **** 
 1259              		.loc 1 539 52 view .LVU386
 1260 005c 9BB2     		uxth	r3, r3
 539:Drivers/STM32H7xx_HAL_Driver/Src/stm32h7xx_ll_usb.c **** 
 1261              		.loc 1 539 27 view .LVU387
 1262 005e 1343     		orrs	r3, r3, r2
 1263 0060 C0F81C38 		str	r3, [r0, #2076]
 541:Drivers/STM32H7xx_HAL_Driver/Src/stm32h7xx_ll_usb.c ****     {
 1264              		.loc 1 541 5 is_stmt 1 view .LVU388
 541:Drivers/STM32H7xx_HAL_Driver/Src/stm32h7xx_ll_usb.c ****     {
 1265              		.loc 1 541 10 is_stmt 0 view .LVU389
 1266 0064 00EB4C10 		add	r0, r0, ip, lsl #5
 1267              	.LVL109:
 541:Drivers/STM32H7xx_HAL_Driver/Src/stm32h7xx_ll_usb.c ****     {
ARM GAS  /var/folders/26/q55yrwgs1ql1lprjdslmzz800000gn/T//ccC08pEc.s 			page 53


 1268              		.loc 1 541 26 view .LVU390
 1269 0068 D0F80039 		ldr	r3, [r0, #2304]
 541:Drivers/STM32H7xx_HAL_Driver/Src/stm32h7xx_ll_usb.c ****     {
 1270              		.loc 1 541 8 view .LVU391
 1271 006c 13F4004F 		tst	r3, #32768
 1272 0070 ECD1     		bne	.L97
 543:Drivers/STM32H7xx_HAL_Driver/Src/stm32h7xx_ll_usb.c ****                                    ((uint32_t)ep->type << 18) | (epnum << 22) |
 1273              		.loc 1 543 7 is_stmt 1 view .LVU392
 543:Drivers/STM32H7xx_HAL_Driver/Src/stm32h7xx_ll_usb.c ****                                    ((uint32_t)ep->type << 18) | (epnum << 22) |
 1274              		.loc 1 543 33 is_stmt 0 view .LVU393
 1275 0072 D0F80029 		ldr	r2, [r0, #2304]
 543:Drivers/STM32H7xx_HAL_Driver/Src/stm32h7xx_ll_usb.c ****                                    ((uint32_t)ep->type << 18) | (epnum << 22) |
 1276              		.loc 1 543 39 view .LVU394
 1277 0076 8B68     		ldr	r3, [r1, #8]
 543:Drivers/STM32H7xx_HAL_Driver/Src/stm32h7xx_ll_usb.c ****                                    ((uint32_t)ep->type << 18) | (epnum << 22) |
 1278              		.loc 1 543 51 view .LVU395
 1279 0078 C3F30A03 		ubfx	r3, r3, #0, #11
 544:Drivers/STM32H7xx_HAL_Driver/Src/stm32h7xx_ll_usb.c ****                                    USB_OTG_DIEPCTL_SD0PID_SEVNFRM |
 1280              		.loc 1 544 49 view .LVU396
 1281 007c C978     		ldrb	r1, [r1, #3]	@ zero_extendqisi2
 1282              	.LVL110:
 543:Drivers/STM32H7xx_HAL_Driver/Src/stm32h7xx_ll_usb.c ****                                    ((uint32_t)ep->type << 18) | (epnum << 22) |
 1283              		.loc 1 543 76 view .LVU397
 1284 007e 43EA8143 		orr	r3, r3, r1, lsl #18
 544:Drivers/STM32H7xx_HAL_Driver/Src/stm32h7xx_ll_usb.c ****                                    USB_OTG_DIEPCTL_SD0PID_SEVNFRM |
 1285              		.loc 1 544 63 view .LVU398
 1286 0082 43EA8C5C 		orr	ip, r3, ip, lsl #22
 1287              	.LVL111:
 543:Drivers/STM32H7xx_HAL_Driver/Src/stm32h7xx_ll_usb.c ****                                    ((uint32_t)ep->type << 18) | (epnum << 22) |
 1288              		.loc 1 543 33 view .LVU399
 1289 0086 42EA0C0C 		orr	ip, r2, ip
 1290 008a 034B     		ldr	r3, .L100
 1291 008c 4CEA0303 		orr	r3, ip, r3
 1292 0090 C0F80039 		str	r3, [r0, #2304]
 1293 0094 DAE7     		b	.L97
 1294              	.L101:
 1295 0096 00BF     		.align	2
 1296              	.L100:
 1297 0098 00800010 		.word	268468224
 1298              		.cfi_endproc
 1299              	.LFE154:
 1301              		.section	.text.USB_ActivateDedicatedEndpoint,"ax",%progbits
 1302              		.align	1
 1303              		.global	USB_ActivateDedicatedEndpoint
 1304              		.syntax unified
 1305              		.thumb
 1306              		.thumb_func
 1308              	USB_ActivateDedicatedEndpoint:
 1309              	.LVL112:
 1310              	.LFB155:
 571:Drivers/STM32H7xx_HAL_Driver/Src/stm32h7xx_ll_usb.c ****   uint32_t USBx_BASE = (uint32_t)USBx;
 1311              		.loc 1 571 1 is_stmt 1 view -0
 1312              		.cfi_startproc
 1313              		@ args = 0, pretend = 0, frame = 0
 1314              		@ frame_needed = 0, uses_anonymous_args = 0
 1315              		@ link register save eliminated.
 571:Drivers/STM32H7xx_HAL_Driver/Src/stm32h7xx_ll_usb.c ****   uint32_t USBx_BASE = (uint32_t)USBx;
ARM GAS  /var/folders/26/q55yrwgs1ql1lprjdslmzz800000gn/T//ccC08pEc.s 			page 54


 1316              		.loc 1 571 1 is_stmt 0 view .LVU401
 1317 0000 30B4     		push	{r4, r5}
 1318              	.LCFI12:
 1319              		.cfi_def_cfa_offset 8
 1320              		.cfi_offset 4, -8
 1321              		.cfi_offset 5, -4
 572:Drivers/STM32H7xx_HAL_Driver/Src/stm32h7xx_ll_usb.c ****   uint32_t epnum = (uint32_t)ep->num;
 1322              		.loc 1 572 3 is_stmt 1 view .LVU402
 1323              	.LVL113:
 573:Drivers/STM32H7xx_HAL_Driver/Src/stm32h7xx_ll_usb.c **** 
 1324              		.loc 1 573 3 view .LVU403
 573:Drivers/STM32H7xx_HAL_Driver/Src/stm32h7xx_ll_usb.c **** 
 1325              		.loc 1 573 32 is_stmt 0 view .LVU404
 1326 0002 0A78     		ldrb	r2, [r1]	@ zero_extendqisi2
 1327              	.LVL114:
 576:Drivers/STM32H7xx_HAL_Driver/Src/stm32h7xx_ll_usb.c ****   {
 1328              		.loc 1 576 3 is_stmt 1 view .LVU405
 576:Drivers/STM32H7xx_HAL_Driver/Src/stm32h7xx_ll_usb.c ****   {
 1329              		.loc 1 576 9 is_stmt 0 view .LVU406
 1330 0004 4B78     		ldrb	r3, [r1, #1]	@ zero_extendqisi2
 576:Drivers/STM32H7xx_HAL_Driver/Src/stm32h7xx_ll_usb.c ****   {
 1331              		.loc 1 576 6 view .LVU407
 1332 0006 012B     		cmp	r3, #1
 1333 0008 23D0     		beq	.L108
 590:Drivers/STM32H7xx_HAL_Driver/Src/stm32h7xx_ll_usb.c ****     {
 1334              		.loc 1 590 5 is_stmt 1 view .LVU408
 590:Drivers/STM32H7xx_HAL_Driver/Src/stm32h7xx_ll_usb.c ****     {
 1335              		.loc 1 590 11 is_stmt 0 view .LVU409
 1336 000a 00EB421C 		add	ip, r0, r2, lsl #5
 590:Drivers/STM32H7xx_HAL_Driver/Src/stm32h7xx_ll_usb.c ****     {
 1337              		.loc 1 590 28 view .LVU410
 1338 000e DCF8003B 		ldr	r3, [ip, #2816]
 590:Drivers/STM32H7xx_HAL_Driver/Src/stm32h7xx_ll_usb.c ****     {
 1339              		.loc 1 590 8 view .LVU411
 1340 0012 13F4004F 		tst	r3, #32768
 1341 0016 0ED1     		bne	.L106
 592:Drivers/STM32H7xx_HAL_Driver/Src/stm32h7xx_ll_usb.c ****                                     ((uint32_t)ep->type << 18) | (epnum << 22) |
 1342              		.loc 1 592 7 is_stmt 1 view .LVU412
 592:Drivers/STM32H7xx_HAL_Driver/Src/stm32h7xx_ll_usb.c ****                                     ((uint32_t)ep->type << 18) | (epnum << 22) |
 1343              		.loc 1 592 34 is_stmt 0 view .LVU413
 1344 0018 DCF8004B 		ldr	r4, [ip, #2816]
 592:Drivers/STM32H7xx_HAL_Driver/Src/stm32h7xx_ll_usb.c ****                                     ((uint32_t)ep->type << 18) | (epnum << 22) |
 1345              		.loc 1 592 40 view .LVU414
 1346 001c 8B68     		ldr	r3, [r1, #8]
 592:Drivers/STM32H7xx_HAL_Driver/Src/stm32h7xx_ll_usb.c ****                                     ((uint32_t)ep->type << 18) | (epnum << 22) |
 1347              		.loc 1 592 52 view .LVU415
 1348 001e C3F30A03 		ubfx	r3, r3, #0, #11
 593:Drivers/STM32H7xx_HAL_Driver/Src/stm32h7xx_ll_usb.c ****                                     USB_OTG_DOEPCTL_USBAEP;
 1349              		.loc 1 593 50 view .LVU416
 1350 0022 CD78     		ldrb	r5, [r1, #3]	@ zero_extendqisi2
 592:Drivers/STM32H7xx_HAL_Driver/Src/stm32h7xx_ll_usb.c ****                                     ((uint32_t)ep->type << 18) | (epnum << 22) |
 1351              		.loc 1 592 77 view .LVU417
 1352 0024 43EA8543 		orr	r3, r3, r5, lsl #18
 593:Drivers/STM32H7xx_HAL_Driver/Src/stm32h7xx_ll_usb.c ****                                     USB_OTG_DOEPCTL_USBAEP;
 1353              		.loc 1 593 64 view .LVU418
 1354 0028 43EA8253 		orr	r3, r3, r2, lsl #22
 592:Drivers/STM32H7xx_HAL_Driver/Src/stm32h7xx_ll_usb.c ****                                     ((uint32_t)ep->type << 18) | (epnum << 22) |
ARM GAS  /var/folders/26/q55yrwgs1ql1lprjdslmzz800000gn/T//ccC08pEc.s 			page 55


 1355              		.loc 1 592 34 view .LVU419
 1356 002c 2343     		orrs	r3, r3, r4
 1357 002e 43F40043 		orr	r3, r3, #32768
 1358 0032 CCF8003B 		str	r3, [ip, #2816]
 1359              	.L106:
 597:Drivers/STM32H7xx_HAL_Driver/Src/stm32h7xx_ll_usb.c ****   }
 1360              		.loc 1 597 5 is_stmt 1 view .LVU420
 597:Drivers/STM32H7xx_HAL_Driver/Src/stm32h7xx_ll_usb.c ****   }
 1361              		.loc 1 597 27 is_stmt 0 view .LVU421
 1362 0036 D0F83C38 		ldr	r3, [r0, #2108]
 597:Drivers/STM32H7xx_HAL_Driver/Src/stm32h7xx_ll_usb.c ****   }
 1363              		.loc 1 597 76 view .LVU422
 1364 003a 0A78     		ldrb	r2, [r1]	@ zero_extendqisi2
 1365              	.LVL115:
 597:Drivers/STM32H7xx_HAL_Driver/Src/stm32h7xx_ll_usb.c ****   }
 1366              		.loc 1 597 82 view .LVU423
 1367 003c 02F00F01 		and	r1, r2, #15
 1368              	.LVL116:
 597:Drivers/STM32H7xx_HAL_Driver/Src/stm32h7xx_ll_usb.c ****   }
 1369              		.loc 1 597 55 view .LVU424
 1370 0040 0122     		movs	r2, #1
 1371 0042 8A40     		lsls	r2, r2, r1
 597:Drivers/STM32H7xx_HAL_Driver/Src/stm32h7xx_ll_usb.c ****   }
 1372              		.loc 1 597 27 view .LVU425
 1373 0044 43EA0243 		orr	r3, r3, r2, lsl #16
 1374 0048 C0F83C38 		str	r3, [r0, #2108]
 1375              	.L105:
 600:Drivers/STM32H7xx_HAL_Driver/Src/stm32h7xx_ll_usb.c **** }
 1376              		.loc 1 600 3 is_stmt 1 view .LVU426
 601:Drivers/STM32H7xx_HAL_Driver/Src/stm32h7xx_ll_usb.c **** 
 1377              		.loc 1 601 1 is_stmt 0 view .LVU427
 1378 004c 0020     		movs	r0, #0
 1379              	.LVL117:
 601:Drivers/STM32H7xx_HAL_Driver/Src/stm32h7xx_ll_usb.c **** 
 1380              		.loc 1 601 1 view .LVU428
 1381 004e 30BC     		pop	{r4, r5}
 1382              	.LCFI13:
 1383              		.cfi_remember_state
 1384              		.cfi_restore 5
 1385              		.cfi_restore 4
 1386              		.cfi_def_cfa_offset 0
 1387 0050 7047     		bx	lr
 1388              	.LVL118:
 1389              	.L108:
 1390              	.LCFI14:
 1391              		.cfi_restore_state
 578:Drivers/STM32H7xx_HAL_Driver/Src/stm32h7xx_ll_usb.c ****     {
 1392              		.loc 1 578 5 is_stmt 1 view .LVU429
 578:Drivers/STM32H7xx_HAL_Driver/Src/stm32h7xx_ll_usb.c ****     {
 1393              		.loc 1 578 11 is_stmt 0 view .LVU430
 1394 0052 00EB4214 		add	r4, r0, r2, lsl #5
 578:Drivers/STM32H7xx_HAL_Driver/Src/stm32h7xx_ll_usb.c ****     {
 1395              		.loc 1 578 27 view .LVU431
 1396 0056 D4F80039 		ldr	r3, [r4, #2304]
 578:Drivers/STM32H7xx_HAL_Driver/Src/stm32h7xx_ll_usb.c ****     {
 1397              		.loc 1 578 8 view .LVU432
 1398 005a 13F4004F 		tst	r3, #32768
ARM GAS  /var/folders/26/q55yrwgs1ql1lprjdslmzz800000gn/T//ccC08pEc.s 			page 56


 1399 005e 0FD1     		bne	.L104
 580:Drivers/STM32H7xx_HAL_Driver/Src/stm32h7xx_ll_usb.c ****                                    ((uint32_t)ep->type << 18) | (epnum << 22) |
 1400              		.loc 1 580 7 is_stmt 1 view .LVU433
 580:Drivers/STM32H7xx_HAL_Driver/Src/stm32h7xx_ll_usb.c ****                                    ((uint32_t)ep->type << 18) | (epnum << 22) |
 1401              		.loc 1 580 33 is_stmt 0 view .LVU434
 1402 0060 D4F80059 		ldr	r5, [r4, #2304]
 580:Drivers/STM32H7xx_HAL_Driver/Src/stm32h7xx_ll_usb.c ****                                    ((uint32_t)ep->type << 18) | (epnum << 22) |
 1403              		.loc 1 580 39 view .LVU435
 1404 0064 8B68     		ldr	r3, [r1, #8]
 580:Drivers/STM32H7xx_HAL_Driver/Src/stm32h7xx_ll_usb.c ****                                    ((uint32_t)ep->type << 18) | (epnum << 22) |
 1405              		.loc 1 580 51 view .LVU436
 1406 0066 C3F30A03 		ubfx	r3, r3, #0, #11
 581:Drivers/STM32H7xx_HAL_Driver/Src/stm32h7xx_ll_usb.c ****                                    USB_OTG_DIEPCTL_SD0PID_SEVNFRM |
 1407              		.loc 1 581 49 view .LVU437
 1408 006a 91F803C0 		ldrb	ip, [r1, #3]	@ zero_extendqisi2
 580:Drivers/STM32H7xx_HAL_Driver/Src/stm32h7xx_ll_usb.c ****                                    ((uint32_t)ep->type << 18) | (epnum << 22) |
 1409              		.loc 1 580 76 view .LVU438
 1410 006e 43EA8C43 		orr	r3, r3, ip, lsl #18
 581:Drivers/STM32H7xx_HAL_Driver/Src/stm32h7xx_ll_usb.c ****                                    USB_OTG_DIEPCTL_SD0PID_SEVNFRM |
 1411              		.loc 1 581 63 view .LVU439
 1412 0072 43EA8253 		orr	r3, r3, r2, lsl #22
 580:Drivers/STM32H7xx_HAL_Driver/Src/stm32h7xx_ll_usb.c ****                                    ((uint32_t)ep->type << 18) | (epnum << 22) |
 1413              		.loc 1 580 33 view .LVU440
 1414 0076 2B43     		orrs	r3, r3, r5
 1415 0078 074A     		ldr	r2, .L109
 1416              	.LVL119:
 580:Drivers/STM32H7xx_HAL_Driver/Src/stm32h7xx_ll_usb.c ****                                    ((uint32_t)ep->type << 18) | (epnum << 22) |
 1417              		.loc 1 580 33 view .LVU441
 1418 007a 1A43     		orrs	r2, r2, r3
 1419 007c C4F80029 		str	r2, [r4, #2304]
 1420              	.LVL120:
 1421              	.L104:
 586:Drivers/STM32H7xx_HAL_Driver/Src/stm32h7xx_ll_usb.c ****   }
 1422              		.loc 1 586 5 is_stmt 1 view .LVU442
 586:Drivers/STM32H7xx_HAL_Driver/Src/stm32h7xx_ll_usb.c ****   }
 1423              		.loc 1 586 27 is_stmt 0 view .LVU443
 1424 0080 D0F83C28 		ldr	r2, [r0, #2108]
 586:Drivers/STM32H7xx_HAL_Driver/Src/stm32h7xx_ll_usb.c ****   }
 1425              		.loc 1 586 75 view .LVU444
 1426 0084 0B78     		ldrb	r3, [r1]	@ zero_extendqisi2
 586:Drivers/STM32H7xx_HAL_Driver/Src/stm32h7xx_ll_usb.c ****   }
 1427              		.loc 1 586 81 view .LVU445
 1428 0086 03F00F01 		and	r1, r3, #15
 1429              	.LVL121:
 586:Drivers/STM32H7xx_HAL_Driver/Src/stm32h7xx_ll_usb.c ****   }
 1430              		.loc 1 586 54 view .LVU446
 1431 008a 0123     		movs	r3, #1
 1432 008c 8B40     		lsls	r3, r3, r1
 586:Drivers/STM32H7xx_HAL_Driver/Src/stm32h7xx_ll_usb.c ****   }
 1433              		.loc 1 586 52 view .LVU447
 1434 008e 9BB2     		uxth	r3, r3
 586:Drivers/STM32H7xx_HAL_Driver/Src/stm32h7xx_ll_usb.c ****   }
 1435              		.loc 1 586 27 view .LVU448
 1436 0090 1343     		orrs	r3, r3, r2
 1437 0092 C0F83C38 		str	r3, [r0, #2108]
 1438 0096 D9E7     		b	.L105
 1439              	.L110:
ARM GAS  /var/folders/26/q55yrwgs1ql1lprjdslmzz800000gn/T//ccC08pEc.s 			page 57


 1440              		.align	2
 1441              	.L109:
 1442 0098 00800010 		.word	268468224
 1443              		.cfi_endproc
 1444              	.LFE155:
 1446              		.section	.text.USB_DeactivateEndpoint,"ax",%progbits
 1447              		.align	1
 1448              		.global	USB_DeactivateEndpoint
 1449              		.syntax unified
 1450              		.thumb
 1451              		.thumb_func
 1453              	USB_DeactivateEndpoint:
 1454              	.LVL122:
 1455              	.LFB156:
 610:Drivers/STM32H7xx_HAL_Driver/Src/stm32h7xx_ll_usb.c ****   uint32_t USBx_BASE = (uint32_t)USBx;
 1456              		.loc 1 610 1 is_stmt 1 view -0
 1457              		.cfi_startproc
 1458              		@ args = 0, pretend = 0, frame = 0
 1459              		@ frame_needed = 0, uses_anonymous_args = 0
 1460              		@ link register save eliminated.
 610:Drivers/STM32H7xx_HAL_Driver/Src/stm32h7xx_ll_usb.c ****   uint32_t USBx_BASE = (uint32_t)USBx;
 1461              		.loc 1 610 1 is_stmt 0 view .LVU450
 1462 0000 30B4     		push	{r4, r5}
 1463              	.LCFI15:
 1464              		.cfi_def_cfa_offset 8
 1465              		.cfi_offset 4, -8
 1466              		.cfi_offset 5, -4
 611:Drivers/STM32H7xx_HAL_Driver/Src/stm32h7xx_ll_usb.c ****   uint32_t epnum = (uint32_t)ep->num;
 1467              		.loc 1 611 3 is_stmt 1 view .LVU451
 1468              	.LVL123:
 612:Drivers/STM32H7xx_HAL_Driver/Src/stm32h7xx_ll_usb.c **** 
 1469              		.loc 1 612 3 view .LVU452
 612:Drivers/STM32H7xx_HAL_Driver/Src/stm32h7xx_ll_usb.c **** 
 1470              		.loc 1 612 32 is_stmt 0 view .LVU453
 1471 0002 0B78     		ldrb	r3, [r1]	@ zero_extendqisi2
 1472              	.LVL124:
 615:Drivers/STM32H7xx_HAL_Driver/Src/stm32h7xx_ll_usb.c ****   {
 1473              		.loc 1 615 3 is_stmt 1 view .LVU454
 615:Drivers/STM32H7xx_HAL_Driver/Src/stm32h7xx_ll_usb.c ****   {
 1474              		.loc 1 615 9 is_stmt 0 view .LVU455
 1475 0004 4A78     		ldrb	r2, [r1, #1]	@ zero_extendqisi2
 615:Drivers/STM32H7xx_HAL_Driver/Src/stm32h7xx_ll_usb.c ****   {
 1476              		.loc 1 615 6 view .LVU456
 1477 0006 012A     		cmp	r2, #1
 1478 0008 26D0     		beq	.L117
 633:Drivers/STM32H7xx_HAL_Driver/Src/stm32h7xx_ll_usb.c ****     {
 1479              		.loc 1 633 5 is_stmt 1 view .LVU457
 633:Drivers/STM32H7xx_HAL_Driver/Src/stm32h7xx_ll_usb.c ****     {
 1480              		.loc 1 633 10 is_stmt 0 view .LVU458
 1481 000a 00EB4313 		add	r3, r0, r3, lsl #5
 1482              	.LVL125:
 633:Drivers/STM32H7xx_HAL_Driver/Src/stm32h7xx_ll_usb.c ****     {
 1483              		.loc 1 633 27 view .LVU459
 1484 000e D3F8002B 		ldr	r2, [r3, #2816]
 633:Drivers/STM32H7xx_HAL_Driver/Src/stm32h7xx_ll_usb.c ****     {
 1485              		.loc 1 633 8 view .LVU460
 1486 0012 002A     		cmp	r2, #0
ARM GAS  /var/folders/26/q55yrwgs1ql1lprjdslmzz800000gn/T//ccC08pEc.s 			page 58


 1487 0014 52DB     		blt	.L118
 1488              	.LVL126:
 1489              	.L115:
 639:Drivers/STM32H7xx_HAL_Driver/Src/stm32h7xx_ll_usb.c ****     USBx_DEVICE->DAINTMSK &= ~(USB_OTG_DAINTMSK_OEPM & ((uint32_t)(1UL << (ep->num & EP_ADDR_MSK)) 
 1490              		.loc 1 639 5 is_stmt 1 view .LVU461
 639:Drivers/STM32H7xx_HAL_Driver/Src/stm32h7xx_ll_usb.c ****     USBx_DEVICE->DAINTMSK &= ~(USB_OTG_DAINTMSK_OEPM & ((uint32_t)(1UL << (ep->num & EP_ADDR_MSK)) 
 1491              		.loc 1 639 27 is_stmt 0 view .LVU462
 1492 0016 D0F83C48 		ldr	r4, [r0, #2108]
 639:Drivers/STM32H7xx_HAL_Driver/Src/stm32h7xx_ll_usb.c ****     USBx_DEVICE->DAINTMSK &= ~(USB_OTG_DAINTMSK_OEPM & ((uint32_t)(1UL << (ep->num & EP_ADDR_MSK)) 
 1493              		.loc 1 639 78 view .LVU463
 1494 001a 0A78     		ldrb	r2, [r1]	@ zero_extendqisi2
 639:Drivers/STM32H7xx_HAL_Driver/Src/stm32h7xx_ll_usb.c ****     USBx_DEVICE->DAINTMSK &= ~(USB_OTG_DAINTMSK_OEPM & ((uint32_t)(1UL << (ep->num & EP_ADDR_MSK)) 
 1495              		.loc 1 639 84 view .LVU464
 1496 001c 02F00F02 		and	r2, r2, #15
 639:Drivers/STM32H7xx_HAL_Driver/Src/stm32h7xx_ll_usb.c ****     USBx_DEVICE->DAINTMSK &= ~(USB_OTG_DAINTMSK_OEPM & ((uint32_t)(1UL << (ep->num & EP_ADDR_MSK)) 
 1497              		.loc 1 639 57 view .LVU465
 1498 0020 4FF0010C 		mov	ip, #1
 1499 0024 0CFA02F2 		lsl	r2, ip, r2
 639:Drivers/STM32H7xx_HAL_Driver/Src/stm32h7xx_ll_usb.c ****     USBx_DEVICE->DAINTMSK &= ~(USB_OTG_DAINTMSK_OEPM & ((uint32_t)(1UL << (ep->num & EP_ADDR_MSK)) 
 1500              		.loc 1 639 27 view .LVU466
 1501 0028 24EA0242 		bic	r2, r4, r2, lsl #16
 1502 002c C0F83C28 		str	r2, [r0, #2108]
 640:Drivers/STM32H7xx_HAL_Driver/Src/stm32h7xx_ll_usb.c ****     USBx_OUTEP(epnum)->DOEPCTL &= ~(USB_OTG_DOEPCTL_USBAEP |
 1503              		.loc 1 640 5 is_stmt 1 view .LVU467
 640:Drivers/STM32H7xx_HAL_Driver/Src/stm32h7xx_ll_usb.c ****     USBx_OUTEP(epnum)->DOEPCTL &= ~(USB_OTG_DOEPCTL_USBAEP |
 1504              		.loc 1 640 27 is_stmt 0 view .LVU468
 1505 0030 D0F81C28 		ldr	r2, [r0, #2076]
 640:Drivers/STM32H7xx_HAL_Driver/Src/stm32h7xx_ll_usb.c ****     USBx_OUTEP(epnum)->DOEPCTL &= ~(USB_OTG_DOEPCTL_USBAEP |
 1506              		.loc 1 640 78 view .LVU469
 1507 0034 0978     		ldrb	r1, [r1]	@ zero_extendqisi2
 1508              	.LVL127:
 640:Drivers/STM32H7xx_HAL_Driver/Src/stm32h7xx_ll_usb.c ****     USBx_OUTEP(epnum)->DOEPCTL &= ~(USB_OTG_DOEPCTL_USBAEP |
 1509              		.loc 1 640 84 view .LVU470
 1510 0036 01F00F01 		and	r1, r1, #15
 640:Drivers/STM32H7xx_HAL_Driver/Src/stm32h7xx_ll_usb.c ****     USBx_OUTEP(epnum)->DOEPCTL &= ~(USB_OTG_DOEPCTL_USBAEP |
 1511              		.loc 1 640 57 view .LVU471
 1512 003a 0CFA01FC 		lsl	ip, ip, r1
 640:Drivers/STM32H7xx_HAL_Driver/Src/stm32h7xx_ll_usb.c ****     USBx_OUTEP(epnum)->DOEPCTL &= ~(USB_OTG_DOEPCTL_USBAEP |
 1513              		.loc 1 640 27 view .LVU472
 1514 003e 22EA0C42 		bic	r2, r2, ip, lsl #16
 1515 0042 C0F81C28 		str	r2, [r0, #2076]
 641:Drivers/STM32H7xx_HAL_Driver/Src/stm32h7xx_ll_usb.c ****                                     USB_OTG_DOEPCTL_MPSIZ |
 1516              		.loc 1 641 5 is_stmt 1 view .LVU473
 641:Drivers/STM32H7xx_HAL_Driver/Src/stm32h7xx_ll_usb.c ****                                     USB_OTG_DOEPCTL_MPSIZ |
 1517              		.loc 1 641 32 is_stmt 0 view .LVU474
 1518 0046 D3F8001B 		ldr	r1, [r3, #2816]
 1519 004a 234A     		ldr	r2, .L120
 1520 004c 0A40     		ands	r2, r2, r1
 1521 004e C3F8002B 		str	r2, [r3, #2816]
 1522              	.L114:
 647:Drivers/STM32H7xx_HAL_Driver/Src/stm32h7xx_ll_usb.c **** }
 1523              		.loc 1 647 3 is_stmt 1 view .LVU475
 648:Drivers/STM32H7xx_HAL_Driver/Src/stm32h7xx_ll_usb.c **** 
 1524              		.loc 1 648 1 is_stmt 0 view .LVU476
 1525 0052 0020     		movs	r0, #0
 1526              	.LVL128:
 648:Drivers/STM32H7xx_HAL_Driver/Src/stm32h7xx_ll_usb.c **** 
ARM GAS  /var/folders/26/q55yrwgs1ql1lprjdslmzz800000gn/T//ccC08pEc.s 			page 59


 1527              		.loc 1 648 1 view .LVU477
 1528 0054 30BC     		pop	{r4, r5}
 1529              	.LCFI16:
 1530              		.cfi_remember_state
 1531              		.cfi_restore 5
 1532              		.cfi_restore 4
 1533              		.cfi_def_cfa_offset 0
 1534 0056 7047     		bx	lr
 1535              	.LVL129:
 1536              	.L117:
 1537              	.LCFI17:
 1538              		.cfi_restore_state
 617:Drivers/STM32H7xx_HAL_Driver/Src/stm32h7xx_ll_usb.c ****     {
 1539              		.loc 1 617 5 is_stmt 1 view .LVU478
 617:Drivers/STM32H7xx_HAL_Driver/Src/stm32h7xx_ll_usb.c ****     {
 1540              		.loc 1 617 10 is_stmt 0 view .LVU479
 1541 0058 00EB4313 		add	r3, r0, r3, lsl #5
 1542              	.LVL130:
 617:Drivers/STM32H7xx_HAL_Driver/Src/stm32h7xx_ll_usb.c ****     {
 1543              		.loc 1 617 26 view .LVU480
 1544 005c D3F80029 		ldr	r2, [r3, #2304]
 617:Drivers/STM32H7xx_HAL_Driver/Src/stm32h7xx_ll_usb.c ****     {
 1545              		.loc 1 617 8 view .LVU481
 1546 0060 002A     		cmp	r2, #0
 1547 0062 1EDB     		blt	.L119
 1548              	.LVL131:
 1549              	.L113:
 623:Drivers/STM32H7xx_HAL_Driver/Src/stm32h7xx_ll_usb.c ****     USBx_DEVICE->DAINTMSK &= ~(USB_OTG_DAINTMSK_IEPM & (uint32_t)(1UL << (ep->num & EP_ADDR_MSK)));
 1550              		.loc 1 623 5 is_stmt 1 view .LVU482
 623:Drivers/STM32H7xx_HAL_Driver/Src/stm32h7xx_ll_usb.c ****     USBx_DEVICE->DAINTMSK &= ~(USB_OTG_DAINTMSK_IEPM & (uint32_t)(1UL << (ep->num & EP_ADDR_MSK)));
 1551              		.loc 1 623 27 is_stmt 0 view .LVU483
 1552 0064 D0F83C58 		ldr	r5, [r0, #2108]
 623:Drivers/STM32H7xx_HAL_Driver/Src/stm32h7xx_ll_usb.c ****     USBx_DEVICE->DAINTMSK &= ~(USB_OTG_DAINTMSK_IEPM & (uint32_t)(1UL << (ep->num & EP_ADDR_MSK)));
 1553              		.loc 1 623 77 view .LVU484
 1554 0068 0A78     		ldrb	r2, [r1]	@ zero_extendqisi2
 623:Drivers/STM32H7xx_HAL_Driver/Src/stm32h7xx_ll_usb.c ****     USBx_DEVICE->DAINTMSK &= ~(USB_OTG_DAINTMSK_IEPM & (uint32_t)(1UL << (ep->num & EP_ADDR_MSK)));
 1555              		.loc 1 623 83 view .LVU485
 1556 006a 02F00F02 		and	r2, r2, #15
 623:Drivers/STM32H7xx_HAL_Driver/Src/stm32h7xx_ll_usb.c ****     USBx_DEVICE->DAINTMSK &= ~(USB_OTG_DAINTMSK_IEPM & (uint32_t)(1UL << (ep->num & EP_ADDR_MSK)));
 1557              		.loc 1 623 56 view .LVU486
 1558 006e 0124     		movs	r4, #1
 1559 0070 04FA02F2 		lsl	r2, r4, r2
 623:Drivers/STM32H7xx_HAL_Driver/Src/stm32h7xx_ll_usb.c ****     USBx_DEVICE->DAINTMSK &= ~(USB_OTG_DAINTMSK_IEPM & (uint32_t)(1UL << (ep->num & EP_ADDR_MSK)));
 1560              		.loc 1 623 54 view .LVU487
 1561 0074 92B2     		uxth	r2, r2
 623:Drivers/STM32H7xx_HAL_Driver/Src/stm32h7xx_ll_usb.c ****     USBx_DEVICE->DAINTMSK &= ~(USB_OTG_DAINTMSK_IEPM & (uint32_t)(1UL << (ep->num & EP_ADDR_MSK)));
 1562              		.loc 1 623 27 view .LVU488
 1563 0076 25EA0202 		bic	r2, r5, r2
 1564 007a C0F83C28 		str	r2, [r0, #2108]
 624:Drivers/STM32H7xx_HAL_Driver/Src/stm32h7xx_ll_usb.c ****     USBx_INEP(epnum)->DIEPCTL &= ~(USB_OTG_DIEPCTL_USBAEP |
 1565              		.loc 1 624 5 is_stmt 1 view .LVU489
 624:Drivers/STM32H7xx_HAL_Driver/Src/stm32h7xx_ll_usb.c ****     USBx_INEP(epnum)->DIEPCTL &= ~(USB_OTG_DIEPCTL_USBAEP |
 1566              		.loc 1 624 27 is_stmt 0 view .LVU490
 1567 007e D0F81C28 		ldr	r2, [r0, #2076]
 624:Drivers/STM32H7xx_HAL_Driver/Src/stm32h7xx_ll_usb.c ****     USBx_INEP(epnum)->DIEPCTL &= ~(USB_OTG_DIEPCTL_USBAEP |
 1568              		.loc 1 624 77 view .LVU491
 1569 0082 0978     		ldrb	r1, [r1]	@ zero_extendqisi2
ARM GAS  /var/folders/26/q55yrwgs1ql1lprjdslmzz800000gn/T//ccC08pEc.s 			page 60


 1570              	.LVL132:
 624:Drivers/STM32H7xx_HAL_Driver/Src/stm32h7xx_ll_usb.c ****     USBx_INEP(epnum)->DIEPCTL &= ~(USB_OTG_DIEPCTL_USBAEP |
 1571              		.loc 1 624 83 view .LVU492
 1572 0084 01F00F01 		and	r1, r1, #15
 624:Drivers/STM32H7xx_HAL_Driver/Src/stm32h7xx_ll_usb.c ****     USBx_INEP(epnum)->DIEPCTL &= ~(USB_OTG_DIEPCTL_USBAEP |
 1573              		.loc 1 624 56 view .LVU493
 1574 0088 8C40     		lsls	r4, r4, r1
 624:Drivers/STM32H7xx_HAL_Driver/Src/stm32h7xx_ll_usb.c ****     USBx_INEP(epnum)->DIEPCTL &= ~(USB_OTG_DIEPCTL_USBAEP |
 1575              		.loc 1 624 54 view .LVU494
 1576 008a A4B2     		uxth	r4, r4
 624:Drivers/STM32H7xx_HAL_Driver/Src/stm32h7xx_ll_usb.c ****     USBx_INEP(epnum)->DIEPCTL &= ~(USB_OTG_DIEPCTL_USBAEP |
 1577              		.loc 1 624 27 view .LVU495
 1578 008c 22EA0404 		bic	r4, r2, r4
 1579 0090 C0F81C48 		str	r4, [r0, #2076]
 625:Drivers/STM32H7xx_HAL_Driver/Src/stm32h7xx_ll_usb.c ****                                    USB_OTG_DIEPCTL_MPSIZ |
 1580              		.loc 1 625 5 is_stmt 1 view .LVU496
 625:Drivers/STM32H7xx_HAL_Driver/Src/stm32h7xx_ll_usb.c ****                                    USB_OTG_DIEPCTL_MPSIZ |
 1581              		.loc 1 625 31 is_stmt 0 view .LVU497
 1582 0094 D3F80019 		ldr	r1, [r3, #2304]
 1583 0098 104A     		ldr	r2, .L120+4
 1584 009a 0A40     		ands	r2, r2, r1
 1585 009c C3F80029 		str	r2, [r3, #2304]
 1586 00a0 D7E7     		b	.L114
 1587              	.LVL133:
 1588              	.L119:
 619:Drivers/STM32H7xx_HAL_Driver/Src/stm32h7xx_ll_usb.c ****       USBx_INEP(epnum)->DIEPCTL |= USB_OTG_DIEPCTL_EPDIS;
 1589              		.loc 1 619 7 is_stmt 1 view .LVU498
 619:Drivers/STM32H7xx_HAL_Driver/Src/stm32h7xx_ll_usb.c ****       USBx_INEP(epnum)->DIEPCTL |= USB_OTG_DIEPCTL_EPDIS;
 1590              		.loc 1 619 33 is_stmt 0 view .LVU499
 1591 00a2 D3F80029 		ldr	r2, [r3, #2304]
 1592 00a6 42F00062 		orr	r2, r2, #134217728
 1593 00aa C3F80029 		str	r2, [r3, #2304]
 1594              	.LVL134:
 620:Drivers/STM32H7xx_HAL_Driver/Src/stm32h7xx_ll_usb.c ****     }
 1595              		.loc 1 620 7 is_stmt 1 view .LVU500
 620:Drivers/STM32H7xx_HAL_Driver/Src/stm32h7xx_ll_usb.c ****     }
 1596              		.loc 1 620 33 is_stmt 0 view .LVU501
 1597 00ae D3F80029 		ldr	r2, [r3, #2304]
 1598 00b2 42F08042 		orr	r2, r2, #1073741824
 1599 00b6 C3F80029 		str	r2, [r3, #2304]
 1600 00ba D3E7     		b	.L113
 1601              	.LVL135:
 1602              	.L118:
 635:Drivers/STM32H7xx_HAL_Driver/Src/stm32h7xx_ll_usb.c ****       USBx_OUTEP(epnum)->DOEPCTL |= USB_OTG_DOEPCTL_EPDIS;
 1603              		.loc 1 635 7 is_stmt 1 view .LVU502
 635:Drivers/STM32H7xx_HAL_Driver/Src/stm32h7xx_ll_usb.c ****       USBx_OUTEP(epnum)->DOEPCTL |= USB_OTG_DOEPCTL_EPDIS;
 1604              		.loc 1 635 34 is_stmt 0 view .LVU503
 1605 00bc D3F8002B 		ldr	r2, [r3, #2816]
 1606 00c0 42F00062 		orr	r2, r2, #134217728
 1607 00c4 C3F8002B 		str	r2, [r3, #2816]
 1608              	.LVL136:
 636:Drivers/STM32H7xx_HAL_Driver/Src/stm32h7xx_ll_usb.c ****     }
 1609              		.loc 1 636 7 is_stmt 1 view .LVU504
 636:Drivers/STM32H7xx_HAL_Driver/Src/stm32h7xx_ll_usb.c ****     }
 1610              		.loc 1 636 34 is_stmt 0 view .LVU505
 1611 00c8 D3F8002B 		ldr	r2, [r3, #2816]
 1612 00cc 42F08042 		orr	r2, r2, #1073741824
ARM GAS  /var/folders/26/q55yrwgs1ql1lprjdslmzz800000gn/T//ccC08pEc.s 			page 61


 1613 00d0 C3F8002B 		str	r2, [r3, #2816]
 1614 00d4 9FE7     		b	.L115
 1615              	.L121:
 1616 00d6 00BF     		.align	2
 1617              	.L120:
 1618 00d8 0078F3EF 		.word	-269256704
 1619 00dc 007833EC 		.word	-332171264
 1620              		.cfi_endproc
 1621              	.LFE156:
 1623              		.section	.text.USB_DeactivateDedicatedEndpoint,"ax",%progbits
 1624              		.align	1
 1625              		.global	USB_DeactivateDedicatedEndpoint
 1626              		.syntax unified
 1627              		.thumb
 1628              		.thumb_func
 1630              	USB_DeactivateDedicatedEndpoint:
 1631              	.LVL137:
 1632              	.LFB157:
 657:Drivers/STM32H7xx_HAL_Driver/Src/stm32h7xx_ll_usb.c ****   uint32_t USBx_BASE = (uint32_t)USBx;
 1633              		.loc 1 657 1 is_stmt 1 view -0
 1634              		.cfi_startproc
 1635              		@ args = 0, pretend = 0, frame = 0
 1636              		@ frame_needed = 0, uses_anonymous_args = 0
 1637              		@ link register save eliminated.
 658:Drivers/STM32H7xx_HAL_Driver/Src/stm32h7xx_ll_usb.c ****   uint32_t epnum = (uint32_t)ep->num;
 1638              		.loc 1 658 3 view .LVU507
 659:Drivers/STM32H7xx_HAL_Driver/Src/stm32h7xx_ll_usb.c **** 
 1639              		.loc 1 659 3 view .LVU508
 659:Drivers/STM32H7xx_HAL_Driver/Src/stm32h7xx_ll_usb.c **** 
 1640              		.loc 1 659 32 is_stmt 0 view .LVU509
 1641 0000 0B78     		ldrb	r3, [r1]	@ zero_extendqisi2
 1642              	.LVL138:
 662:Drivers/STM32H7xx_HAL_Driver/Src/stm32h7xx_ll_usb.c ****   {
 1643              		.loc 1 662 3 is_stmt 1 view .LVU510
 662:Drivers/STM32H7xx_HAL_Driver/Src/stm32h7xx_ll_usb.c ****   {
 1644              		.loc 1 662 9 is_stmt 0 view .LVU511
 1645 0002 4A78     		ldrb	r2, [r1, #1]	@ zero_extendqisi2
 662:Drivers/STM32H7xx_HAL_Driver/Src/stm32h7xx_ll_usb.c ****   {
 1646              		.loc 1 662 6 view .LVU512
 1647 0004 012A     		cmp	r2, #1
 1648 0006 18D0     		beq	.L127
 675:Drivers/STM32H7xx_HAL_Driver/Src/stm32h7xx_ll_usb.c ****     {
 1649              		.loc 1 675 5 is_stmt 1 view .LVU513
 675:Drivers/STM32H7xx_HAL_Driver/Src/stm32h7xx_ll_usb.c ****     {
 1650              		.loc 1 675 10 is_stmt 0 view .LVU514
 1651 0008 00EB4313 		add	r3, r0, r3, lsl #5
 1652              	.LVL139:
 675:Drivers/STM32H7xx_HAL_Driver/Src/stm32h7xx_ll_usb.c ****     {
 1653              		.loc 1 675 27 view .LVU515
 1654 000c D3F8002B 		ldr	r2, [r3, #2816]
 675:Drivers/STM32H7xx_HAL_Driver/Src/stm32h7xx_ll_usb.c ****     {
 1655              		.loc 1 675 8 view .LVU516
 1656 0010 002A     		cmp	r2, #0
 1657 0012 38DB     		blt	.L128
 1658              	.LVL140:
 1659              	.L126:
 681:Drivers/STM32H7xx_HAL_Driver/Src/stm32h7xx_ll_usb.c ****     USBx_DEVICE->DAINTMSK &= ~(USB_OTG_DAINTMSK_OEPM & ((uint32_t)(1UL << (ep->num & EP_ADDR_MSK)) 
ARM GAS  /var/folders/26/q55yrwgs1ql1lprjdslmzz800000gn/T//ccC08pEc.s 			page 62


 1660              		.loc 1 681 5 is_stmt 1 view .LVU517
 681:Drivers/STM32H7xx_HAL_Driver/Src/stm32h7xx_ll_usb.c ****     USBx_DEVICE->DAINTMSK &= ~(USB_OTG_DAINTMSK_OEPM & ((uint32_t)(1UL << (ep->num & EP_ADDR_MSK)) 
 1661              		.loc 1 681 32 is_stmt 0 view .LVU518
 1662 0014 D3F8002B 		ldr	r2, [r3, #2816]
 1663 0018 22F40042 		bic	r2, r2, #32768
 1664 001c C3F8002B 		str	r2, [r3, #2816]
 682:Drivers/STM32H7xx_HAL_Driver/Src/stm32h7xx_ll_usb.c ****   }
 1665              		.loc 1 682 5 is_stmt 1 view .LVU519
 682:Drivers/STM32H7xx_HAL_Driver/Src/stm32h7xx_ll_usb.c ****   }
 1666              		.loc 1 682 27 is_stmt 0 view .LVU520
 1667 0020 D0F81C38 		ldr	r3, [r0, #2076]
 682:Drivers/STM32H7xx_HAL_Driver/Src/stm32h7xx_ll_usb.c ****   }
 1668              		.loc 1 682 78 view .LVU521
 1669 0024 0A78     		ldrb	r2, [r1]	@ zero_extendqisi2
 682:Drivers/STM32H7xx_HAL_Driver/Src/stm32h7xx_ll_usb.c ****   }
 1670              		.loc 1 682 84 view .LVU522
 1671 0026 02F00F01 		and	r1, r2, #15
 1672              	.LVL141:
 682:Drivers/STM32H7xx_HAL_Driver/Src/stm32h7xx_ll_usb.c ****   }
 1673              		.loc 1 682 57 view .LVU523
 1674 002a 0122     		movs	r2, #1
 1675 002c 8A40     		lsls	r2, r2, r1
 682:Drivers/STM32H7xx_HAL_Driver/Src/stm32h7xx_ll_usb.c ****   }
 1676              		.loc 1 682 27 view .LVU524
 1677 002e 23EA0243 		bic	r3, r3, r2, lsl #16
 1678 0032 C0F81C38 		str	r3, [r0, #2076]
 1679              	.L125:
 685:Drivers/STM32H7xx_HAL_Driver/Src/stm32h7xx_ll_usb.c **** }
 1680              		.loc 1 685 3 is_stmt 1 view .LVU525
 686:Drivers/STM32H7xx_HAL_Driver/Src/stm32h7xx_ll_usb.c **** 
 1681              		.loc 1 686 1 is_stmt 0 view .LVU526
 1682 0036 0020     		movs	r0, #0
 1683              	.LVL142:
 686:Drivers/STM32H7xx_HAL_Driver/Src/stm32h7xx_ll_usb.c **** 
 1684              		.loc 1 686 1 view .LVU527
 1685 0038 7047     		bx	lr
 1686              	.LVL143:
 1687              	.L127:
 664:Drivers/STM32H7xx_HAL_Driver/Src/stm32h7xx_ll_usb.c ****     {
 1688              		.loc 1 664 5 is_stmt 1 view .LVU528
 664:Drivers/STM32H7xx_HAL_Driver/Src/stm32h7xx_ll_usb.c ****     {
 1689              		.loc 1 664 10 is_stmt 0 view .LVU529
 1690 003a 00EB4313 		add	r3, r0, r3, lsl #5
 1691              	.LVL144:
 664:Drivers/STM32H7xx_HAL_Driver/Src/stm32h7xx_ll_usb.c ****     {
 1692              		.loc 1 664 26 view .LVU530
 1693 003e D3F80029 		ldr	r2, [r3, #2304]
 664:Drivers/STM32H7xx_HAL_Driver/Src/stm32h7xx_ll_usb.c ****     {
 1694              		.loc 1 664 8 view .LVU531
 1695 0042 002A     		cmp	r2, #0
 1696 0044 12DB     		blt	.L129
 1697              	.LVL145:
 1698              	.L124:
 670:Drivers/STM32H7xx_HAL_Driver/Src/stm32h7xx_ll_usb.c ****     USBx_DEVICE->DAINTMSK &= ~(USB_OTG_DAINTMSK_IEPM & (uint32_t)(1UL << (ep->num & EP_ADDR_MSK)));
 1699              		.loc 1 670 5 is_stmt 1 view .LVU532
 670:Drivers/STM32H7xx_HAL_Driver/Src/stm32h7xx_ll_usb.c ****     USBx_DEVICE->DAINTMSK &= ~(USB_OTG_DAINTMSK_IEPM & (uint32_t)(1UL << (ep->num & EP_ADDR_MSK)));
 1700              		.loc 1 670 31 is_stmt 0 view .LVU533
ARM GAS  /var/folders/26/q55yrwgs1ql1lprjdslmzz800000gn/T//ccC08pEc.s 			page 63


 1701 0046 D3F80029 		ldr	r2, [r3, #2304]
 1702 004a 22F40042 		bic	r2, r2, #32768
 1703 004e C3F80029 		str	r2, [r3, #2304]
 671:Drivers/STM32H7xx_HAL_Driver/Src/stm32h7xx_ll_usb.c ****   }
 1704              		.loc 1 671 5 is_stmt 1 view .LVU534
 671:Drivers/STM32H7xx_HAL_Driver/Src/stm32h7xx_ll_usb.c ****   }
 1705              		.loc 1 671 27 is_stmt 0 view .LVU535
 1706 0052 D0F81C28 		ldr	r2, [r0, #2076]
 671:Drivers/STM32H7xx_HAL_Driver/Src/stm32h7xx_ll_usb.c ****   }
 1707              		.loc 1 671 77 view .LVU536
 1708 0056 0B78     		ldrb	r3, [r1]	@ zero_extendqisi2
 671:Drivers/STM32H7xx_HAL_Driver/Src/stm32h7xx_ll_usb.c ****   }
 1709              		.loc 1 671 83 view .LVU537
 1710 0058 03F00F01 		and	r1, r3, #15
 1711              	.LVL146:
 671:Drivers/STM32H7xx_HAL_Driver/Src/stm32h7xx_ll_usb.c ****   }
 1712              		.loc 1 671 56 view .LVU538
 1713 005c 0123     		movs	r3, #1
 1714 005e 8B40     		lsls	r3, r3, r1
 671:Drivers/STM32H7xx_HAL_Driver/Src/stm32h7xx_ll_usb.c ****   }
 1715              		.loc 1 671 54 view .LVU539
 1716 0060 9BB2     		uxth	r3, r3
 671:Drivers/STM32H7xx_HAL_Driver/Src/stm32h7xx_ll_usb.c ****   }
 1717              		.loc 1 671 27 view .LVU540
 1718 0062 22EA0303 		bic	r3, r2, r3
 1719 0066 C0F81C38 		str	r3, [r0, #2076]
 1720 006a E4E7     		b	.L125
 1721              	.LVL147:
 1722              	.L129:
 666:Drivers/STM32H7xx_HAL_Driver/Src/stm32h7xx_ll_usb.c ****       USBx_INEP(epnum)->DIEPCTL  |= USB_OTG_DIEPCTL_EPDIS;
 1723              		.loc 1 666 7 is_stmt 1 view .LVU541
 666:Drivers/STM32H7xx_HAL_Driver/Src/stm32h7xx_ll_usb.c ****       USBx_INEP(epnum)->DIEPCTL  |= USB_OTG_DIEPCTL_EPDIS;
 1724              		.loc 1 666 34 is_stmt 0 view .LVU542
 1725 006c D3F80029 		ldr	r2, [r3, #2304]
 1726 0070 42F00062 		orr	r2, r2, #134217728
 1727 0074 C3F80029 		str	r2, [r3, #2304]
 1728              	.LVL148:
 667:Drivers/STM32H7xx_HAL_Driver/Src/stm32h7xx_ll_usb.c ****     }
 1729              		.loc 1 667 7 is_stmt 1 view .LVU543
 667:Drivers/STM32H7xx_HAL_Driver/Src/stm32h7xx_ll_usb.c ****     }
 1730              		.loc 1 667 34 is_stmt 0 view .LVU544
 1731 0078 D3F80029 		ldr	r2, [r3, #2304]
 1732 007c 42F08042 		orr	r2, r2, #1073741824
 1733 0080 C3F80029 		str	r2, [r3, #2304]
 1734 0084 DFE7     		b	.L124
 1735              	.LVL149:
 1736              	.L128:
 677:Drivers/STM32H7xx_HAL_Driver/Src/stm32h7xx_ll_usb.c ****       USBx_OUTEP(epnum)->DOEPCTL  |= USB_OTG_DOEPCTL_EPDIS;
 1737              		.loc 1 677 7 is_stmt 1 view .LVU545
 677:Drivers/STM32H7xx_HAL_Driver/Src/stm32h7xx_ll_usb.c ****       USBx_OUTEP(epnum)->DOEPCTL  |= USB_OTG_DOEPCTL_EPDIS;
 1738              		.loc 1 677 35 is_stmt 0 view .LVU546
 1739 0086 D3F8002B 		ldr	r2, [r3, #2816]
 1740 008a 42F00062 		orr	r2, r2, #134217728
 1741 008e C3F8002B 		str	r2, [r3, #2816]
 1742              	.LVL150:
 678:Drivers/STM32H7xx_HAL_Driver/Src/stm32h7xx_ll_usb.c ****     }
 1743              		.loc 1 678 7 is_stmt 1 view .LVU547
ARM GAS  /var/folders/26/q55yrwgs1ql1lprjdslmzz800000gn/T//ccC08pEc.s 			page 64


 678:Drivers/STM32H7xx_HAL_Driver/Src/stm32h7xx_ll_usb.c ****     }
 1744              		.loc 1 678 35 is_stmt 0 view .LVU548
 1745 0092 D3F8002B 		ldr	r2, [r3, #2816]
 1746 0096 42F08042 		orr	r2, r2, #1073741824
 1747 009a C3F8002B 		str	r2, [r3, #2816]
 1748 009e B9E7     		b	.L126
 1749              		.cfi_endproc
 1750              	.LFE157:
 1752              		.section	.text.USB_EP0StartXfer,"ax",%progbits
 1753              		.align	1
 1754              		.global	USB_EP0StartXfer
 1755              		.syntax unified
 1756              		.thumb
 1757              		.thumb_func
 1759              	USB_EP0StartXfer:
 1760              	.LVL151:
 1761              	.LFB159:
 841:Drivers/STM32H7xx_HAL_Driver/Src/stm32h7xx_ll_usb.c ****   uint32_t USBx_BASE = (uint32_t)USBx;
 1762              		.loc 1 841 1 is_stmt 1 view -0
 1763              		.cfi_startproc
 1764              		@ args = 0, pretend = 0, frame = 0
 1765              		@ frame_needed = 0, uses_anonymous_args = 0
 1766              		@ link register save eliminated.
 841:Drivers/STM32H7xx_HAL_Driver/Src/stm32h7xx_ll_usb.c ****   uint32_t USBx_BASE = (uint32_t)USBx;
 1767              		.loc 1 841 1 is_stmt 0 view .LVU550
 1768 0000 70B4     		push	{r4, r5, r6}
 1769              	.LCFI18:
 1770              		.cfi_def_cfa_offset 12
 1771              		.cfi_offset 4, -12
 1772              		.cfi_offset 5, -8
 1773              		.cfi_offset 6, -4
 842:Drivers/STM32H7xx_HAL_Driver/Src/stm32h7xx_ll_usb.c ****   uint32_t epnum = (uint32_t)ep->num;
 1774              		.loc 1 842 3 is_stmt 1 view .LVU551
 1775              	.LVL152:
 843:Drivers/STM32H7xx_HAL_Driver/Src/stm32h7xx_ll_usb.c **** 
 1776              		.loc 1 843 3 view .LVU552
 843:Drivers/STM32H7xx_HAL_Driver/Src/stm32h7xx_ll_usb.c **** 
 1777              		.loc 1 843 32 is_stmt 0 view .LVU553
 1778 0002 0B78     		ldrb	r3, [r1]	@ zero_extendqisi2
 1779              	.LVL153:
 846:Drivers/STM32H7xx_HAL_Driver/Src/stm32h7xx_ll_usb.c ****   {
 1780              		.loc 1 846 3 is_stmt 1 view .LVU554
 846:Drivers/STM32H7xx_HAL_Driver/Src/stm32h7xx_ll_usb.c ****   {
 1781              		.loc 1 846 9 is_stmt 0 view .LVU555
 1782 0004 4C78     		ldrb	r4, [r1, #1]	@ zero_extendqisi2
 846:Drivers/STM32H7xx_HAL_Driver/Src/stm32h7xx_ll_usb.c ****   {
 1783              		.loc 1 846 6 view .LVU556
 1784 0006 012C     		cmp	r4, #1
 1785 0008 25D0     		beq	.L141
 901:Drivers/STM32H7xx_HAL_Driver/Src/stm32h7xx_ll_usb.c ****     USBx_OUTEP(epnum)->DOEPTSIZ &= ~(USB_OTG_DOEPTSIZ_PKTCNT);
 1786              		.loc 1 901 5 is_stmt 1 view .LVU557
 901:Drivers/STM32H7xx_HAL_Driver/Src/stm32h7xx_ll_usb.c ****     USBx_OUTEP(epnum)->DOEPTSIZ &= ~(USB_OTG_DOEPTSIZ_PKTCNT);
 1787              		.loc 1 901 33 is_stmt 0 view .LVU558
 1788 000a 00EB4310 		add	r0, r0, r3, lsl #5
 1789              	.LVL154:
 901:Drivers/STM32H7xx_HAL_Driver/Src/stm32h7xx_ll_usb.c ****     USBx_OUTEP(epnum)->DOEPTSIZ &= ~(USB_OTG_DOEPTSIZ_PKTCNT);
 1790              		.loc 1 901 33 view .LVU559
ARM GAS  /var/folders/26/q55yrwgs1ql1lprjdslmzz800000gn/T//ccC08pEc.s 			page 65


 1791 000e 00F53063 		add	r3, r0, #2816
 1792              	.LVL155:
 901:Drivers/STM32H7xx_HAL_Driver/Src/stm32h7xx_ll_usb.c ****     USBx_OUTEP(epnum)->DOEPTSIZ &= ~(USB_OTG_DOEPTSIZ_PKTCNT);
 1793              		.loc 1 901 33 view .LVU560
 1794 0012 1D69     		ldr	r5, [r3, #16]
 1795 0014 3F4C     		ldr	r4, .L144
 1796 0016 2C40     		ands	r4, r4, r5
 1797 0018 1C61     		str	r4, [r3, #16]
 1798              	.LVL156:
 902:Drivers/STM32H7xx_HAL_Driver/Src/stm32h7xx_ll_usb.c **** 
 1799              		.loc 1 902 5 is_stmt 1 view .LVU561
 902:Drivers/STM32H7xx_HAL_Driver/Src/stm32h7xx_ll_usb.c **** 
 1800              		.loc 1 902 33 is_stmt 0 view .LVU562
 1801 001a 1D69     		ldr	r5, [r3, #16]
 1802 001c 3E4C     		ldr	r4, .L144+4
 1803 001e 2C40     		ands	r4, r4, r5
 1804 0020 1C61     		str	r4, [r3, #16]
 904:Drivers/STM32H7xx_HAL_Driver/Src/stm32h7xx_ll_usb.c ****     {
 1805              		.loc 1 904 5 is_stmt 1 view .LVU563
 904:Drivers/STM32H7xx_HAL_Driver/Src/stm32h7xx_ll_usb.c ****     {
 1806              		.loc 1 904 11 is_stmt 0 view .LVU564
 1807 0022 4C69     		ldr	r4, [r1, #20]
 904:Drivers/STM32H7xx_HAL_Driver/Src/stm32h7xx_ll_usb.c ****     {
 1808              		.loc 1 904 8 view .LVU565
 1809 0024 0CB1     		cbz	r4, .L138
 906:Drivers/STM32H7xx_HAL_Driver/Src/stm32h7xx_ll_usb.c ****     }
 1810              		.loc 1 906 7 is_stmt 1 view .LVU566
 906:Drivers/STM32H7xx_HAL_Driver/Src/stm32h7xx_ll_usb.c ****     }
 1811              		.loc 1 906 24 is_stmt 0 view .LVU567
 1812 0026 8C68     		ldr	r4, [r1, #8]
 906:Drivers/STM32H7xx_HAL_Driver/Src/stm32h7xx_ll_usb.c ****     }
 1813              		.loc 1 906 20 view .LVU568
 1814 0028 4C61     		str	r4, [r1, #20]
 1815              	.L138:
 909:Drivers/STM32H7xx_HAL_Driver/Src/stm32h7xx_ll_usb.c ****     USBx_OUTEP(epnum)->DOEPTSIZ |= (USB_OTG_DOEPTSIZ_XFRSIZ & (ep->maxpacket));
 1816              		.loc 1 909 5 is_stmt 1 view .LVU569
 909:Drivers/STM32H7xx_HAL_Driver/Src/stm32h7xx_ll_usb.c ****     USBx_OUTEP(epnum)->DOEPTSIZ |= (USB_OTG_DOEPTSIZ_XFRSIZ & (ep->maxpacket));
 1817              		.loc 1 909 33 is_stmt 0 view .LVU570
 1818 002a 1C69     		ldr	r4, [r3, #16]
 1819 002c 44F40024 		orr	r4, r4, #524288
 1820 0030 1C61     		str	r4, [r3, #16]
 910:Drivers/STM32H7xx_HAL_Driver/Src/stm32h7xx_ll_usb.c **** 
 1821              		.loc 1 910 5 is_stmt 1 view .LVU571
 910:Drivers/STM32H7xx_HAL_Driver/Src/stm32h7xx_ll_usb.c **** 
 1822              		.loc 1 910 33 is_stmt 0 view .LVU572
 1823 0032 1C69     		ldr	r4, [r3, #16]
 910:Drivers/STM32H7xx_HAL_Driver/Src/stm32h7xx_ll_usb.c **** 
 1824              		.loc 1 910 61 view .LVU573
 1825 0034 8D68     		ldr	r5, [r1, #8]
 1826 0036 C5F3120C 		ubfx	ip, r5, #0, #19
 910:Drivers/STM32H7xx_HAL_Driver/Src/stm32h7xx_ll_usb.c **** 
 1827              		.loc 1 910 33 view .LVU574
 1828 003a 44EA0C04 		orr	r4, r4, ip
 1829 003e 1C61     		str	r4, [r3, #16]
 912:Drivers/STM32H7xx_HAL_Driver/Src/stm32h7xx_ll_usb.c ****     {
 1830              		.loc 1 912 5 is_stmt 1 view .LVU575
 912:Drivers/STM32H7xx_HAL_Driver/Src/stm32h7xx_ll_usb.c ****     {
ARM GAS  /var/folders/26/q55yrwgs1ql1lprjdslmzz800000gn/T//ccC08pEc.s 			page 66


 1831              		.loc 1 912 8 is_stmt 0 view .LVU576
 1832 0040 012A     		cmp	r2, #1
 1833 0042 62D0     		beq	.L142
 1834              	.LVL157:
 1835              	.L139:
 921:Drivers/STM32H7xx_HAL_Driver/Src/stm32h7xx_ll_usb.c ****   }
 1836              		.loc 1 921 5 is_stmt 1 view .LVU577
 921:Drivers/STM32H7xx_HAL_Driver/Src/stm32h7xx_ll_usb.c ****   }
 1837              		.loc 1 921 32 is_stmt 0 view .LVU578
 1838 0044 D0F8003B 		ldr	r3, [r0, #2816]
 1839 0048 43F00443 		orr	r3, r3, #-2080374784
 1840 004c C0F8003B 		str	r3, [r0, #2816]
 1841              	.LVL158:
 1842              	.L137:
 924:Drivers/STM32H7xx_HAL_Driver/Src/stm32h7xx_ll_usb.c **** }
 1843              		.loc 1 924 3 is_stmt 1 view .LVU579
 925:Drivers/STM32H7xx_HAL_Driver/Src/stm32h7xx_ll_usb.c **** 
 1844              		.loc 1 925 1 is_stmt 0 view .LVU580
 1845 0050 0020     		movs	r0, #0
 1846 0052 70BC     		pop	{r4, r5, r6}
 1847              	.LCFI19:
 1848              		.cfi_remember_state
 1849              		.cfi_restore 6
 1850              		.cfi_restore 5
 1851              		.cfi_restore 4
 1852              		.cfi_def_cfa_offset 0
 1853 0054 7047     		bx	lr
 1854              	.LVL159:
 1855              	.L141:
 1856              	.LCFI20:
 1857              		.cfi_restore_state
 849:Drivers/STM32H7xx_HAL_Driver/Src/stm32h7xx_ll_usb.c ****     {
 1858              		.loc 1 849 5 is_stmt 1 view .LVU581
 849:Drivers/STM32H7xx_HAL_Driver/Src/stm32h7xx_ll_usb.c ****     {
 1859              		.loc 1 849 11 is_stmt 0 view .LVU582
 1860 0056 4C69     		ldr	r4, [r1, #20]
 849:Drivers/STM32H7xx_HAL_Driver/Src/stm32h7xx_ll_usb.c ****     {
 1861              		.loc 1 849 8 view .LVU583
 1862 0058 5CBB     		cbnz	r4, .L132
 851:Drivers/STM32H7xx_HAL_Driver/Src/stm32h7xx_ll_usb.c ****       USBx_INEP(epnum)->DIEPTSIZ |= (USB_OTG_DIEPTSIZ_PKTCNT & (1U << 19));
 1863              		.loc 1 851 7 is_stmt 1 view .LVU584
 851:Drivers/STM32H7xx_HAL_Driver/Src/stm32h7xx_ll_usb.c ****       USBx_INEP(epnum)->DIEPTSIZ |= (USB_OTG_DIEPTSIZ_PKTCNT & (1U << 19));
 1864              		.loc 1 851 34 is_stmt 0 view .LVU585
 1865 005a 00EB4314 		add	r4, r0, r3, lsl #5
 1866 005e D4F81069 		ldr	r6, [r4, #2320]
 1867 0062 2D4D     		ldr	r5, .L144+4
 1868 0064 3540     		ands	r5, r5, r6
 1869 0066 C4F81059 		str	r5, [r4, #2320]
 852:Drivers/STM32H7xx_HAL_Driver/Src/stm32h7xx_ll_usb.c ****       USBx_INEP(epnum)->DIEPTSIZ &= ~(USB_OTG_DIEPTSIZ_XFRSIZ);
 1870              		.loc 1 852 7 is_stmt 1 view .LVU586
 852:Drivers/STM32H7xx_HAL_Driver/Src/stm32h7xx_ll_usb.c ****       USBx_INEP(epnum)->DIEPTSIZ &= ~(USB_OTG_DIEPTSIZ_XFRSIZ);
 1871              		.loc 1 852 34 is_stmt 0 view .LVU587
 1872 006a D4F81059 		ldr	r5, [r4, #2320]
 1873 006e 45F40025 		orr	r5, r5, #524288
 1874 0072 C4F81059 		str	r5, [r4, #2320]
 853:Drivers/STM32H7xx_HAL_Driver/Src/stm32h7xx_ll_usb.c ****     }
 1875              		.loc 1 853 7 is_stmt 1 view .LVU588
ARM GAS  /var/folders/26/q55yrwgs1ql1lprjdslmzz800000gn/T//ccC08pEc.s 			page 67


 853:Drivers/STM32H7xx_HAL_Driver/Src/stm32h7xx_ll_usb.c ****     }
 1876              		.loc 1 853 34 is_stmt 0 view .LVU589
 1877 0076 D4F81069 		ldr	r6, [r4, #2320]
 1878 007a 264D     		ldr	r5, .L144
 1879 007c 3540     		ands	r5, r5, r6
 1880 007e C4F81059 		str	r5, [r4, #2320]
 1881              	.L133:
 873:Drivers/STM32H7xx_HAL_Driver/Src/stm32h7xx_ll_usb.c ****     {
 1882              		.loc 1 873 5 is_stmt 1 view .LVU590
 873:Drivers/STM32H7xx_HAL_Driver/Src/stm32h7xx_ll_usb.c ****     {
 1883              		.loc 1 873 8 is_stmt 0 view .LVU591
 1884 0082 012A     		cmp	r2, #1
 1885 0084 32D0     		beq	.L143
 886:Drivers/STM32H7xx_HAL_Driver/Src/stm32h7xx_ll_usb.c **** 
 1886              		.loc 1 886 7 is_stmt 1 view .LVU592
 886:Drivers/STM32H7xx_HAL_Driver/Src/stm32h7xx_ll_usb.c **** 
 1887              		.loc 1 886 33 is_stmt 0 view .LVU593
 1888 0086 00EB4313 		add	r3, r0, r3, lsl #5
 1889              	.LVL160:
 886:Drivers/STM32H7xx_HAL_Driver/Src/stm32h7xx_ll_usb.c **** 
 1890              		.loc 1 886 33 view .LVU594
 1891 008a D3F80029 		ldr	r2, [r3, #2304]
 1892              	.LVL161:
 886:Drivers/STM32H7xx_HAL_Driver/Src/stm32h7xx_ll_usb.c **** 
 1893              		.loc 1 886 33 view .LVU595
 1894 008e 42F00442 		orr	r2, r2, #-2080374784
 1895 0092 C3F80029 		str	r2, [r3, #2304]
 889:Drivers/STM32H7xx_HAL_Driver/Src/stm32h7xx_ll_usb.c ****       {
 1896              		.loc 1 889 7 is_stmt 1 view .LVU596
 889:Drivers/STM32H7xx_HAL_Driver/Src/stm32h7xx_ll_usb.c ****       {
 1897              		.loc 1 889 13 is_stmt 0 view .LVU597
 1898 0096 4B69     		ldr	r3, [r1, #20]
 889:Drivers/STM32H7xx_HAL_Driver/Src/stm32h7xx_ll_usb.c ****       {
 1899              		.loc 1 889 10 view .LVU598
 1900 0098 002B     		cmp	r3, #0
 1901 009a D9D0     		beq	.L137
 891:Drivers/STM32H7xx_HAL_Driver/Src/stm32h7xx_ll_usb.c ****       }
 1902              		.loc 1 891 9 is_stmt 1 view .LVU599
 891:Drivers/STM32H7xx_HAL_Driver/Src/stm32h7xx_ll_usb.c ****       }
 1903              		.loc 1 891 33 is_stmt 0 view .LVU600
 1904 009c D0F83438 		ldr	r3, [r0, #2100]
 891:Drivers/STM32H7xx_HAL_Driver/Src/stm32h7xx_ll_usb.c ****       }
 1905              		.loc 1 891 46 view .LVU601
 1906 00a0 0A78     		ldrb	r2, [r1]	@ zero_extendqisi2
 891:Drivers/STM32H7xx_HAL_Driver/Src/stm32h7xx_ll_usb.c ****       }
 1907              		.loc 1 891 52 view .LVU602
 1908 00a2 02F00F01 		and	r1, r2, #15
 1909              	.LVL162:
 891:Drivers/STM32H7xx_HAL_Driver/Src/stm32h7xx_ll_usb.c ****       }
 1910              		.loc 1 891 40 view .LVU603
 1911 00a6 0122     		movs	r2, #1
 1912 00a8 8A40     		lsls	r2, r2, r1
 891:Drivers/STM32H7xx_HAL_Driver/Src/stm32h7xx_ll_usb.c ****       }
 1913              		.loc 1 891 33 view .LVU604
 1914 00aa 1343     		orrs	r3, r3, r2
 1915 00ac C0F83438 		str	r3, [r0, #2100]
 1916 00b0 CEE7     		b	.L137
ARM GAS  /var/folders/26/q55yrwgs1ql1lprjdslmzz800000gn/T//ccC08pEc.s 			page 68


 1917              	.LVL163:
 1918              	.L132:
 862:Drivers/STM32H7xx_HAL_Driver/Src/stm32h7xx_ll_usb.c ****       USBx_INEP(epnum)->DIEPTSIZ &= ~(USB_OTG_DIEPTSIZ_PKTCNT);
 1919              		.loc 1 862 7 is_stmt 1 view .LVU605
 862:Drivers/STM32H7xx_HAL_Driver/Src/stm32h7xx_ll_usb.c ****       USBx_INEP(epnum)->DIEPTSIZ &= ~(USB_OTG_DIEPTSIZ_PKTCNT);
 1920              		.loc 1 862 34 is_stmt 0 view .LVU606
 1921 00b2 00EB4314 		add	r4, r0, r3, lsl #5
 1922 00b6 04F51064 		add	r4, r4, #2304
 1923 00ba 2669     		ldr	r6, [r4, #16]
 1924 00bc 154D     		ldr	r5, .L144
 1925 00be 3540     		ands	r5, r5, r6
 1926 00c0 2561     		str	r5, [r4, #16]
 863:Drivers/STM32H7xx_HAL_Driver/Src/stm32h7xx_ll_usb.c **** 
 1927              		.loc 1 863 7 is_stmt 1 view .LVU607
 863:Drivers/STM32H7xx_HAL_Driver/Src/stm32h7xx_ll_usb.c **** 
 1928              		.loc 1 863 34 is_stmt 0 view .LVU608
 1929 00c2 2669     		ldr	r6, [r4, #16]
 1930 00c4 144D     		ldr	r5, .L144+4
 1931 00c6 3540     		ands	r5, r5, r6
 1932 00c8 2561     		str	r5, [r4, #16]
 865:Drivers/STM32H7xx_HAL_Driver/Src/stm32h7xx_ll_usb.c ****       {
 1933              		.loc 1 865 7 is_stmt 1 view .LVU609
 865:Drivers/STM32H7xx_HAL_Driver/Src/stm32h7xx_ll_usb.c ****       {
 1934              		.loc 1 865 28 is_stmt 0 view .LVU610
 1935 00ca 8D68     		ldr	r5, [r1, #8]
 865:Drivers/STM32H7xx_HAL_Driver/Src/stm32h7xx_ll_usb.c ****       {
 1936              		.loc 1 865 10 view .LVU611
 1937 00cc 4E69     		ldr	r6, [r1, #20]
 1938 00ce AE42     		cmp	r6, r5
 1939 00d0 00D9     		bls	.L134
 867:Drivers/STM32H7xx_HAL_Driver/Src/stm32h7xx_ll_usb.c ****       }
 1940              		.loc 1 867 9 is_stmt 1 view .LVU612
 867:Drivers/STM32H7xx_HAL_Driver/Src/stm32h7xx_ll_usb.c ****       }
 1941              		.loc 1 867 22 is_stmt 0 view .LVU613
 1942 00d2 4D61     		str	r5, [r1, #20]
 1943              	.L134:
 869:Drivers/STM32H7xx_HAL_Driver/Src/stm32h7xx_ll_usb.c ****       USBx_INEP(epnum)->DIEPTSIZ |= (USB_OTG_DIEPTSIZ_XFRSIZ & ep->xfer_len);
 1944              		.loc 1 869 7 is_stmt 1 view .LVU614
 869:Drivers/STM32H7xx_HAL_Driver/Src/stm32h7xx_ll_usb.c ****       USBx_INEP(epnum)->DIEPTSIZ |= (USB_OTG_DIEPTSIZ_XFRSIZ & ep->xfer_len);
 1945              		.loc 1 869 34 is_stmt 0 view .LVU615
 1946 00d4 2569     		ldr	r5, [r4, #16]
 1947 00d6 45F40025 		orr	r5, r5, #524288
 1948 00da 2561     		str	r5, [r4, #16]
 870:Drivers/STM32H7xx_HAL_Driver/Src/stm32h7xx_ll_usb.c ****     }
 1949              		.loc 1 870 7 is_stmt 1 view .LVU616
 870:Drivers/STM32H7xx_HAL_Driver/Src/stm32h7xx_ll_usb.c ****     }
 1950              		.loc 1 870 34 is_stmt 0 view .LVU617
 1951 00dc 2569     		ldr	r5, [r4, #16]
 870:Drivers/STM32H7xx_HAL_Driver/Src/stm32h7xx_ll_usb.c ****     }
 1952              		.loc 1 870 62 view .LVU618
 1953 00de 4E69     		ldr	r6, [r1, #20]
 1954 00e0 C6F3120C 		ubfx	ip, r6, #0, #19
 870:Drivers/STM32H7xx_HAL_Driver/Src/stm32h7xx_ll_usb.c ****     }
 1955              		.loc 1 870 34 view .LVU619
 1956 00e4 45EA0C05 		orr	r5, r5, ip
 1957 00e8 2561     		str	r5, [r4, #16]
 1958 00ea CAE7     		b	.L133
ARM GAS  /var/folders/26/q55yrwgs1ql1lprjdslmzz800000gn/T//ccC08pEc.s 			page 69


 1959              	.L143:
 875:Drivers/STM32H7xx_HAL_Driver/Src/stm32h7xx_ll_usb.c ****       {
 1960              		.loc 1 875 7 is_stmt 1 view .LVU620
 875:Drivers/STM32H7xx_HAL_Driver/Src/stm32h7xx_ll_usb.c ****       {
 1961              		.loc 1 875 23 is_stmt 0 view .LVU621
 1962 00ec 0A69     		ldr	r2, [r1, #16]
 1963              	.LVL164:
 875:Drivers/STM32H7xx_HAL_Driver/Src/stm32h7xx_ll_usb.c ****       {
 1964              		.loc 1 875 10 view .LVU622
 1965 00ee 1AB1     		cbz	r2, .L136
 877:Drivers/STM32H7xx_HAL_Driver/Src/stm32h7xx_ll_usb.c ****       }
 1966              		.loc 1 877 9 is_stmt 1 view .LVU623
 1967 00f0 00EB4311 		add	r1, r0, r3, lsl #5
 1968              	.LVL165:
 877:Drivers/STM32H7xx_HAL_Driver/Src/stm32h7xx_ll_usb.c ****       }
 1969              		.loc 1 877 35 is_stmt 0 view .LVU624
 1970 00f4 C1F81429 		str	r2, [r1, #2324]
 1971              	.L136:
 881:Drivers/STM32H7xx_HAL_Driver/Src/stm32h7xx_ll_usb.c ****     }
 1972              		.loc 1 881 7 is_stmt 1 view .LVU625
 881:Drivers/STM32H7xx_HAL_Driver/Src/stm32h7xx_ll_usb.c ****     }
 1973              		.loc 1 881 33 is_stmt 0 view .LVU626
 1974 00f8 00EB4310 		add	r0, r0, r3, lsl #5
 1975              	.LVL166:
 881:Drivers/STM32H7xx_HAL_Driver/Src/stm32h7xx_ll_usb.c ****     }
 1976              		.loc 1 881 33 view .LVU627
 1977 00fc D0F80029 		ldr	r2, [r0, #2304]
 1978 0100 42F00442 		orr	r2, r2, #-2080374784
 1979 0104 C0F80029 		str	r2, [r0, #2304]
 1980 0108 A2E7     		b	.L137
 1981              	.LVL167:
 1982              	.L142:
 914:Drivers/STM32H7xx_HAL_Driver/Src/stm32h7xx_ll_usb.c ****       {
 1983              		.loc 1 914 7 is_stmt 1 view .LVU628
 914:Drivers/STM32H7xx_HAL_Driver/Src/stm32h7xx_ll_usb.c ****       {
 1984              		.loc 1 914 23 is_stmt 0 view .LVU629
 1985 010a CA68     		ldr	r2, [r1, #12]
 1986              	.LVL168:
 914:Drivers/STM32H7xx_HAL_Driver/Src/stm32h7xx_ll_usb.c ****       {
 1987              		.loc 1 914 10 view .LVU630
 1988 010c 002A     		cmp	r2, #0
 1989 010e 99D0     		beq	.L139
 916:Drivers/STM32H7xx_HAL_Driver/Src/stm32h7xx_ll_usb.c ****       }
 1990              		.loc 1 916 9 is_stmt 1 view .LVU631
 916:Drivers/STM32H7xx_HAL_Driver/Src/stm32h7xx_ll_usb.c ****       }
 1991              		.loc 1 916 36 is_stmt 0 view .LVU632
 1992 0110 5A61     		str	r2, [r3, #20]
 1993 0112 97E7     		b	.L139
 1994              	.L145:
 1995              		.align	2
 1996              	.L144:
 1997 0114 0000F8FF 		.word	-524288
 1998 0118 FFFF07E0 		.word	-536346625
 1999              		.cfi_endproc
 2000              	.LFE159:
 2002              		.section	.text.USB_WritePacket,"ax",%progbits
 2003              		.align	1
ARM GAS  /var/folders/26/q55yrwgs1ql1lprjdslmzz800000gn/T//ccC08pEc.s 			page 70


 2004              		.global	USB_WritePacket
 2005              		.syntax unified
 2006              		.thumb
 2007              		.thumb_func
 2009              	USB_WritePacket:
 2010              	.LVL169:
 2011              	.LFB160:
 942:Drivers/STM32H7xx_HAL_Driver/Src/stm32h7xx_ll_usb.c ****   uint32_t USBx_BASE = (uint32_t)USBx;
 2012              		.loc 1 942 1 is_stmt 1 view -0
 2013              		.cfi_startproc
 2014              		@ args = 4, pretend = 0, frame = 0
 2015              		@ frame_needed = 0, uses_anonymous_args = 0
 942:Drivers/STM32H7xx_HAL_Driver/Src/stm32h7xx_ll_usb.c ****   uint32_t USBx_BASE = (uint32_t)USBx;
 2016              		.loc 1 942 1 is_stmt 0 view .LVU634
 2017 0000 10B5     		push	{r4, lr}
 2018              	.LCFI21:
 2019              		.cfi_def_cfa_offset 8
 2020              		.cfi_offset 4, -8
 2021              		.cfi_offset 14, -4
 2022 0002 9DF80840 		ldrb	r4, [sp, #8]	@ zero_extendqisi2
 943:Drivers/STM32H7xx_HAL_Driver/Src/stm32h7xx_ll_usb.c ****   uint8_t *pSrc = src;
 2023              		.loc 1 943 3 is_stmt 1 view .LVU635
 2024              	.LVL170:
 944:Drivers/STM32H7xx_HAL_Driver/Src/stm32h7xx_ll_usb.c ****   uint32_t count32b, i;
 2025              		.loc 1 944 3 view .LVU636
 945:Drivers/STM32H7xx_HAL_Driver/Src/stm32h7xx_ll_usb.c **** 
 2026              		.loc 1 945 3 view .LVU637
 947:Drivers/STM32H7xx_HAL_Driver/Src/stm32h7xx_ll_usb.c ****   {
 2027              		.loc 1 947 3 view .LVU638
 947:Drivers/STM32H7xx_HAL_Driver/Src/stm32h7xx_ll_usb.c ****   {
 2028              		.loc 1 947 6 is_stmt 0 view .LVU639
 2029 0006 84B9     		cbnz	r4, .L147
 949:Drivers/STM32H7xx_HAL_Driver/Src/stm32h7xx_ll_usb.c ****     for (i = 0U; i < count32b; i++)
 2030              		.loc 1 949 5 is_stmt 1 view .LVU640
 949:Drivers/STM32H7xx_HAL_Driver/Src/stm32h7xx_ll_usb.c ****     for (i = 0U; i < count32b; i++)
 2031              		.loc 1 949 31 is_stmt 0 view .LVU641
 2032 0008 0333     		adds	r3, r3, #3
 2033              	.LVL171:
 949:Drivers/STM32H7xx_HAL_Driver/Src/stm32h7xx_ll_usb.c ****     for (i = 0U; i < count32b; i++)
 2034              		.loc 1 949 14 view .LVU642
 2035 000a 4FEA930E 		lsr	lr, r3, #2
 2036              	.LVL172:
 950:Drivers/STM32H7xx_HAL_Driver/Src/stm32h7xx_ll_usb.c ****     {
 2037              		.loc 1 950 5 is_stmt 1 view .LVU643
 950:Drivers/STM32H7xx_HAL_Driver/Src/stm32h7xx_ll_usb.c ****     {
 2038              		.loc 1 950 12 is_stmt 0 view .LVU644
 2039 000e 4FF0000C 		mov	ip, #0
 950:Drivers/STM32H7xx_HAL_Driver/Src/stm32h7xx_ll_usb.c ****     {
 2040              		.loc 1 950 5 view .LVU645
 2041 0012 08E0     		b	.L148
 2042              	.LVL173:
 2043              	.L149:
 952:Drivers/STM32H7xx_HAL_Driver/Src/stm32h7xx_ll_usb.c ****       pSrc++;
 2044              		.loc 1 952 7 is_stmt 1 discriminator 3 view .LVU646
 2045 0014 00EB0233 		add	r3, r0, r2, lsl #12
 2046 0018 03F58053 		add	r3, r3, #4096
 952:Drivers/STM32H7xx_HAL_Driver/Src/stm32h7xx_ll_usb.c ****       pSrc++;
ARM GAS  /var/folders/26/q55yrwgs1ql1lprjdslmzz800000gn/T//ccC08pEc.s 			page 71


 2047              		.loc 1 952 41 is_stmt 0 discriminator 3 view .LVU647
 2048 001c 51F8044B 		ldr	r4, [r1], #4	@ unaligned
 2049              	.LVL174:
 952:Drivers/STM32H7xx_HAL_Driver/Src/stm32h7xx_ll_usb.c ****       pSrc++;
 2050              		.loc 1 952 39 discriminator 3 view .LVU648
 2051 0020 1C60     		str	r4, [r3]
 953:Drivers/STM32H7xx_HAL_Driver/Src/stm32h7xx_ll_usb.c ****       pSrc++;
 2052              		.loc 1 953 7 is_stmt 1 discriminator 3 view .LVU649
 2053              	.LVL175:
 954:Drivers/STM32H7xx_HAL_Driver/Src/stm32h7xx_ll_usb.c ****       pSrc++;
 2054              		.loc 1 954 7 discriminator 3 view .LVU650
 955:Drivers/STM32H7xx_HAL_Driver/Src/stm32h7xx_ll_usb.c ****       pSrc++;
 2055              		.loc 1 955 7 discriminator 3 view .LVU651
 956:Drivers/STM32H7xx_HAL_Driver/Src/stm32h7xx_ll_usb.c ****     }
 2056              		.loc 1 956 7 discriminator 3 view .LVU652
 950:Drivers/STM32H7xx_HAL_Driver/Src/stm32h7xx_ll_usb.c ****     {
 2057              		.loc 1 950 32 discriminator 3 view .LVU653
 950:Drivers/STM32H7xx_HAL_Driver/Src/stm32h7xx_ll_usb.c ****     {
 2058              		.loc 1 950 33 is_stmt 0 discriminator 3 view .LVU654
 2059 0022 0CF1010C 		add	ip, ip, #1
 2060              	.LVL176:
 2061              	.L148:
 950:Drivers/STM32H7xx_HAL_Driver/Src/stm32h7xx_ll_usb.c ****     {
 2062              		.loc 1 950 18 is_stmt 1 discriminator 1 view .LVU655
 950:Drivers/STM32H7xx_HAL_Driver/Src/stm32h7xx_ll_usb.c ****     {
 2063              		.loc 1 950 5 is_stmt 0 discriminator 1 view .LVU656
 2064 0026 F445     		cmp	ip, lr
 2065 0028 F4D3     		bcc	.L149
 2066              	.LVL177:
 2067              	.L147:
 960:Drivers/STM32H7xx_HAL_Driver/Src/stm32h7xx_ll_usb.c **** }
 2068              		.loc 1 960 3 is_stmt 1 view .LVU657
 961:Drivers/STM32H7xx_HAL_Driver/Src/stm32h7xx_ll_usb.c **** 
 2069              		.loc 1 961 1 is_stmt 0 view .LVU658
 2070 002a 0020     		movs	r0, #0
 2071              	.LVL178:
 961:Drivers/STM32H7xx_HAL_Driver/Src/stm32h7xx_ll_usb.c **** 
 2072              		.loc 1 961 1 view .LVU659
 2073 002c 10BD     		pop	{r4, pc}
 961:Drivers/STM32H7xx_HAL_Driver/Src/stm32h7xx_ll_usb.c **** 
 2074              		.loc 1 961 1 view .LVU660
 2075              		.cfi_endproc
 2076              	.LFE160:
 2078              		.section	.text.USB_EPStartXfer,"ax",%progbits
 2079              		.align	1
 2080              		.global	USB_EPStartXfer
 2081              		.syntax unified
 2082              		.thumb
 2083              		.thumb_func
 2085              	USB_EPStartXfer:
 2086              	.LVL179:
 2087              	.LFB158:
 699:Drivers/STM32H7xx_HAL_Driver/Src/stm32h7xx_ll_usb.c ****   uint32_t USBx_BASE = (uint32_t)USBx;
 2088              		.loc 1 699 1 is_stmt 1 view -0
 2089              		.cfi_startproc
 2090              		@ args = 0, pretend = 0, frame = 0
 2091              		@ frame_needed = 0, uses_anonymous_args = 0
ARM GAS  /var/folders/26/q55yrwgs1ql1lprjdslmzz800000gn/T//ccC08pEc.s 			page 72


 699:Drivers/STM32H7xx_HAL_Driver/Src/stm32h7xx_ll_usb.c ****   uint32_t USBx_BASE = (uint32_t)USBx;
 2092              		.loc 1 699 1 is_stmt 0 view .LVU662
 2093 0000 F0B5     		push	{r4, r5, r6, r7, lr}
 2094              	.LCFI22:
 2095              		.cfi_def_cfa_offset 20
 2096              		.cfi_offset 4, -20
 2097              		.cfi_offset 5, -16
 2098              		.cfi_offset 6, -12
 2099              		.cfi_offset 7, -8
 2100              		.cfi_offset 14, -4
 2101 0002 83B0     		sub	sp, sp, #12
 2102              	.LCFI23:
 2103              		.cfi_def_cfa_offset 32
 700:Drivers/STM32H7xx_HAL_Driver/Src/stm32h7xx_ll_usb.c ****   uint32_t epnum = (uint32_t)ep->num;
 2104              		.loc 1 700 3 is_stmt 1 view .LVU663
 2105              	.LVL180:
 701:Drivers/STM32H7xx_HAL_Driver/Src/stm32h7xx_ll_usb.c ****   uint16_t pktcnt;
 2106              		.loc 1 701 3 view .LVU664
 701:Drivers/STM32H7xx_HAL_Driver/Src/stm32h7xx_ll_usb.c ****   uint16_t pktcnt;
 2107              		.loc 1 701 32 is_stmt 0 view .LVU665
 2108 0004 0B78     		ldrb	r3, [r1]	@ zero_extendqisi2
 2109              	.LVL181:
 702:Drivers/STM32H7xx_HAL_Driver/Src/stm32h7xx_ll_usb.c **** 
 2110              		.loc 1 702 3 is_stmt 1 view .LVU666
 705:Drivers/STM32H7xx_HAL_Driver/Src/stm32h7xx_ll_usb.c ****   {
 2111              		.loc 1 705 3 view .LVU667
 705:Drivers/STM32H7xx_HAL_Driver/Src/stm32h7xx_ll_usb.c ****   {
 2112              		.loc 1 705 9 is_stmt 0 view .LVU668
 2113 0006 4C78     		ldrb	r4, [r1, #1]	@ zero_extendqisi2
 705:Drivers/STM32H7xx_HAL_Driver/Src/stm32h7xx_ll_usb.c ****   {
 2114              		.loc 1 705 6 view .LVU669
 2115 0008 012C     		cmp	r4, #1
 2116 000a 31D0     		beq	.L169
 789:Drivers/STM32H7xx_HAL_Driver/Src/stm32h7xx_ll_usb.c ****     USBx_OUTEP(epnum)->DOEPTSIZ &= ~(USB_OTG_DOEPTSIZ_PKTCNT);
 2117              		.loc 1 789 5 is_stmt 1 view .LVU670
 789:Drivers/STM32H7xx_HAL_Driver/Src/stm32h7xx_ll_usb.c ****     USBx_OUTEP(epnum)->DOEPTSIZ &= ~(USB_OTG_DOEPTSIZ_PKTCNT);
 2118              		.loc 1 789 33 is_stmt 0 view .LVU671
 2119 000c 00EB4313 		add	r3, r0, r3, lsl #5
 2120              	.LVL182:
 789:Drivers/STM32H7xx_HAL_Driver/Src/stm32h7xx_ll_usb.c ****     USBx_OUTEP(epnum)->DOEPTSIZ &= ~(USB_OTG_DOEPTSIZ_PKTCNT);
 2121              		.loc 1 789 33 view .LVU672
 2122 0010 03F5306C 		add	ip, r3, #2816
 2123 0014 DCF81050 		ldr	r5, [ip, #16]
 2124 0018 834C     		ldr	r4, .L174
 2125 001a 2C40     		ands	r4, r4, r5
 2126 001c CCF81040 		str	r4, [ip, #16]
 2127              	.LVL183:
 790:Drivers/STM32H7xx_HAL_Driver/Src/stm32h7xx_ll_usb.c **** 
 2128              		.loc 1 790 5 is_stmt 1 view .LVU673
 790:Drivers/STM32H7xx_HAL_Driver/Src/stm32h7xx_ll_usb.c **** 
 2129              		.loc 1 790 33 is_stmt 0 view .LVU674
 2130 0020 DCF81050 		ldr	r5, [ip, #16]
 2131 0024 814C     		ldr	r4, .L174+4
 2132 0026 2C40     		ands	r4, r4, r5
 2133 0028 CCF81040 		str	r4, [ip, #16]
 792:Drivers/STM32H7xx_HAL_Driver/Src/stm32h7xx_ll_usb.c ****     {
 2134              		.loc 1 792 5 is_stmt 1 view .LVU675
ARM GAS  /var/folders/26/q55yrwgs1ql1lprjdslmzz800000gn/T//ccC08pEc.s 			page 73


 792:Drivers/STM32H7xx_HAL_Driver/Src/stm32h7xx_ll_usb.c ****     {
 2135              		.loc 1 792 11 is_stmt 0 view .LVU676
 2136 002c 4C69     		ldr	r4, [r1, #20]
 792:Drivers/STM32H7xx_HAL_Driver/Src/stm32h7xx_ll_usb.c ****     {
 2137              		.loc 1 792 8 view .LVU677
 2138 002e 002C     		cmp	r4, #0
 2139 0030 40F0C680 		bne	.L163
 794:Drivers/STM32H7xx_HAL_Driver/Src/stm32h7xx_ll_usb.c ****       USBx_OUTEP(epnum)->DOEPTSIZ |= (USB_OTG_DOEPTSIZ_PKTCNT & (1U << 19));
 2140              		.loc 1 794 7 is_stmt 1 view .LVU678
 794:Drivers/STM32H7xx_HAL_Driver/Src/stm32h7xx_ll_usb.c ****       USBx_OUTEP(epnum)->DOEPTSIZ |= (USB_OTG_DOEPTSIZ_PKTCNT & (1U << 19));
 2141              		.loc 1 794 35 is_stmt 0 view .LVU679
 2142 0034 DCF81040 		ldr	r4, [ip, #16]
 794:Drivers/STM32H7xx_HAL_Driver/Src/stm32h7xx_ll_usb.c ****       USBx_OUTEP(epnum)->DOEPTSIZ |= (USB_OTG_DOEPTSIZ_PKTCNT & (1U << 19));
 2143              		.loc 1 794 67 view .LVU680
 2144 0038 8D68     		ldr	r5, [r1, #8]
 794:Drivers/STM32H7xx_HAL_Driver/Src/stm32h7xx_ll_usb.c ****       USBx_OUTEP(epnum)->DOEPTSIZ |= (USB_OTG_DOEPTSIZ_PKTCNT & (1U << 19));
 2145              		.loc 1 794 63 view .LVU681
 2146 003a C5F31205 		ubfx	r5, r5, #0, #19
 794:Drivers/STM32H7xx_HAL_Driver/Src/stm32h7xx_ll_usb.c ****       USBx_OUTEP(epnum)->DOEPTSIZ |= (USB_OTG_DOEPTSIZ_PKTCNT & (1U << 19));
 2147              		.loc 1 794 35 view .LVU682
 2148 003e 2C43     		orrs	r4, r4, r5
 2149 0040 CCF81040 		str	r4, [ip, #16]
 795:Drivers/STM32H7xx_HAL_Driver/Src/stm32h7xx_ll_usb.c ****     }
 2150              		.loc 1 795 7 is_stmt 1 view .LVU683
 795:Drivers/STM32H7xx_HAL_Driver/Src/stm32h7xx_ll_usb.c ****     }
 2151              		.loc 1 795 35 is_stmt 0 view .LVU684
 2152 0044 DCF81040 		ldr	r4, [ip, #16]
 2153 0048 44F40024 		orr	r4, r4, #524288
 2154 004c CCF81040 		str	r4, [ip, #16]
 2155              	.L164:
 804:Drivers/STM32H7xx_HAL_Driver/Src/stm32h7xx_ll_usb.c ****     {
 2156              		.loc 1 804 5 is_stmt 1 view .LVU685
 804:Drivers/STM32H7xx_HAL_Driver/Src/stm32h7xx_ll_usb.c ****     {
 2157              		.loc 1 804 8 is_stmt 0 view .LVU686
 2158 0050 012A     		cmp	r2, #1
 2159 0052 00F0CF80 		beq	.L170
 2160              	.LVL184:
 2161              	.L165:
 812:Drivers/STM32H7xx_HAL_Driver/Src/stm32h7xx_ll_usb.c ****     {
 2162              		.loc 1 812 5 is_stmt 1 view .LVU687
 812:Drivers/STM32H7xx_HAL_Driver/Src/stm32h7xx_ll_usb.c ****     {
 2163              		.loc 1 812 11 is_stmt 0 view .LVU688
 2164 0056 CA78     		ldrb	r2, [r1, #3]	@ zero_extendqisi2
 812:Drivers/STM32H7xx_HAL_Driver/Src/stm32h7xx_ll_usb.c ****     {
 2165              		.loc 1 812 8 view .LVU689
 2166 0058 012A     		cmp	r2, #1
 2167 005a 00F0D280 		beq	.L171
 2168              	.L166:
 824:Drivers/STM32H7xx_HAL_Driver/Src/stm32h7xx_ll_usb.c ****   }
 2169              		.loc 1 824 5 is_stmt 1 view .LVU690
 824:Drivers/STM32H7xx_HAL_Driver/Src/stm32h7xx_ll_usb.c ****   }
 2170              		.loc 1 824 32 is_stmt 0 view .LVU691
 2171 005e D3F8002B 		ldr	r2, [r3, #2816]
 2172 0062 42F00442 		orr	r2, r2, #-2080374784
 2173 0066 C3F8002B 		str	r2, [r3, #2816]
 2174              	.LVL185:
 2175              	.L159:
ARM GAS  /var/folders/26/q55yrwgs1ql1lprjdslmzz800000gn/T//ccC08pEc.s 			page 74


 827:Drivers/STM32H7xx_HAL_Driver/Src/stm32h7xx_ll_usb.c **** }
 2176              		.loc 1 827 3 is_stmt 1 view .LVU692
 828:Drivers/STM32H7xx_HAL_Driver/Src/stm32h7xx_ll_usb.c **** 
 2177              		.loc 1 828 1 is_stmt 0 view .LVU693
 2178 006a 0020     		movs	r0, #0
 2179 006c 03B0     		add	sp, sp, #12
 2180              	.LCFI24:
 2181              		.cfi_remember_state
 2182              		.cfi_def_cfa_offset 20
 2183              		@ sp needed
 2184 006e F0BD     		pop	{r4, r5, r6, r7, pc}
 2185              	.LVL186:
 2186              	.L169:
 2187              	.LCFI25:
 2188              		.cfi_restore_state
 708:Drivers/STM32H7xx_HAL_Driver/Src/stm32h7xx_ll_usb.c ****     {
 2189              		.loc 1 708 5 is_stmt 1 view .LVU694
 708:Drivers/STM32H7xx_HAL_Driver/Src/stm32h7xx_ll_usb.c ****     {
 2190              		.loc 1 708 11 is_stmt 0 view .LVU695
 2191 0070 4C69     		ldr	r4, [r1, #20]
 708:Drivers/STM32H7xx_HAL_Driver/Src/stm32h7xx_ll_usb.c ****     {
 2192              		.loc 1 708 8 view .LVU696
 2193 0072 74BB     		cbnz	r4, .L153
 710:Drivers/STM32H7xx_HAL_Driver/Src/stm32h7xx_ll_usb.c ****       USBx_INEP(epnum)->DIEPTSIZ |= (USB_OTG_DIEPTSIZ_PKTCNT & (1U << 19));
 2194              		.loc 1 710 7 is_stmt 1 view .LVU697
 710:Drivers/STM32H7xx_HAL_Driver/Src/stm32h7xx_ll_usb.c ****       USBx_INEP(epnum)->DIEPTSIZ |= (USB_OTG_DIEPTSIZ_PKTCNT & (1U << 19));
 2195              		.loc 1 710 34 is_stmt 0 view .LVU698
 2196 0074 00EB4314 		add	r4, r0, r3, lsl #5
 2197 0078 D4F81069 		ldr	r6, [r4, #2320]
 2198 007c 6B4D     		ldr	r5, .L174+4
 2199 007e 3540     		ands	r5, r5, r6
 2200 0080 C4F81059 		str	r5, [r4, #2320]
 711:Drivers/STM32H7xx_HAL_Driver/Src/stm32h7xx_ll_usb.c ****       USBx_INEP(epnum)->DIEPTSIZ &= ~(USB_OTG_DIEPTSIZ_XFRSIZ);
 2201              		.loc 1 711 7 is_stmt 1 view .LVU699
 711:Drivers/STM32H7xx_HAL_Driver/Src/stm32h7xx_ll_usb.c ****       USBx_INEP(epnum)->DIEPTSIZ &= ~(USB_OTG_DIEPTSIZ_XFRSIZ);
 2202              		.loc 1 711 34 is_stmt 0 view .LVU700
 2203 0084 D4F81059 		ldr	r5, [r4, #2320]
 2204 0088 45F40025 		orr	r5, r5, #524288
 2205 008c C4F81059 		str	r5, [r4, #2320]
 712:Drivers/STM32H7xx_HAL_Driver/Src/stm32h7xx_ll_usb.c ****     }
 2206              		.loc 1 712 7 is_stmt 1 view .LVU701
 712:Drivers/STM32H7xx_HAL_Driver/Src/stm32h7xx_ll_usb.c ****     }
 2207              		.loc 1 712 34 is_stmt 0 view .LVU702
 2208 0090 D4F81069 		ldr	r6, [r4, #2320]
 2209 0094 644D     		ldr	r5, .L174
 2210 0096 3540     		ands	r5, r5, r6
 2211 0098 C4F81059 		str	r5, [r4, #2320]
 2212              	.L154:
 733:Drivers/STM32H7xx_HAL_Driver/Src/stm32h7xx_ll_usb.c ****     {
 2213              		.loc 1 733 5 is_stmt 1 view .LVU703
 733:Drivers/STM32H7xx_HAL_Driver/Src/stm32h7xx_ll_usb.c ****     {
 2214              		.loc 1 733 8 is_stmt 0 view .LVU704
 2215 009c 012A     		cmp	r2, #1
 2216 009e 4DD0     		beq	.L172
 758:Drivers/STM32H7xx_HAL_Driver/Src/stm32h7xx_ll_usb.c **** 
 2217              		.loc 1 758 7 is_stmt 1 view .LVU705
 758:Drivers/STM32H7xx_HAL_Driver/Src/stm32h7xx_ll_usb.c **** 
ARM GAS  /var/folders/26/q55yrwgs1ql1lprjdslmzz800000gn/T//ccC08pEc.s 			page 75


 2218              		.loc 1 758 33 is_stmt 0 view .LVU706
 2219 00a0 00EB4313 		add	r3, r0, r3, lsl #5
 2220              	.LVL187:
 758:Drivers/STM32H7xx_HAL_Driver/Src/stm32h7xx_ll_usb.c **** 
 2221              		.loc 1 758 33 view .LVU707
 2222 00a4 D3F80049 		ldr	r4, [r3, #2304]
 2223 00a8 44F00444 		orr	r4, r4, #-2080374784
 2224 00ac C3F80049 		str	r4, [r3, #2304]
 760:Drivers/STM32H7xx_HAL_Driver/Src/stm32h7xx_ll_usb.c ****       {
 2225              		.loc 1 760 7 is_stmt 1 view .LVU708
 760:Drivers/STM32H7xx_HAL_Driver/Src/stm32h7xx_ll_usb.c ****       {
 2226              		.loc 1 760 13 is_stmt 0 view .LVU709
 2227 00b0 CC78     		ldrb	r4, [r1, #3]	@ zero_extendqisi2
 760:Drivers/STM32H7xx_HAL_Driver/Src/stm32h7xx_ll_usb.c ****       {
 2228              		.loc 1 760 10 view .LVU710
 2229 00b2 012C     		cmp	r4, #1
 2230 00b4 6BD0     		beq	.L160
 763:Drivers/STM32H7xx_HAL_Driver/Src/stm32h7xx_ll_usb.c ****         {
 2231              		.loc 1 763 9 is_stmt 1 view .LVU711
 763:Drivers/STM32H7xx_HAL_Driver/Src/stm32h7xx_ll_usb.c ****         {
 2232              		.loc 1 763 15 is_stmt 0 view .LVU712
 2233 00b6 4B69     		ldr	r3, [r1, #20]
 763:Drivers/STM32H7xx_HAL_Driver/Src/stm32h7xx_ll_usb.c ****         {
 2234              		.loc 1 763 12 view .LVU713
 2235 00b8 002B     		cmp	r3, #0
 2236 00ba D6D0     		beq	.L159
 765:Drivers/STM32H7xx_HAL_Driver/Src/stm32h7xx_ll_usb.c ****         }
 2237              		.loc 1 765 11 is_stmt 1 view .LVU714
 765:Drivers/STM32H7xx_HAL_Driver/Src/stm32h7xx_ll_usb.c ****         }
 2238              		.loc 1 765 35 is_stmt 0 view .LVU715
 2239 00bc D0F83438 		ldr	r3, [r0, #2100]
 765:Drivers/STM32H7xx_HAL_Driver/Src/stm32h7xx_ll_usb.c ****         }
 2240              		.loc 1 765 48 view .LVU716
 2241 00c0 0A78     		ldrb	r2, [r1]	@ zero_extendqisi2
 2242              	.LVL188:
 765:Drivers/STM32H7xx_HAL_Driver/Src/stm32h7xx_ll_usb.c ****         }
 2243              		.loc 1 765 54 view .LVU717
 2244 00c2 02F00F01 		and	r1, r2, #15
 2245              	.LVL189:
 765:Drivers/STM32H7xx_HAL_Driver/Src/stm32h7xx_ll_usb.c ****         }
 2246              		.loc 1 765 42 view .LVU718
 2247 00c6 0122     		movs	r2, #1
 2248 00c8 8A40     		lsls	r2, r2, r1
 765:Drivers/STM32H7xx_HAL_Driver/Src/stm32h7xx_ll_usb.c ****         }
 2249              		.loc 1 765 35 view .LVU719
 2250 00ca 1343     		orrs	r3, r3, r2
 2251 00cc C0F83438 		str	r3, [r0, #2100]
 2252 00d0 CBE7     		b	.L159
 2253              	.LVL190:
 2254              	.L153:
 721:Drivers/STM32H7xx_HAL_Driver/Src/stm32h7xx_ll_usb.c ****       USBx_INEP(epnum)->DIEPTSIZ &= ~(USB_OTG_DIEPTSIZ_PKTCNT);
 2255              		.loc 1 721 7 is_stmt 1 view .LVU720
 721:Drivers/STM32H7xx_HAL_Driver/Src/stm32h7xx_ll_usb.c ****       USBx_INEP(epnum)->DIEPTSIZ &= ~(USB_OTG_DIEPTSIZ_PKTCNT);
 2256              		.loc 1 721 34 is_stmt 0 view .LVU721
 2257 00d2 00EB4314 		add	r4, r0, r3, lsl #5
 2258 00d6 D4F81069 		ldr	r6, [r4, #2320]
 2259 00da 534D     		ldr	r5, .L174
ARM GAS  /var/folders/26/q55yrwgs1ql1lprjdslmzz800000gn/T//ccC08pEc.s 			page 76


 2260 00dc 3540     		ands	r5, r5, r6
 2261 00de C4F81059 		str	r5, [r4, #2320]
 722:Drivers/STM32H7xx_HAL_Driver/Src/stm32h7xx_ll_usb.c ****       USBx_INEP(epnum)->DIEPTSIZ |= (USB_OTG_DIEPTSIZ_PKTCNT & (((ep->xfer_len + ep->maxpacket - 1U
 2262              		.loc 1 722 7 is_stmt 1 view .LVU722
 722:Drivers/STM32H7xx_HAL_Driver/Src/stm32h7xx_ll_usb.c ****       USBx_INEP(epnum)->DIEPTSIZ |= (USB_OTG_DIEPTSIZ_PKTCNT & (((ep->xfer_len + ep->maxpacket - 1U
 2263              		.loc 1 722 34 is_stmt 0 view .LVU723
 2264 00e2 D4F81069 		ldr	r6, [r4, #2320]
 2265 00e6 514D     		ldr	r5, .L174+4
 2266 00e8 3540     		ands	r5, r5, r6
 2267 00ea C4F81059 		str	r5, [r4, #2320]
 723:Drivers/STM32H7xx_HAL_Driver/Src/stm32h7xx_ll_usb.c ****       USBx_INEP(epnum)->DIEPTSIZ |= (USB_OTG_DIEPTSIZ_XFRSIZ & ep->xfer_len);
 2268              		.loc 1 723 7 is_stmt 1 view .LVU724
 723:Drivers/STM32H7xx_HAL_Driver/Src/stm32h7xx_ll_usb.c ****       USBx_INEP(epnum)->DIEPTSIZ |= (USB_OTG_DIEPTSIZ_XFRSIZ & ep->xfer_len);
 2269              		.loc 1 723 34 is_stmt 0 view .LVU725
 2270 00ee D4F81059 		ldr	r5, [r4, #2320]
 723:Drivers/STM32H7xx_HAL_Driver/Src/stm32h7xx_ll_usb.c ****       USBx_INEP(epnum)->DIEPTSIZ |= (USB_OTG_DIEPTSIZ_XFRSIZ & ep->xfer_len);
 2271              		.loc 1 723 84 view .LVU726
 2272 00f2 8E68     		ldr	r6, [r1, #8]
 723:Drivers/STM32H7xx_HAL_Driver/Src/stm32h7xx_ll_usb.c ****       USBx_INEP(epnum)->DIEPTSIZ |= (USB_OTG_DIEPTSIZ_XFRSIZ & ep->xfer_len);
 2273              		.loc 1 723 80 view .LVU727
 2274 00f4 4F69     		ldr	r7, [r1, #20]
 2275 00f6 07EB060C 		add	ip, r7, r6
 723:Drivers/STM32H7xx_HAL_Driver/Src/stm32h7xx_ll_usb.c ****       USBx_INEP(epnum)->DIEPTSIZ |= (USB_OTG_DIEPTSIZ_XFRSIZ & ep->xfer_len);
 2276              		.loc 1 723 96 view .LVU728
 2277 00fa 0CF1FF3C 		add	ip, ip, #-1
 723:Drivers/STM32H7xx_HAL_Driver/Src/stm32h7xx_ll_usb.c ****       USBx_INEP(epnum)->DIEPTSIZ |= (USB_OTG_DIEPTSIZ_XFRSIZ & ep->xfer_len);
 2278              		.loc 1 723 102 view .LVU729
 2279 00fe BCFBF6FC 		udiv	ip, ip, r6
 723:Drivers/STM32H7xx_HAL_Driver/Src/stm32h7xx_ll_usb.c ****       USBx_INEP(epnum)->DIEPTSIZ |= (USB_OTG_DIEPTSIZ_XFRSIZ & ep->xfer_len);
 2280              		.loc 1 723 62 view .LVU730
 2281 0102 4B4E     		ldr	r6, .L174+8
 2282 0104 06EACC4C 		and	ip, r6, ip, lsl #19
 723:Drivers/STM32H7xx_HAL_Driver/Src/stm32h7xx_ll_usb.c ****       USBx_INEP(epnum)->DIEPTSIZ |= (USB_OTG_DIEPTSIZ_XFRSIZ & ep->xfer_len);
 2283              		.loc 1 723 34 view .LVU731
 2284 0108 45EA0C05 		orr	r5, r5, ip
 2285 010c C4F81059 		str	r5, [r4, #2320]
 724:Drivers/STM32H7xx_HAL_Driver/Src/stm32h7xx_ll_usb.c **** 
 2286              		.loc 1 724 7 is_stmt 1 view .LVU732
 724:Drivers/STM32H7xx_HAL_Driver/Src/stm32h7xx_ll_usb.c **** 
 2287              		.loc 1 724 34 is_stmt 0 view .LVU733
 2288 0110 D4F81059 		ldr	r5, [r4, #2320]
 724:Drivers/STM32H7xx_HAL_Driver/Src/stm32h7xx_ll_usb.c **** 
 2289              		.loc 1 724 66 view .LVU734
 2290 0114 4E69     		ldr	r6, [r1, #20]
 724:Drivers/STM32H7xx_HAL_Driver/Src/stm32h7xx_ll_usb.c **** 
 2291              		.loc 1 724 62 view .LVU735
 2292 0116 C6F31206 		ubfx	r6, r6, #0, #19
 724:Drivers/STM32H7xx_HAL_Driver/Src/stm32h7xx_ll_usb.c **** 
 2293              		.loc 1 724 34 view .LVU736
 2294 011a 3543     		orrs	r5, r5, r6
 2295 011c C4F81059 		str	r5, [r4, #2320]
 721:Drivers/STM32H7xx_HAL_Driver/Src/stm32h7xx_ll_usb.c ****       USBx_INEP(epnum)->DIEPTSIZ &= ~(USB_OTG_DIEPTSIZ_PKTCNT);
 2296              		.loc 1 721 34 view .LVU737
 2297 0120 04F51064 		add	r4, r4, #2304
 726:Drivers/STM32H7xx_HAL_Driver/Src/stm32h7xx_ll_usb.c ****       {
 2298              		.loc 1 726 7 is_stmt 1 view .LVU738
 726:Drivers/STM32H7xx_HAL_Driver/Src/stm32h7xx_ll_usb.c ****       {
ARM GAS  /var/folders/26/q55yrwgs1ql1lprjdslmzz800000gn/T//ccC08pEc.s 			page 77


 2299              		.loc 1 726 13 is_stmt 0 view .LVU739
 2300 0124 CD78     		ldrb	r5, [r1, #3]	@ zero_extendqisi2
 726:Drivers/STM32H7xx_HAL_Driver/Src/stm32h7xx_ll_usb.c ****       {
 2301              		.loc 1 726 10 view .LVU740
 2302 0126 012D     		cmp	r5, #1
 2303 0128 B8D1     		bne	.L154
 728:Drivers/STM32H7xx_HAL_Driver/Src/stm32h7xx_ll_usb.c ****         USBx_INEP(epnum)->DIEPTSIZ |= (USB_OTG_DIEPTSIZ_MULCNT & (1U << 29));
 2304              		.loc 1 728 9 is_stmt 1 view .LVU741
 728:Drivers/STM32H7xx_HAL_Driver/Src/stm32h7xx_ll_usb.c ****         USBx_INEP(epnum)->DIEPTSIZ |= (USB_OTG_DIEPTSIZ_MULCNT & (1U << 29));
 2305              		.loc 1 728 36 is_stmt 0 view .LVU742
 2306 012a 2569     		ldr	r5, [r4, #16]
 2307 012c 25F0C045 		bic	r5, r5, #1610612736
 2308 0130 2561     		str	r5, [r4, #16]
 729:Drivers/STM32H7xx_HAL_Driver/Src/stm32h7xx_ll_usb.c ****       }
 2309              		.loc 1 729 9 is_stmt 1 view .LVU743
 729:Drivers/STM32H7xx_HAL_Driver/Src/stm32h7xx_ll_usb.c ****       }
 2310              		.loc 1 729 36 is_stmt 0 view .LVU744
 2311 0132 2569     		ldr	r5, [r4, #16]
 2312 0134 45F00055 		orr	r5, r5, #536870912
 2313 0138 2561     		str	r5, [r4, #16]
 2314 013a AFE7     		b	.L154
 2315              	.L172:
 735:Drivers/STM32H7xx_HAL_Driver/Src/stm32h7xx_ll_usb.c ****       {
 2316              		.loc 1 735 7 is_stmt 1 view .LVU745
 735:Drivers/STM32H7xx_HAL_Driver/Src/stm32h7xx_ll_usb.c ****       {
 2317              		.loc 1 735 23 is_stmt 0 view .LVU746
 2318 013c 0A69     		ldr	r2, [r1, #16]
 2319              	.LVL191:
 735:Drivers/STM32H7xx_HAL_Driver/Src/stm32h7xx_ll_usb.c ****       {
 2320              		.loc 1 735 10 view .LVU747
 2321 013e 1AB1     		cbz	r2, .L156
 737:Drivers/STM32H7xx_HAL_Driver/Src/stm32h7xx_ll_usb.c ****       }
 2322              		.loc 1 737 9 is_stmt 1 view .LVU748
 2323 0140 00EB4314 		add	r4, r0, r3, lsl #5
 737:Drivers/STM32H7xx_HAL_Driver/Src/stm32h7xx_ll_usb.c ****       }
 2324              		.loc 1 737 35 is_stmt 0 view .LVU749
 2325 0144 C4F81429 		str	r2, [r4, #2324]
 2326              	.L156:
 740:Drivers/STM32H7xx_HAL_Driver/Src/stm32h7xx_ll_usb.c ****       {
 2327              		.loc 1 740 7 is_stmt 1 view .LVU750
 740:Drivers/STM32H7xx_HAL_Driver/Src/stm32h7xx_ll_usb.c ****       {
 2328              		.loc 1 740 13 is_stmt 0 view .LVU751
 2329 0148 CA78     		ldrb	r2, [r1, #3]	@ zero_extendqisi2
 740:Drivers/STM32H7xx_HAL_Driver/Src/stm32h7xx_ll_usb.c ****       {
 2330              		.loc 1 740 10 view .LVU752
 2331 014a 012A     		cmp	r2, #1
 2332 014c 08D0     		beq	.L173
 2333              	.LVL192:
 2334              	.L157:
 753:Drivers/STM32H7xx_HAL_Driver/Src/stm32h7xx_ll_usb.c ****     }
 2335              		.loc 1 753 7 is_stmt 1 view .LVU753
 753:Drivers/STM32H7xx_HAL_Driver/Src/stm32h7xx_ll_usb.c ****     }
 2336              		.loc 1 753 33 is_stmt 0 view .LVU754
 2337 014e 00EB4313 		add	r3, r0, r3, lsl #5
 2338              	.LVL193:
 753:Drivers/STM32H7xx_HAL_Driver/Src/stm32h7xx_ll_usb.c ****     }
 2339              		.loc 1 753 33 view .LVU755
ARM GAS  /var/folders/26/q55yrwgs1ql1lprjdslmzz800000gn/T//ccC08pEc.s 			page 78


 2340 0152 D3F80029 		ldr	r2, [r3, #2304]
 2341 0156 42F00442 		orr	r2, r2, #-2080374784
 2342 015a C3F80029 		str	r2, [r3, #2304]
 2343 015e 84E7     		b	.L159
 2344              	.LVL194:
 2345              	.L173:
 742:Drivers/STM32H7xx_HAL_Driver/Src/stm32h7xx_ll_usb.c ****         {
 2346              		.loc 1 742 9 is_stmt 1 view .LVU756
 742:Drivers/STM32H7xx_HAL_Driver/Src/stm32h7xx_ll_usb.c ****         {
 2347              		.loc 1 742 25 is_stmt 0 view .LVU757
 2348 0160 D0F80828 		ldr	r2, [r0, #2056]
 742:Drivers/STM32H7xx_HAL_Driver/Src/stm32h7xx_ll_usb.c ****         {
 2349              		.loc 1 742 12 view .LVU758
 2350 0164 12F4807F 		tst	r2, #256
 2351 0168 08D1     		bne	.L158
 744:Drivers/STM32H7xx_HAL_Driver/Src/stm32h7xx_ll_usb.c ****         }
 2352              		.loc 1 744 11 is_stmt 1 view .LVU759
 744:Drivers/STM32H7xx_HAL_Driver/Src/stm32h7xx_ll_usb.c ****         }
 2353              		.loc 1 744 37 is_stmt 0 view .LVU760
 2354 016a 00EB4311 		add	r1, r0, r3, lsl #5
 2355              	.LVL195:
 744:Drivers/STM32H7xx_HAL_Driver/Src/stm32h7xx_ll_usb.c ****         }
 2356              		.loc 1 744 37 view .LVU761
 2357 016e D1F80029 		ldr	r2, [r1, #2304]
 2358 0172 42F00052 		orr	r2, r2, #536870912
 2359 0176 C1F80029 		str	r2, [r1, #2304]
 2360 017a E8E7     		b	.L157
 2361              	.LVL196:
 2362              	.L158:
 748:Drivers/STM32H7xx_HAL_Driver/Src/stm32h7xx_ll_usb.c ****         }
 2363              		.loc 1 748 11 is_stmt 1 view .LVU762
 748:Drivers/STM32H7xx_HAL_Driver/Src/stm32h7xx_ll_usb.c ****         }
 2364              		.loc 1 748 37 is_stmt 0 view .LVU763
 2365 017c 00EB4311 		add	r1, r0, r3, lsl #5
 2366              	.LVL197:
 748:Drivers/STM32H7xx_HAL_Driver/Src/stm32h7xx_ll_usb.c ****         }
 2367              		.loc 1 748 37 view .LVU764
 2368 0180 D1F80029 		ldr	r2, [r1, #2304]
 2369 0184 42F08052 		orr	r2, r2, #268435456
 2370 0188 C1F80029 		str	r2, [r1, #2304]
 2371 018c DFE7     		b	.L157
 2372              	.LVL198:
 2373              	.L160:
 770:Drivers/STM32H7xx_HAL_Driver/Src/stm32h7xx_ll_usb.c ****         {
 2374              		.loc 1 770 9 is_stmt 1 view .LVU765
 770:Drivers/STM32H7xx_HAL_Driver/Src/stm32h7xx_ll_usb.c ****         {
 2375              		.loc 1 770 25 is_stmt 0 view .LVU766
 2376 018e D0F80848 		ldr	r4, [r0, #2056]
 770:Drivers/STM32H7xx_HAL_Driver/Src/stm32h7xx_ll_usb.c ****         {
 2377              		.loc 1 770 12 view .LVU767
 2378 0192 14F4807F 		tst	r4, #256
 2379 0196 0CD1     		bne	.L161
 772:Drivers/STM32H7xx_HAL_Driver/Src/stm32h7xx_ll_usb.c ****         }
 2380              		.loc 1 772 11 is_stmt 1 view .LVU768
 772:Drivers/STM32H7xx_HAL_Driver/Src/stm32h7xx_ll_usb.c ****         }
 2381              		.loc 1 772 37 is_stmt 0 view .LVU769
 2382 0198 D3F80049 		ldr	r4, [r3, #2304]
ARM GAS  /var/folders/26/q55yrwgs1ql1lprjdslmzz800000gn/T//ccC08pEc.s 			page 79


 2383 019c 44F00054 		orr	r4, r4, #536870912
 2384 01a0 C3F80049 		str	r4, [r3, #2304]
 2385              	.L162:
 779:Drivers/STM32H7xx_HAL_Driver/Src/stm32h7xx_ll_usb.c ****       }
 2386              		.loc 1 779 9 is_stmt 1 view .LVU770
 779:Drivers/STM32H7xx_HAL_Driver/Src/stm32h7xx_ll_usb.c ****       }
 2387              		.loc 1 779 15 is_stmt 0 view .LVU771
 2388 01a4 0092     		str	r2, [sp]
 2389 01a6 8B8A     		ldrh	r3, [r1, #20]
 2390 01a8 0A78     		ldrb	r2, [r1]	@ zero_extendqisi2
 2391              	.LVL199:
 779:Drivers/STM32H7xx_HAL_Driver/Src/stm32h7xx_ll_usb.c ****       }
 2392              		.loc 1 779 15 view .LVU772
 2393 01aa C968     		ldr	r1, [r1, #12]
 2394              	.LVL200:
 779:Drivers/STM32H7xx_HAL_Driver/Src/stm32h7xx_ll_usb.c ****       }
 2395              		.loc 1 779 15 view .LVU773
 2396 01ac FFF7FEFF 		bl	USB_WritePacket
 2397              	.LVL201:
 779:Drivers/STM32H7xx_HAL_Driver/Src/stm32h7xx_ll_usb.c ****       }
 2398              		.loc 1 779 15 view .LVU774
 2399 01b0 5BE7     		b	.L159
 2400              	.LVL202:
 2401              	.L161:
 776:Drivers/STM32H7xx_HAL_Driver/Src/stm32h7xx_ll_usb.c ****         }
 2402              		.loc 1 776 11 is_stmt 1 view .LVU775
 776:Drivers/STM32H7xx_HAL_Driver/Src/stm32h7xx_ll_usb.c ****         }
 2403              		.loc 1 776 37 is_stmt 0 view .LVU776
 2404 01b2 D3F80049 		ldr	r4, [r3, #2304]
 2405 01b6 44F08054 		orr	r4, r4, #268435456
 2406 01ba C3F80049 		str	r4, [r3, #2304]
 2407 01be F1E7     		b	.L162
 2408              	.L163:
 799:Drivers/STM32H7xx_HAL_Driver/Src/stm32h7xx_ll_usb.c ****       USBx_OUTEP(epnum)->DOEPTSIZ |= USB_OTG_DOEPTSIZ_PKTCNT & ((uint32_t)pktcnt << 19);
 2409              		.loc 1 799 7 is_stmt 1 view .LVU777
 799:Drivers/STM32H7xx_HAL_Driver/Src/stm32h7xx_ll_usb.c ****       USBx_OUTEP(epnum)->DOEPTSIZ |= USB_OTG_DOEPTSIZ_PKTCNT & ((uint32_t)pktcnt << 19);
 2410              		.loc 1 799 45 is_stmt 0 view .LVU778
 2411 01c0 8D68     		ldr	r5, [r1, #8]
 799:Drivers/STM32H7xx_HAL_Driver/Src/stm32h7xx_ll_usb.c ****       USBx_OUTEP(epnum)->DOEPTSIZ |= USB_OTG_DOEPTSIZ_PKTCNT & ((uint32_t)pktcnt << 19);
 2412              		.loc 1 799 41 view .LVU779
 2413 01c2 2C44     		add	r4, r4, r5
 799:Drivers/STM32H7xx_HAL_Driver/Src/stm32h7xx_ll_usb.c ****       USBx_OUTEP(epnum)->DOEPTSIZ |= USB_OTG_DOEPTSIZ_PKTCNT & ((uint32_t)pktcnt << 19);
 2414              		.loc 1 799 57 view .LVU780
 2415 01c4 013C     		subs	r4, r4, #1
 799:Drivers/STM32H7xx_HAL_Driver/Src/stm32h7xx_ll_usb.c ****       USBx_OUTEP(epnum)->DOEPTSIZ |= USB_OTG_DOEPTSIZ_PKTCNT & ((uint32_t)pktcnt << 19);
 2416              		.loc 1 799 63 view .LVU781
 2417 01c6 B4FBF5F4 		udiv	r4, r4, r5
 2418              	.LVL203:
 800:Drivers/STM32H7xx_HAL_Driver/Src/stm32h7xx_ll_usb.c ****       USBx_OUTEP(epnum)->DOEPTSIZ |= USB_OTG_DOEPTSIZ_XFRSIZ & (ep->maxpacket * pktcnt);
 2419              		.loc 1 800 7 is_stmt 1 view .LVU782
 800:Drivers/STM32H7xx_HAL_Driver/Src/stm32h7xx_ll_usb.c ****       USBx_OUTEP(epnum)->DOEPTSIZ |= USB_OTG_DOEPTSIZ_XFRSIZ & (ep->maxpacket * pktcnt);
 2420              		.loc 1 800 35 is_stmt 0 view .LVU783
 2421 01ca DCF81050 		ldr	r5, [ip, #16]
 2422 01ce 1FFA84FE 		uxth	lr, r4
 800:Drivers/STM32H7xx_HAL_Driver/Src/stm32h7xx_ll_usb.c ****       USBx_OUTEP(epnum)->DOEPTSIZ |= USB_OTG_DOEPTSIZ_XFRSIZ & (ep->maxpacket * pktcnt);
 2423              		.loc 1 800 62 view .LVU784
 2424 01d2 174E     		ldr	r6, .L174+8
ARM GAS  /var/folders/26/q55yrwgs1ql1lprjdslmzz800000gn/T//ccC08pEc.s 			page 80


 2425 01d4 06EAC444 		and	r4, r6, r4, lsl #19
 2426              	.LVL204:
 800:Drivers/STM32H7xx_HAL_Driver/Src/stm32h7xx_ll_usb.c ****       USBx_OUTEP(epnum)->DOEPTSIZ |= USB_OTG_DOEPTSIZ_XFRSIZ & (ep->maxpacket * pktcnt);
 2427              		.loc 1 800 35 view .LVU785
 2428 01d8 2543     		orrs	r5, r5, r4
 2429 01da CCF81050 		str	r5, [ip, #16]
 801:Drivers/STM32H7xx_HAL_Driver/Src/stm32h7xx_ll_usb.c ****     }
 2430              		.loc 1 801 7 is_stmt 1 view .LVU786
 801:Drivers/STM32H7xx_HAL_Driver/Src/stm32h7xx_ll_usb.c ****     }
 2431              		.loc 1 801 35 is_stmt 0 view .LVU787
 2432 01de DCF81050 		ldr	r5, [ip, #16]
 801:Drivers/STM32H7xx_HAL_Driver/Src/stm32h7xx_ll_usb.c ****     }
 2433              		.loc 1 801 67 view .LVU788
 2434 01e2 8C68     		ldr	r4, [r1, #8]
 801:Drivers/STM32H7xx_HAL_Driver/Src/stm32h7xx_ll_usb.c ****     }
 2435              		.loc 1 801 79 view .LVU789
 2436 01e4 0EFB04F4 		mul	r4, lr, r4
 801:Drivers/STM32H7xx_HAL_Driver/Src/stm32h7xx_ll_usb.c ****     }
 2437              		.loc 1 801 62 view .LVU790
 2438 01e8 C4F31204 		ubfx	r4, r4, #0, #19
 801:Drivers/STM32H7xx_HAL_Driver/Src/stm32h7xx_ll_usb.c ****     }
 2439              		.loc 1 801 35 view .LVU791
 2440 01ec 2C43     		orrs	r4, r4, r5
 2441 01ee CCF81040 		str	r4, [ip, #16]
 2442 01f2 2DE7     		b	.L164
 2443              	.LVL205:
 2444              	.L170:
 806:Drivers/STM32H7xx_HAL_Driver/Src/stm32h7xx_ll_usb.c ****       {
 2445              		.loc 1 806 7 is_stmt 1 view .LVU792
 806:Drivers/STM32H7xx_HAL_Driver/Src/stm32h7xx_ll_usb.c ****       {
 2446              		.loc 1 806 23 is_stmt 0 view .LVU793
 2447 01f4 CA68     		ldr	r2, [r1, #12]
 2448              	.LVL206:
 806:Drivers/STM32H7xx_HAL_Driver/Src/stm32h7xx_ll_usb.c ****       {
 2449              		.loc 1 806 10 view .LVU794
 2450 01f6 002A     		cmp	r2, #0
 2451 01f8 3FF42DAF 		beq	.L165
 808:Drivers/STM32H7xx_HAL_Driver/Src/stm32h7xx_ll_usb.c ****       }
 2452              		.loc 1 808 9 is_stmt 1 view .LVU795
 808:Drivers/STM32H7xx_HAL_Driver/Src/stm32h7xx_ll_usb.c ****       }
 2453              		.loc 1 808 36 is_stmt 0 view .LVU796
 2454 01fc CCF81420 		str	r2, [ip, #20]
 2455 0200 29E7     		b	.L165
 2456              	.L171:
 814:Drivers/STM32H7xx_HAL_Driver/Src/stm32h7xx_ll_usb.c ****       {
 2457              		.loc 1 814 7 is_stmt 1 view .LVU797
 814:Drivers/STM32H7xx_HAL_Driver/Src/stm32h7xx_ll_usb.c ****       {
 2458              		.loc 1 814 23 is_stmt 0 view .LVU798
 2459 0202 D0F80828 		ldr	r2, [r0, #2056]
 814:Drivers/STM32H7xx_HAL_Driver/Src/stm32h7xx_ll_usb.c ****       {
 2460              		.loc 1 814 10 view .LVU799
 2461 0206 12F4807F 		tst	r2, #256
 2462 020a 06D1     		bne	.L167
 816:Drivers/STM32H7xx_HAL_Driver/Src/stm32h7xx_ll_usb.c ****       }
 2463              		.loc 1 816 9 is_stmt 1 view .LVU800
 816:Drivers/STM32H7xx_HAL_Driver/Src/stm32h7xx_ll_usb.c ****       }
 2464              		.loc 1 816 36 is_stmt 0 view .LVU801
ARM GAS  /var/folders/26/q55yrwgs1ql1lprjdslmzz800000gn/T//ccC08pEc.s 			page 81


 2465 020c D3F8002B 		ldr	r2, [r3, #2816]
 2466 0210 42F00052 		orr	r2, r2, #536870912
 2467 0214 C3F8002B 		str	r2, [r3, #2816]
 2468 0218 21E7     		b	.L166
 2469              	.L167:
 820:Drivers/STM32H7xx_HAL_Driver/Src/stm32h7xx_ll_usb.c ****       }
 2470              		.loc 1 820 9 is_stmt 1 view .LVU802
 820:Drivers/STM32H7xx_HAL_Driver/Src/stm32h7xx_ll_usb.c ****       }
 2471              		.loc 1 820 36 is_stmt 0 view .LVU803
 2472 021a D3F8002B 		ldr	r2, [r3, #2816]
 2473 021e 42F08052 		orr	r2, r2, #268435456
 2474 0222 C3F8002B 		str	r2, [r3, #2816]
 2475 0226 1AE7     		b	.L166
 2476              	.L175:
 2477              		.align	2
 2478              	.L174:
 2479 0228 0000F8FF 		.word	-524288
 2480 022c FFFF07E0 		.word	-536346625
 2481 0230 0000F81F 		.word	536346624
 2482              		.cfi_endproc
 2483              	.LFE158:
 2485              		.section	.text.USB_ReadPacket,"ax",%progbits
 2486              		.align	1
 2487              		.global	USB_ReadPacket
 2488              		.syntax unified
 2489              		.thumb
 2490              		.thumb_func
 2492              	USB_ReadPacket:
 2493              	.LVL207:
 2494              	.LFB161:
 971:Drivers/STM32H7xx_HAL_Driver/Src/stm32h7xx_ll_usb.c ****   uint32_t USBx_BASE = (uint32_t)USBx;
 2495              		.loc 1 971 1 is_stmt 1 view -0
 2496              		.cfi_startproc
 2497              		@ args = 0, pretend = 0, frame = 8
 2498              		@ frame_needed = 0, uses_anonymous_args = 0
 971:Drivers/STM32H7xx_HAL_Driver/Src/stm32h7xx_ll_usb.c ****   uint32_t USBx_BASE = (uint32_t)USBx;
 2499              		.loc 1 971 1 is_stmt 0 view .LVU805
 2500 0000 00B5     		push	{lr}
 2501              	.LCFI26:
 2502              		.cfi_def_cfa_offset 4
 2503              		.cfi_offset 14, -4
 2504 0002 83B0     		sub	sp, sp, #12
 2505              	.LCFI27:
 2506              		.cfi_def_cfa_offset 16
 2507 0004 8446     		mov	ip, r0
 2508 0006 0846     		mov	r0, r1
 2509              	.LVL208:
 972:Drivers/STM32H7xx_HAL_Driver/Src/stm32h7xx_ll_usb.c ****   uint8_t *pDest = dest;
 2510              		.loc 1 972 3 is_stmt 1 view .LVU806
 973:Drivers/STM32H7xx_HAL_Driver/Src/stm32h7xx_ll_usb.c ****   uint32_t pData;
 2511              		.loc 1 973 3 view .LVU807
 974:Drivers/STM32H7xx_HAL_Driver/Src/stm32h7xx_ll_usb.c ****   uint32_t i;
 2512              		.loc 1 974 3 view .LVU808
 975:Drivers/STM32H7xx_HAL_Driver/Src/stm32h7xx_ll_usb.c ****   uint32_t count32b = (uint32_t)len >> 2U;
 2513              		.loc 1 975 3 view .LVU809
 976:Drivers/STM32H7xx_HAL_Driver/Src/stm32h7xx_ll_usb.c ****   uint16_t remaining_bytes = len % 4U;
 2514              		.loc 1 976 3 view .LVU810
ARM GAS  /var/folders/26/q55yrwgs1ql1lprjdslmzz800000gn/T//ccC08pEc.s 			page 82


 976:Drivers/STM32H7xx_HAL_Driver/Src/stm32h7xx_ll_usb.c ****   uint16_t remaining_bytes = len % 4U;
 2515              		.loc 1 976 37 is_stmt 0 view .LVU811
 2516 0008 4FEA920E 		lsr	lr, r2, #2
 2517              	.LVL209:
 977:Drivers/STM32H7xx_HAL_Driver/Src/stm32h7xx_ll_usb.c **** 
 2518              		.loc 1 977 3 is_stmt 1 view .LVU812
 977:Drivers/STM32H7xx_HAL_Driver/Src/stm32h7xx_ll_usb.c **** 
 2519              		.loc 1 977 12 is_stmt 0 view .LVU813
 2520 000c 02F00302 		and	r2, r2, #3
 2521              	.LVL210:
 979:Drivers/STM32H7xx_HAL_Driver/Src/stm32h7xx_ll_usb.c ****   {
 2522              		.loc 1 979 3 is_stmt 1 view .LVU814
 979:Drivers/STM32H7xx_HAL_Driver/Src/stm32h7xx_ll_usb.c ****   {
 2523              		.loc 1 979 10 is_stmt 0 view .LVU815
 2524 0010 0023     		movs	r3, #0
 979:Drivers/STM32H7xx_HAL_Driver/Src/stm32h7xx_ll_usb.c ****   {
 2525              		.loc 1 979 3 view .LVU816
 2526 0012 05E0     		b	.L177
 2527              	.LVL211:
 2528              	.L178:
 981:Drivers/STM32H7xx_HAL_Driver/Src/stm32h7xx_ll_usb.c ****     pDest++;
 2529              		.loc 1 981 5 is_stmt 1 discriminator 3 view .LVU817
 2530 0014 0CF58051 		add	r1, ip, #4096
 2531 0018 0968     		ldr	r1, [r1]
 2532 001a 40F8041B 		str	r1, [r0], #4	@ unaligned
 2533              	.LVL212:
 982:Drivers/STM32H7xx_HAL_Driver/Src/stm32h7xx_ll_usb.c ****     pDest++;
 2534              		.loc 1 982 5 discriminator 3 view .LVU818
 983:Drivers/STM32H7xx_HAL_Driver/Src/stm32h7xx_ll_usb.c ****     pDest++;
 2535              		.loc 1 983 5 discriminator 3 view .LVU819
 984:Drivers/STM32H7xx_HAL_Driver/Src/stm32h7xx_ll_usb.c ****     pDest++;
 2536              		.loc 1 984 5 discriminator 3 view .LVU820
 985:Drivers/STM32H7xx_HAL_Driver/Src/stm32h7xx_ll_usb.c ****   }
 2537              		.loc 1 985 5 discriminator 3 view .LVU821
 979:Drivers/STM32H7xx_HAL_Driver/Src/stm32h7xx_ll_usb.c ****   {
 2538              		.loc 1 979 30 discriminator 3 view .LVU822
 979:Drivers/STM32H7xx_HAL_Driver/Src/stm32h7xx_ll_usb.c ****   {
 2539              		.loc 1 979 31 is_stmt 0 discriminator 3 view .LVU823
 2540 001e 0133     		adds	r3, r3, #1
 2541              	.LVL213:
 2542              	.L177:
 979:Drivers/STM32H7xx_HAL_Driver/Src/stm32h7xx_ll_usb.c ****   {
 2543              		.loc 1 979 16 is_stmt 1 discriminator 1 view .LVU824
 979:Drivers/STM32H7xx_HAL_Driver/Src/stm32h7xx_ll_usb.c ****   {
 2544              		.loc 1 979 3 is_stmt 0 discriminator 1 view .LVU825
 2545 0020 7345     		cmp	r3, lr
 2546 0022 F7D3     		bcc	.L178
 989:Drivers/STM32H7xx_HAL_Driver/Src/stm32h7xx_ll_usb.c ****   {
 2547              		.loc 1 989 3 is_stmt 1 view .LVU826
 989:Drivers/STM32H7xx_HAL_Driver/Src/stm32h7xx_ll_usb.c ****   {
 2548              		.loc 1 989 6 is_stmt 0 view .LVU827
 2549 0024 9AB1     		cbz	r2, .L179
 991:Drivers/STM32H7xx_HAL_Driver/Src/stm32h7xx_ll_usb.c ****     __UNALIGNED_UINT32_WRITE(&pData, USBx_DFIFO(0U));
 2550              		.loc 1 991 5 is_stmt 1 view .LVU828
 2551              	.LVL214:
 992:Drivers/STM32H7xx_HAL_Driver/Src/stm32h7xx_ll_usb.c **** 	
 2552              		.loc 1 992 5 view .LVU829
ARM GAS  /var/folders/26/q55yrwgs1ql1lprjdslmzz800000gn/T//ccC08pEc.s 			page 83


 2553 0026 0CF5805C 		add	ip, ip, #4096
 2554              	.LVL215:
 992:Drivers/STM32H7xx_HAL_Driver/Src/stm32h7xx_ll_usb.c **** 	
 2555              		.loc 1 992 5 is_stmt 0 view .LVU830
 2556 002a DCF80030 		ldr	r3, [ip]
 2557 002e 0193     		str	r3, [sp, #4]
 991:Drivers/STM32H7xx_HAL_Driver/Src/stm32h7xx_ll_usb.c ****     __UNALIGNED_UINT32_WRITE(&pData, USBx_DFIFO(0U));
 2558              		.loc 1 991 7 view .LVU831
 2559 0030 4FF0000C 		mov	ip, #0
 2560              	.LVL216:
 2561              	.L180:
 994:Drivers/STM32H7xx_HAL_Driver/Src/stm32h7xx_ll_usb.c ****     {
 2562              		.loc 1 994 5 is_stmt 1 discriminator 1 view .LVU832
 996:Drivers/STM32H7xx_HAL_Driver/Src/stm32h7xx_ll_usb.c ****       i++;
 2563              		.loc 1 996 7 discriminator 1 view .LVU833
 996:Drivers/STM32H7xx_HAL_Driver/Src/stm32h7xx_ll_usb.c ****       i++;
 2564              		.loc 1 996 50 is_stmt 0 discriminator 1 view .LVU834
 2565 0034 5FFA8CF3 		uxtb	r3, ip
 2566 0038 D900     		lsls	r1, r3, #3
 996:Drivers/STM32H7xx_HAL_Driver/Src/stm32h7xx_ll_usb.c ****       i++;
 2567              		.loc 1 996 43 discriminator 1 view .LVU835
 2568 003a 019B     		ldr	r3, [sp, #4]
 2569 003c CB40     		lsrs	r3, r3, r1
 996:Drivers/STM32H7xx_HAL_Driver/Src/stm32h7xx_ll_usb.c ****       i++;
 2570              		.loc 1 996 25 discriminator 1 view .LVU836
 2571 003e 00F8013B 		strb	r3, [r0], #1
 2572              	.LVL217:
 997:Drivers/STM32H7xx_HAL_Driver/Src/stm32h7xx_ll_usb.c ****       pDest++;
 2573              		.loc 1 997 7 is_stmt 1 discriminator 1 view .LVU837
 997:Drivers/STM32H7xx_HAL_Driver/Src/stm32h7xx_ll_usb.c ****       pDest++;
 2574              		.loc 1 997 8 is_stmt 0 discriminator 1 view .LVU838
 2575 0042 0CF1010C 		add	ip, ip, #1
 2576              	.LVL218:
 998:Drivers/STM32H7xx_HAL_Driver/Src/stm32h7xx_ll_usb.c ****       remaining_bytes--;
 2577              		.loc 1 998 7 is_stmt 1 discriminator 1 view .LVU839
 999:Drivers/STM32H7xx_HAL_Driver/Src/stm32h7xx_ll_usb.c ****     } while (remaining_bytes != 0U);
 2578              		.loc 1 999 7 discriminator 1 view .LVU840
 999:Drivers/STM32H7xx_HAL_Driver/Src/stm32h7xx_ll_usb.c ****     } while (remaining_bytes != 0U);
 2579              		.loc 1 999 22 is_stmt 0 discriminator 1 view .LVU841
 2580 0046 013A     		subs	r2, r2, #1
 2581              	.LVL219:
 999:Drivers/STM32H7xx_HAL_Driver/Src/stm32h7xx_ll_usb.c ****     } while (remaining_bytes != 0U);
 2582              		.loc 1 999 22 discriminator 1 view .LVU842
 2583 0048 92B2     		uxth	r2, r2
 2584              	.LVL220:
1000:Drivers/STM32H7xx_HAL_Driver/Src/stm32h7xx_ll_usb.c ****   }
 2585              		.loc 1 1000 13 is_stmt 1 discriminator 1 view .LVU843
1000:Drivers/STM32H7xx_HAL_Driver/Src/stm32h7xx_ll_usb.c ****   }
 2586              		.loc 1 1000 5 is_stmt 0 discriminator 1 view .LVU844
 2587 004a 002A     		cmp	r2, #0
 2588 004c F2D1     		bne	.L180
 2589              	.LVL221:
 2590              	.L179:
1003:Drivers/STM32H7xx_HAL_Driver/Src/stm32h7xx_ll_usb.c **** }
 2591              		.loc 1 1003 3 is_stmt 1 view .LVU845
1004:Drivers/STM32H7xx_HAL_Driver/Src/stm32h7xx_ll_usb.c **** 
 2592              		.loc 1 1004 1 is_stmt 0 view .LVU846
ARM GAS  /var/folders/26/q55yrwgs1ql1lprjdslmzz800000gn/T//ccC08pEc.s 			page 84


 2593 004e 03B0     		add	sp, sp, #12
 2594              	.LCFI28:
 2595              		.cfi_def_cfa_offset 4
 2596              		@ sp needed
 2597 0050 5DF804FB 		ldr	pc, [sp], #4
 2598              		.cfi_endproc
 2599              	.LFE161:
 2601              		.section	.text.USB_EPSetStall,"ax",%progbits
 2602              		.align	1
 2603              		.global	USB_EPSetStall
 2604              		.syntax unified
 2605              		.thumb
 2606              		.thumb_func
 2608              	USB_EPSetStall:
 2609              	.LVL222:
 2610              	.LFB162:
1013:Drivers/STM32H7xx_HAL_Driver/Src/stm32h7xx_ll_usb.c ****   uint32_t USBx_BASE = (uint32_t)USBx;
 2611              		.loc 1 1013 1 is_stmt 1 view -0
 2612              		.cfi_startproc
 2613              		@ args = 0, pretend = 0, frame = 0
 2614              		@ frame_needed = 0, uses_anonymous_args = 0
 2615              		@ link register save eliminated.
1014:Drivers/STM32H7xx_HAL_Driver/Src/stm32h7xx_ll_usb.c ****   uint32_t epnum = (uint32_t)ep->num;
 2616              		.loc 1 1014 3 view .LVU848
1015:Drivers/STM32H7xx_HAL_Driver/Src/stm32h7xx_ll_usb.c **** 
 2617              		.loc 1 1015 3 view .LVU849
1015:Drivers/STM32H7xx_HAL_Driver/Src/stm32h7xx_ll_usb.c **** 
 2618              		.loc 1 1015 32 is_stmt 0 view .LVU850
 2619 0000 0B78     		ldrb	r3, [r1]	@ zero_extendqisi2
 2620              	.LVL223:
1017:Drivers/STM32H7xx_HAL_Driver/Src/stm32h7xx_ll_usb.c ****   {
 2621              		.loc 1 1017 3 is_stmt 1 view .LVU851
1017:Drivers/STM32H7xx_HAL_Driver/Src/stm32h7xx_ll_usb.c ****   {
 2622              		.loc 1 1017 9 is_stmt 0 view .LVU852
 2623 0002 4A78     		ldrb	r2, [r1, #1]	@ zero_extendqisi2
1017:Drivers/STM32H7xx_HAL_Driver/Src/stm32h7xx_ll_usb.c ****   {
 2624              		.loc 1 1017 6 view .LVU853
 2625 0004 012A     		cmp	r2, #1
 2626 0006 14D0     		beq	.L187
1027:Drivers/STM32H7xx_HAL_Driver/Src/stm32h7xx_ll_usb.c ****     {
 2627              		.loc 1 1027 5 is_stmt 1 view .LVU854
1027:Drivers/STM32H7xx_HAL_Driver/Src/stm32h7xx_ll_usb.c ****     {
 2628              		.loc 1 1027 11 is_stmt 0 view .LVU855
 2629 0008 00EB4310 		add	r0, r0, r3, lsl #5
 2630              	.LVL224:
1027:Drivers/STM32H7xx_HAL_Driver/Src/stm32h7xx_ll_usb.c ****     {
 2631              		.loc 1 1027 28 view .LVU856
 2632 000c D0F8002B 		ldr	r2, [r0, #2816]
1027:Drivers/STM32H7xx_HAL_Driver/Src/stm32h7xx_ll_usb.c ****     {
 2633              		.loc 1 1027 8 view .LVU857
 2634 0010 002A     		cmp	r2, #0
 2635 0012 06DB     		blt	.L186
1027:Drivers/STM32H7xx_HAL_Driver/Src/stm32h7xx_ll_usb.c ****     {
 2636              		.loc 1 1027 70 discriminator 1 view .LVU858
 2637 0014 2BB1     		cbz	r3, .L186
1029:Drivers/STM32H7xx_HAL_Driver/Src/stm32h7xx_ll_usb.c ****     }
 2638              		.loc 1 1029 7 is_stmt 1 view .LVU859
ARM GAS  /var/folders/26/q55yrwgs1ql1lprjdslmzz800000gn/T//ccC08pEc.s 			page 85


1029:Drivers/STM32H7xx_HAL_Driver/Src/stm32h7xx_ll_usb.c ****     }
 2639              		.loc 1 1029 34 is_stmt 0 view .LVU860
 2640 0016 D0F8003B 		ldr	r3, [r0, #2816]
 2641              	.LVL225:
1029:Drivers/STM32H7xx_HAL_Driver/Src/stm32h7xx_ll_usb.c ****     }
 2642              		.loc 1 1029 34 view .LVU861
 2643 001a 23F08043 		bic	r3, r3, #1073741824
 2644 001e C0F8003B 		str	r3, [r0, #2816]
 2645              	.LVL226:
 2646              	.L186:
1031:Drivers/STM32H7xx_HAL_Driver/Src/stm32h7xx_ll_usb.c ****   }
 2647              		.loc 1 1031 5 is_stmt 1 view .LVU862
1031:Drivers/STM32H7xx_HAL_Driver/Src/stm32h7xx_ll_usb.c ****   }
 2648              		.loc 1 1031 32 is_stmt 0 view .LVU863
 2649 0022 D0F8003B 		ldr	r3, [r0, #2816]
 2650 0026 43F40013 		orr	r3, r3, #2097152
 2651 002a C0F8003B 		str	r3, [r0, #2816]
 2652              	.L185:
1034:Drivers/STM32H7xx_HAL_Driver/Src/stm32h7xx_ll_usb.c **** }
 2653              		.loc 1 1034 3 is_stmt 1 view .LVU864
1035:Drivers/STM32H7xx_HAL_Driver/Src/stm32h7xx_ll_usb.c **** 
 2654              		.loc 1 1035 1 is_stmt 0 view .LVU865
 2655 002e 0020     		movs	r0, #0
 2656 0030 7047     		bx	lr
 2657              	.LVL227:
 2658              	.L187:
1019:Drivers/STM32H7xx_HAL_Driver/Src/stm32h7xx_ll_usb.c ****     {
 2659              		.loc 1 1019 5 is_stmt 1 view .LVU866
1019:Drivers/STM32H7xx_HAL_Driver/Src/stm32h7xx_ll_usb.c ****     {
 2660              		.loc 1 1019 11 is_stmt 0 view .LVU867
 2661 0032 00EB4310 		add	r0, r0, r3, lsl #5
 2662              	.LVL228:
1019:Drivers/STM32H7xx_HAL_Driver/Src/stm32h7xx_ll_usb.c ****     {
 2663              		.loc 1 1019 27 view .LVU868
 2664 0036 D0F80029 		ldr	r2, [r0, #2304]
1019:Drivers/STM32H7xx_HAL_Driver/Src/stm32h7xx_ll_usb.c ****     {
 2665              		.loc 1 1019 8 view .LVU869
 2666 003a 002A     		cmp	r2, #0
 2667 003c 06DB     		blt	.L184
1019:Drivers/STM32H7xx_HAL_Driver/Src/stm32h7xx_ll_usb.c ****     {
 2668              		.loc 1 1019 69 discriminator 1 view .LVU870
 2669 003e 2BB1     		cbz	r3, .L184
1021:Drivers/STM32H7xx_HAL_Driver/Src/stm32h7xx_ll_usb.c ****     }
 2670              		.loc 1 1021 7 is_stmt 1 view .LVU871
1021:Drivers/STM32H7xx_HAL_Driver/Src/stm32h7xx_ll_usb.c ****     }
 2671              		.loc 1 1021 33 is_stmt 0 view .LVU872
 2672 0040 D0F80039 		ldr	r3, [r0, #2304]
 2673              	.LVL229:
1021:Drivers/STM32H7xx_HAL_Driver/Src/stm32h7xx_ll_usb.c ****     }
 2674              		.loc 1 1021 33 view .LVU873
 2675 0044 23F08043 		bic	r3, r3, #1073741824
 2676 0048 C0F80039 		str	r3, [r0, #2304]
 2677              	.LVL230:
 2678              	.L184:
1023:Drivers/STM32H7xx_HAL_Driver/Src/stm32h7xx_ll_usb.c ****   }
 2679              		.loc 1 1023 5 is_stmt 1 view .LVU874
1023:Drivers/STM32H7xx_HAL_Driver/Src/stm32h7xx_ll_usb.c ****   }
ARM GAS  /var/folders/26/q55yrwgs1ql1lprjdslmzz800000gn/T//ccC08pEc.s 			page 86


 2680              		.loc 1 1023 31 is_stmt 0 view .LVU875
 2681 004c D0F80039 		ldr	r3, [r0, #2304]
 2682 0050 43F40013 		orr	r3, r3, #2097152
 2683 0054 C0F80039 		str	r3, [r0, #2304]
 2684 0058 E9E7     		b	.L185
 2685              		.cfi_endproc
 2686              	.LFE162:
 2688              		.section	.text.USB_EPClearStall,"ax",%progbits
 2689              		.align	1
 2690              		.global	USB_EPClearStall
 2691              		.syntax unified
 2692              		.thumb
 2693              		.thumb_func
 2695              	USB_EPClearStall:
 2696              	.LVL231:
 2697              	.LFB163:
1044:Drivers/STM32H7xx_HAL_Driver/Src/stm32h7xx_ll_usb.c ****   uint32_t USBx_BASE = (uint32_t)USBx;
 2698              		.loc 1 1044 1 is_stmt 1 view -0
 2699              		.cfi_startproc
 2700              		@ args = 0, pretend = 0, frame = 0
 2701              		@ frame_needed = 0, uses_anonymous_args = 0
 2702              		@ link register save eliminated.
1045:Drivers/STM32H7xx_HAL_Driver/Src/stm32h7xx_ll_usb.c ****   uint32_t epnum = (uint32_t)ep->num;
 2703              		.loc 1 1045 3 view .LVU877
1046:Drivers/STM32H7xx_HAL_Driver/Src/stm32h7xx_ll_usb.c **** 
 2704              		.loc 1 1046 3 view .LVU878
1046:Drivers/STM32H7xx_HAL_Driver/Src/stm32h7xx_ll_usb.c **** 
 2705              		.loc 1 1046 32 is_stmt 0 view .LVU879
 2706 0000 0B78     		ldrb	r3, [r1]	@ zero_extendqisi2
 2707              	.LVL232:
1048:Drivers/STM32H7xx_HAL_Driver/Src/stm32h7xx_ll_usb.c ****   {
 2708              		.loc 1 1048 3 is_stmt 1 view .LVU880
1048:Drivers/STM32H7xx_HAL_Driver/Src/stm32h7xx_ll_usb.c ****   {
 2709              		.loc 1 1048 9 is_stmt 0 view .LVU881
 2710 0002 4A78     		ldrb	r2, [r1, #1]	@ zero_extendqisi2
1048:Drivers/STM32H7xx_HAL_Driver/Src/stm32h7xx_ll_usb.c ****   {
 2711              		.loc 1 1048 6 view .LVU882
 2712 0004 012A     		cmp	r2, #1
 2713 0006 0ED0     		beq	.L191
1058:Drivers/STM32H7xx_HAL_Driver/Src/stm32h7xx_ll_usb.c ****     if ((ep->type == EP_TYPE_INTR) || (ep->type == EP_TYPE_BULK))
 2714              		.loc 1 1058 5 is_stmt 1 view .LVU883
1058:Drivers/STM32H7xx_HAL_Driver/Src/stm32h7xx_ll_usb.c ****     if ((ep->type == EP_TYPE_INTR) || (ep->type == EP_TYPE_BULK))
 2715              		.loc 1 1058 32 is_stmt 0 view .LVU884
 2716 0008 00EB4310 		add	r0, r0, r3, lsl #5
 2717              	.LVL233:
1058:Drivers/STM32H7xx_HAL_Driver/Src/stm32h7xx_ll_usb.c ****     if ((ep->type == EP_TYPE_INTR) || (ep->type == EP_TYPE_BULK))
 2718              		.loc 1 1058 32 view .LVU885
 2719 000c D0F8003B 		ldr	r3, [r0, #2816]
 2720              	.LVL234:
1058:Drivers/STM32H7xx_HAL_Driver/Src/stm32h7xx_ll_usb.c ****     if ((ep->type == EP_TYPE_INTR) || (ep->type == EP_TYPE_BULK))
 2721              		.loc 1 1058 32 view .LVU886
 2722 0010 23F40013 		bic	r3, r3, #2097152
 2723 0014 C0F8003B 		str	r3, [r0, #2816]
 2724              	.LVL235:
1059:Drivers/STM32H7xx_HAL_Driver/Src/stm32h7xx_ll_usb.c ****     {
 2725              		.loc 1 1059 5 is_stmt 1 view .LVU887
1059:Drivers/STM32H7xx_HAL_Driver/Src/stm32h7xx_ll_usb.c ****     {
ARM GAS  /var/folders/26/q55yrwgs1ql1lprjdslmzz800000gn/T//ccC08pEc.s 			page 87


 2726              		.loc 1 1059 12 is_stmt 0 view .LVU888
 2727 0018 CB78     		ldrb	r3, [r1, #3]	@ zero_extendqisi2
1059:Drivers/STM32H7xx_HAL_Driver/Src/stm32h7xx_ll_usb.c ****     {
 2728              		.loc 1 1059 36 view .LVU889
 2729 001a 023B     		subs	r3, r3, #2
 2730 001c DBB2     		uxtb	r3, r3
1059:Drivers/STM32H7xx_HAL_Driver/Src/stm32h7xx_ll_usb.c ****     {
 2731              		.loc 1 1059 8 view .LVU890
 2732 001e 012B     		cmp	r3, #1
 2733 0020 15D9     		bls	.L192
 2734              	.L190:
1064:Drivers/STM32H7xx_HAL_Driver/Src/stm32h7xx_ll_usb.c **** }
 2735              		.loc 1 1064 3 is_stmt 1 view .LVU891
1065:Drivers/STM32H7xx_HAL_Driver/Src/stm32h7xx_ll_usb.c **** 
 2736              		.loc 1 1065 1 is_stmt 0 view .LVU892
 2737 0022 0020     		movs	r0, #0
 2738 0024 7047     		bx	lr
 2739              	.LVL236:
 2740              	.L191:
1050:Drivers/STM32H7xx_HAL_Driver/Src/stm32h7xx_ll_usb.c ****     if ((ep->type == EP_TYPE_INTR) || (ep->type == EP_TYPE_BULK))
 2741              		.loc 1 1050 5 is_stmt 1 view .LVU893
1050:Drivers/STM32H7xx_HAL_Driver/Src/stm32h7xx_ll_usb.c ****     if ((ep->type == EP_TYPE_INTR) || (ep->type == EP_TYPE_BULK))
 2742              		.loc 1 1050 31 is_stmt 0 view .LVU894
 2743 0026 00EB4310 		add	r0, r0, r3, lsl #5
 2744              	.LVL237:
1050:Drivers/STM32H7xx_HAL_Driver/Src/stm32h7xx_ll_usb.c ****     if ((ep->type == EP_TYPE_INTR) || (ep->type == EP_TYPE_BULK))
 2745              		.loc 1 1050 31 view .LVU895
 2746 002a D0F80039 		ldr	r3, [r0, #2304]
 2747              	.LVL238:
1050:Drivers/STM32H7xx_HAL_Driver/Src/stm32h7xx_ll_usb.c ****     if ((ep->type == EP_TYPE_INTR) || (ep->type == EP_TYPE_BULK))
 2748              		.loc 1 1050 31 view .LVU896
 2749 002e 23F40013 		bic	r3, r3, #2097152
 2750 0032 C0F80039 		str	r3, [r0, #2304]
 2751              	.LVL239:
1051:Drivers/STM32H7xx_HAL_Driver/Src/stm32h7xx_ll_usb.c ****     {
 2752              		.loc 1 1051 5 is_stmt 1 view .LVU897
1051:Drivers/STM32H7xx_HAL_Driver/Src/stm32h7xx_ll_usb.c ****     {
 2753              		.loc 1 1051 12 is_stmt 0 view .LVU898
 2754 0036 CB78     		ldrb	r3, [r1, #3]	@ zero_extendqisi2
1051:Drivers/STM32H7xx_HAL_Driver/Src/stm32h7xx_ll_usb.c ****     {
 2755              		.loc 1 1051 36 view .LVU899
 2756 0038 023B     		subs	r3, r3, #2
 2757 003a DBB2     		uxtb	r3, r3
1051:Drivers/STM32H7xx_HAL_Driver/Src/stm32h7xx_ll_usb.c ****     {
 2758              		.loc 1 1051 8 view .LVU900
 2759 003c 012B     		cmp	r3, #1
 2760 003e F0D8     		bhi	.L190
1053:Drivers/STM32H7xx_HAL_Driver/Src/stm32h7xx_ll_usb.c ****     }
 2761              		.loc 1 1053 7 is_stmt 1 view .LVU901
1053:Drivers/STM32H7xx_HAL_Driver/Src/stm32h7xx_ll_usb.c ****     }
 2762              		.loc 1 1053 33 is_stmt 0 view .LVU902
 2763 0040 D0F80039 		ldr	r3, [r0, #2304]
 2764 0044 43F08053 		orr	r3, r3, #268435456
 2765 0048 C0F80039 		str	r3, [r0, #2304]
 2766 004c E9E7     		b	.L190
 2767              	.L192:
1061:Drivers/STM32H7xx_HAL_Driver/Src/stm32h7xx_ll_usb.c ****     }
ARM GAS  /var/folders/26/q55yrwgs1ql1lprjdslmzz800000gn/T//ccC08pEc.s 			page 88


 2768              		.loc 1 1061 7 is_stmt 1 view .LVU903
1061:Drivers/STM32H7xx_HAL_Driver/Src/stm32h7xx_ll_usb.c ****     }
 2769              		.loc 1 1061 34 is_stmt 0 view .LVU904
 2770 004e D0F8003B 		ldr	r3, [r0, #2816]
 2771 0052 43F08053 		orr	r3, r3, #268435456
 2772 0056 C0F8003B 		str	r3, [r0, #2816]
 2773 005a E2E7     		b	.L190
 2774              		.cfi_endproc
 2775              	.LFE163:
 2777              		.section	.text.USB_StopDevice,"ax",%progbits
 2778              		.align	1
 2779              		.global	USB_StopDevice
 2780              		.syntax unified
 2781              		.thumb
 2782              		.thumb_func
 2784              	USB_StopDevice:
 2785              	.LVL240:
 2786              	.LFB164:
1073:Drivers/STM32H7xx_HAL_Driver/Src/stm32h7xx_ll_usb.c ****   HAL_StatusTypeDef ret;
 2787              		.loc 1 1073 1 is_stmt 1 view -0
 2788              		.cfi_startproc
 2789              		@ args = 0, pretend = 0, frame = 0
 2790              		@ frame_needed = 0, uses_anonymous_args = 0
1073:Drivers/STM32H7xx_HAL_Driver/Src/stm32h7xx_ll_usb.c ****   HAL_StatusTypeDef ret;
 2791              		.loc 1 1073 1 is_stmt 0 view .LVU906
 2792 0000 10B5     		push	{r4, lr}
 2793              	.LCFI29:
 2794              		.cfi_def_cfa_offset 8
 2795              		.cfi_offset 4, -8
 2796              		.cfi_offset 14, -4
 2797 0002 0446     		mov	r4, r0
1074:Drivers/STM32H7xx_HAL_Driver/Src/stm32h7xx_ll_usb.c ****   uint32_t USBx_BASE = (uint32_t)USBx;
 2798              		.loc 1 1074 3 is_stmt 1 view .LVU907
1075:Drivers/STM32H7xx_HAL_Driver/Src/stm32h7xx_ll_usb.c ****   uint32_t i;
 2799              		.loc 1 1075 3 view .LVU908
 2800              	.LVL241:
1076:Drivers/STM32H7xx_HAL_Driver/Src/stm32h7xx_ll_usb.c **** 
 2801              		.loc 1 1076 3 view .LVU909
1079:Drivers/STM32H7xx_HAL_Driver/Src/stm32h7xx_ll_usb.c ****   {
 2802              		.loc 1 1079 3 view .LVU910
1079:Drivers/STM32H7xx_HAL_Driver/Src/stm32h7xx_ll_usb.c ****   {
 2803              		.loc 1 1079 10 is_stmt 0 view .LVU911
 2804 0004 0022     		movs	r2, #0
1079:Drivers/STM32H7xx_HAL_Driver/Src/stm32h7xx_ll_usb.c ****   {
 2805              		.loc 1 1079 3 view .LVU912
 2806 0006 08E0     		b	.L194
 2807              	.LVL242:
 2808              	.L195:
1081:Drivers/STM32H7xx_HAL_Driver/Src/stm32h7xx_ll_usb.c ****     USBx_OUTEP(i)->DOEPINT = 0xFB7FU;
 2809              		.loc 1 1081 5 is_stmt 1 discriminator 3 view .LVU913
 2810 0008 04EB4213 		add	r3, r4, r2, lsl #5
1081:Drivers/STM32H7xx_HAL_Driver/Src/stm32h7xx_ll_usb.c ****     USBx_OUTEP(i)->DOEPINT = 0xFB7FU;
 2811              		.loc 1 1081 27 is_stmt 0 discriminator 3 view .LVU914
 2812 000c 4FF67F31 		movw	r1, #64383
 2813 0010 C3F80819 		str	r1, [r3, #2312]
1082:Drivers/STM32H7xx_HAL_Driver/Src/stm32h7xx_ll_usb.c ****   }
 2814              		.loc 1 1082 5 is_stmt 1 discriminator 3 view .LVU915
ARM GAS  /var/folders/26/q55yrwgs1ql1lprjdslmzz800000gn/T//ccC08pEc.s 			page 89


1082:Drivers/STM32H7xx_HAL_Driver/Src/stm32h7xx_ll_usb.c ****   }
 2815              		.loc 1 1082 28 is_stmt 0 discriminator 3 view .LVU916
 2816 0014 C3F8081B 		str	r1, [r3, #2824]
1079:Drivers/STM32H7xx_HAL_Driver/Src/stm32h7xx_ll_usb.c ****   {
 2817              		.loc 1 1079 25 is_stmt 1 discriminator 3 view .LVU917
1079:Drivers/STM32H7xx_HAL_Driver/Src/stm32h7xx_ll_usb.c ****   {
 2818              		.loc 1 1079 26 is_stmt 0 discriminator 3 view .LVU918
 2819 0018 0132     		adds	r2, r2, #1
 2820              	.LVL243:
 2821              	.L194:
1079:Drivers/STM32H7xx_HAL_Driver/Src/stm32h7xx_ll_usb.c ****   {
 2822              		.loc 1 1079 16 is_stmt 1 discriminator 1 view .LVU919
1079:Drivers/STM32H7xx_HAL_Driver/Src/stm32h7xx_ll_usb.c ****   {
 2823              		.loc 1 1079 3 is_stmt 0 discriminator 1 view .LVU920
 2824 001a 0E2A     		cmp	r2, #14
 2825 001c F4D9     		bls	.L195
1086:Drivers/STM32H7xx_HAL_Driver/Src/stm32h7xx_ll_usb.c ****   USBx_DEVICE->DOEPMSK  = 0U;
 2826              		.loc 1 1086 3 is_stmt 1 view .LVU921
1086:Drivers/STM32H7xx_HAL_Driver/Src/stm32h7xx_ll_usb.c ****   USBx_DEVICE->DOEPMSK  = 0U;
 2827              		.loc 1 1086 25 is_stmt 0 view .LVU922
 2828 001e 0022     		movs	r2, #0
 2829              	.LVL244:
1086:Drivers/STM32H7xx_HAL_Driver/Src/stm32h7xx_ll_usb.c ****   USBx_DEVICE->DOEPMSK  = 0U;
 2830              		.loc 1 1086 25 view .LVU923
 2831 0020 C4F81028 		str	r2, [r4, #2064]
1087:Drivers/STM32H7xx_HAL_Driver/Src/stm32h7xx_ll_usb.c ****   USBx_DEVICE->DAINTMSK = 0U;
 2832              		.loc 1 1087 3 is_stmt 1 view .LVU924
1087:Drivers/STM32H7xx_HAL_Driver/Src/stm32h7xx_ll_usb.c ****   USBx_DEVICE->DAINTMSK = 0U;
 2833              		.loc 1 1087 25 is_stmt 0 view .LVU925
 2834 0024 C4F81428 		str	r2, [r4, #2068]
1088:Drivers/STM32H7xx_HAL_Driver/Src/stm32h7xx_ll_usb.c **** 
 2835              		.loc 1 1088 3 is_stmt 1 view .LVU926
1088:Drivers/STM32H7xx_HAL_Driver/Src/stm32h7xx_ll_usb.c **** 
 2836              		.loc 1 1088 25 is_stmt 0 view .LVU927
 2837 0028 C4F81C28 		str	r2, [r4, #2076]
1091:Drivers/STM32H7xx_HAL_Driver/Src/stm32h7xx_ll_usb.c ****   if (ret != HAL_OK)
 2838              		.loc 1 1091 3 is_stmt 1 view .LVU928
1091:Drivers/STM32H7xx_HAL_Driver/Src/stm32h7xx_ll_usb.c ****   if (ret != HAL_OK)
 2839              		.loc 1 1091 9 is_stmt 0 view .LVU929
 2840 002c 2046     		mov	r0, r4
 2841              	.LVL245:
1091:Drivers/STM32H7xx_HAL_Driver/Src/stm32h7xx_ll_usb.c ****   if (ret != HAL_OK)
 2842              		.loc 1 1091 9 view .LVU930
 2843 002e FFF7FEFF 		bl	USB_FlushRxFifo
 2844              	.LVL246:
1092:Drivers/STM32H7xx_HAL_Driver/Src/stm32h7xx_ll_usb.c ****   {
 2845              		.loc 1 1092 3 is_stmt 1 view .LVU931
1092:Drivers/STM32H7xx_HAL_Driver/Src/stm32h7xx_ll_usb.c ****   {
 2846              		.loc 1 1092 6 is_stmt 0 view .LVU932
 2847 0032 00B1     		cbz	r0, .L198
 2848              	.L196:
1104:Drivers/STM32H7xx_HAL_Driver/Src/stm32h7xx_ll_usb.c **** 
 2849              		.loc 1 1104 1 view .LVU933
 2850 0034 10BD     		pop	{r4, pc}
 2851              	.LVL247:
 2852              	.L198:
1097:Drivers/STM32H7xx_HAL_Driver/Src/stm32h7xx_ll_usb.c ****   if (ret != HAL_OK)
ARM GAS  /var/folders/26/q55yrwgs1ql1lprjdslmzz800000gn/T//ccC08pEc.s 			page 90


 2853              		.loc 1 1097 3 is_stmt 1 view .LVU934
1097:Drivers/STM32H7xx_HAL_Driver/Src/stm32h7xx_ll_usb.c ****   if (ret != HAL_OK)
 2854              		.loc 1 1097 9 is_stmt 0 view .LVU935
 2855 0036 1021     		movs	r1, #16
 2856 0038 2046     		mov	r0, r4
 2857              	.LVL248:
1097:Drivers/STM32H7xx_HAL_Driver/Src/stm32h7xx_ll_usb.c ****   if (ret != HAL_OK)
 2858              		.loc 1 1097 9 view .LVU936
 2859 003a FFF7FEFF 		bl	USB_FlushTxFifo
 2860              	.LVL249:
1098:Drivers/STM32H7xx_HAL_Driver/Src/stm32h7xx_ll_usb.c ****   {
 2861              		.loc 1 1098 3 is_stmt 1 view .LVU937
 2862 003e F9E7     		b	.L196
 2863              		.cfi_endproc
 2864              	.LFE164:
 2866              		.section	.text.USB_SetDevAddress,"ax",%progbits
 2867              		.align	1
 2868              		.global	USB_SetDevAddress
 2869              		.syntax unified
 2870              		.thumb
 2871              		.thumb_func
 2873              	USB_SetDevAddress:
 2874              	.LVL250:
 2875              	.LFB165:
1114:Drivers/STM32H7xx_HAL_Driver/Src/stm32h7xx_ll_usb.c ****   uint32_t USBx_BASE = (uint32_t)USBx;
 2876              		.loc 1 1114 1 view -0
 2877              		.cfi_startproc
 2878              		@ args = 0, pretend = 0, frame = 0
 2879              		@ frame_needed = 0, uses_anonymous_args = 0
 2880              		@ link register save eliminated.
1115:Drivers/STM32H7xx_HAL_Driver/Src/stm32h7xx_ll_usb.c **** 
 2881              		.loc 1 1115 3 view .LVU939
1117:Drivers/STM32H7xx_HAL_Driver/Src/stm32h7xx_ll_usb.c ****   USBx_DEVICE->DCFG |= ((uint32_t)address << 4) & USB_OTG_DCFG_DAD;
 2882              		.loc 1 1117 3 view .LVU940
1117:Drivers/STM32H7xx_HAL_Driver/Src/stm32h7xx_ll_usb.c ****   USBx_DEVICE->DCFG |= ((uint32_t)address << 4) & USB_OTG_DCFG_DAD;
 2883              		.loc 1 1117 21 is_stmt 0 view .LVU941
 2884 0000 D0F80038 		ldr	r3, [r0, #2048]
 2885 0004 23F4FE63 		bic	r3, r3, #2032
 2886 0008 C0F80038 		str	r3, [r0, #2048]
1118:Drivers/STM32H7xx_HAL_Driver/Src/stm32h7xx_ll_usb.c **** 
 2887              		.loc 1 1118 3 is_stmt 1 view .LVU942
1118:Drivers/STM32H7xx_HAL_Driver/Src/stm32h7xx_ll_usb.c **** 
 2888              		.loc 1 1118 21 is_stmt 0 view .LVU943
 2889 000c D0F80038 		ldr	r3, [r0, #2048]
1118:Drivers/STM32H7xx_HAL_Driver/Src/stm32h7xx_ll_usb.c **** 
 2890              		.loc 1 1118 43 view .LVU944
 2891 0010 0901     		lsls	r1, r1, #4
 2892              	.LVL251:
1118:Drivers/STM32H7xx_HAL_Driver/Src/stm32h7xx_ll_usb.c **** 
 2893              		.loc 1 1118 49 view .LVU945
 2894 0012 01F4FE61 		and	r1, r1, #2032
1118:Drivers/STM32H7xx_HAL_Driver/Src/stm32h7xx_ll_usb.c **** 
 2895              		.loc 1 1118 21 view .LVU946
 2896 0016 1943     		orrs	r1, r1, r3
 2897 0018 C0F80018 		str	r1, [r0, #2048]
1120:Drivers/STM32H7xx_HAL_Driver/Src/stm32h7xx_ll_usb.c **** }
 2898              		.loc 1 1120 3 is_stmt 1 view .LVU947
ARM GAS  /var/folders/26/q55yrwgs1ql1lprjdslmzz800000gn/T//ccC08pEc.s 			page 91


1121:Drivers/STM32H7xx_HAL_Driver/Src/stm32h7xx_ll_usb.c **** 
 2899              		.loc 1 1121 1 is_stmt 0 view .LVU948
 2900 001c 0020     		movs	r0, #0
 2901              	.LVL252:
1121:Drivers/STM32H7xx_HAL_Driver/Src/stm32h7xx_ll_usb.c **** 
 2902              		.loc 1 1121 1 view .LVU949
 2903 001e 7047     		bx	lr
 2904              		.cfi_endproc
 2905              	.LFE165:
 2907              		.section	.text.USB_DevConnect,"ax",%progbits
 2908              		.align	1
 2909              		.global	USB_DevConnect
 2910              		.syntax unified
 2911              		.thumb
 2912              		.thumb_func
 2914              	USB_DevConnect:
 2915              	.LVL253:
 2916              	.LFB166:
1129:Drivers/STM32H7xx_HAL_Driver/Src/stm32h7xx_ll_usb.c ****   uint32_t USBx_BASE = (uint32_t)USBx;
 2917              		.loc 1 1129 1 is_stmt 1 view -0
 2918              		.cfi_startproc
 2919              		@ args = 0, pretend = 0, frame = 0
 2920              		@ frame_needed = 0, uses_anonymous_args = 0
 2921              		@ link register save eliminated.
1130:Drivers/STM32H7xx_HAL_Driver/Src/stm32h7xx_ll_usb.c **** 
 2922              		.loc 1 1130 3 view .LVU951
1133:Drivers/STM32H7xx_HAL_Driver/Src/stm32h7xx_ll_usb.c **** 
 2923              		.loc 1 1133 3 view .LVU952
1133:Drivers/STM32H7xx_HAL_Driver/Src/stm32h7xx_ll_usb.c **** 
 2924              		.loc 1 1133 16 is_stmt 0 view .LVU953
 2925 0000 D0F8003E 		ldr	r3, [r0, #3584]
 2926 0004 23F00303 		bic	r3, r3, #3
 2927 0008 C0F8003E 		str	r3, [r0, #3584]
1135:Drivers/STM32H7xx_HAL_Driver/Src/stm32h7xx_ll_usb.c **** 
 2928              		.loc 1 1135 3 is_stmt 1 view .LVU954
1135:Drivers/STM32H7xx_HAL_Driver/Src/stm32h7xx_ll_usb.c **** 
 2929              		.loc 1 1135 21 is_stmt 0 view .LVU955
 2930 000c D0F80438 		ldr	r3, [r0, #2052]
 2931 0010 23F00203 		bic	r3, r3, #2
 2932 0014 C0F80438 		str	r3, [r0, #2052]
1137:Drivers/STM32H7xx_HAL_Driver/Src/stm32h7xx_ll_usb.c **** }
 2933              		.loc 1 1137 3 is_stmt 1 view .LVU956
1138:Drivers/STM32H7xx_HAL_Driver/Src/stm32h7xx_ll_usb.c **** 
 2934              		.loc 1 1138 1 is_stmt 0 view .LVU957
 2935 0018 0020     		movs	r0, #0
 2936              	.LVL254:
1138:Drivers/STM32H7xx_HAL_Driver/Src/stm32h7xx_ll_usb.c **** 
 2937              		.loc 1 1138 1 view .LVU958
 2938 001a 7047     		bx	lr
 2939              		.cfi_endproc
 2940              	.LFE166:
 2942              		.section	.text.USB_DevDisconnect,"ax",%progbits
 2943              		.align	1
 2944              		.global	USB_DevDisconnect
 2945              		.syntax unified
 2946              		.thumb
 2947              		.thumb_func
ARM GAS  /var/folders/26/q55yrwgs1ql1lprjdslmzz800000gn/T//ccC08pEc.s 			page 92


 2949              	USB_DevDisconnect:
 2950              	.LVL255:
 2951              	.LFB167:
1146:Drivers/STM32H7xx_HAL_Driver/Src/stm32h7xx_ll_usb.c ****   uint32_t USBx_BASE = (uint32_t)USBx;
 2952              		.loc 1 1146 1 is_stmt 1 view -0
 2953              		.cfi_startproc
 2954              		@ args = 0, pretend = 0, frame = 0
 2955              		@ frame_needed = 0, uses_anonymous_args = 0
 2956              		@ link register save eliminated.
1147:Drivers/STM32H7xx_HAL_Driver/Src/stm32h7xx_ll_usb.c **** 
 2957              		.loc 1 1147 3 view .LVU960
1150:Drivers/STM32H7xx_HAL_Driver/Src/stm32h7xx_ll_usb.c **** 
 2958              		.loc 1 1150 3 view .LVU961
1150:Drivers/STM32H7xx_HAL_Driver/Src/stm32h7xx_ll_usb.c **** 
 2959              		.loc 1 1150 16 is_stmt 0 view .LVU962
 2960 0000 D0F8003E 		ldr	r3, [r0, #3584]
 2961 0004 23F00303 		bic	r3, r3, #3
 2962 0008 C0F8003E 		str	r3, [r0, #3584]
1152:Drivers/STM32H7xx_HAL_Driver/Src/stm32h7xx_ll_usb.c **** 
 2963              		.loc 1 1152 3 is_stmt 1 view .LVU963
1152:Drivers/STM32H7xx_HAL_Driver/Src/stm32h7xx_ll_usb.c **** 
 2964              		.loc 1 1152 21 is_stmt 0 view .LVU964
 2965 000c D0F80438 		ldr	r3, [r0, #2052]
 2966 0010 43F00203 		orr	r3, r3, #2
 2967 0014 C0F80438 		str	r3, [r0, #2052]
1154:Drivers/STM32H7xx_HAL_Driver/Src/stm32h7xx_ll_usb.c **** }
 2968              		.loc 1 1154 3 is_stmt 1 view .LVU965
1155:Drivers/STM32H7xx_HAL_Driver/Src/stm32h7xx_ll_usb.c **** 
 2969              		.loc 1 1155 1 is_stmt 0 view .LVU966
 2970 0018 0020     		movs	r0, #0
 2971              	.LVL256:
1155:Drivers/STM32H7xx_HAL_Driver/Src/stm32h7xx_ll_usb.c **** 
 2972              		.loc 1 1155 1 view .LVU967
 2973 001a 7047     		bx	lr
 2974              		.cfi_endproc
 2975              	.LFE167:
 2977              		.section	.text.USB_ReadInterrupts,"ax",%progbits
 2978              		.align	1
 2979              		.global	USB_ReadInterrupts
 2980              		.syntax unified
 2981              		.thumb
 2982              		.thumb_func
 2984              	USB_ReadInterrupts:
 2985              	.LVL257:
 2986              	.LFB168:
1163:Drivers/STM32H7xx_HAL_Driver/Src/stm32h7xx_ll_usb.c ****   uint32_t tmpreg;
 2987              		.loc 1 1163 1 is_stmt 1 view -0
 2988              		.cfi_startproc
 2989              		@ args = 0, pretend = 0, frame = 0
 2990              		@ frame_needed = 0, uses_anonymous_args = 0
 2991              		@ link register save eliminated.
1164:Drivers/STM32H7xx_HAL_Driver/Src/stm32h7xx_ll_usb.c **** 
 2992              		.loc 1 1164 3 view .LVU969
1166:Drivers/STM32H7xx_HAL_Driver/Src/stm32h7xx_ll_usb.c ****   tmpreg &= USBx->GINTMSK;
 2993              		.loc 1 1166 3 view .LVU970
1166:Drivers/STM32H7xx_HAL_Driver/Src/stm32h7xx_ll_usb.c ****   tmpreg &= USBx->GINTMSK;
 2994              		.loc 1 1166 10 is_stmt 0 view .LVU971
ARM GAS  /var/folders/26/q55yrwgs1ql1lprjdslmzz800000gn/T//ccC08pEc.s 			page 93


 2995 0000 4269     		ldr	r2, [r0, #20]
 2996              	.LVL258:
1167:Drivers/STM32H7xx_HAL_Driver/Src/stm32h7xx_ll_usb.c **** 
 2997              		.loc 1 1167 3 is_stmt 1 view .LVU972
1167:Drivers/STM32H7xx_HAL_Driver/Src/stm32h7xx_ll_usb.c **** 
 2998              		.loc 1 1167 17 is_stmt 0 view .LVU973
 2999 0002 8069     		ldr	r0, [r0, #24]
 3000              	.LVL259:
1169:Drivers/STM32H7xx_HAL_Driver/Src/stm32h7xx_ll_usb.c **** }
 3001              		.loc 1 1169 3 is_stmt 1 view .LVU974
1170:Drivers/STM32H7xx_HAL_Driver/Src/stm32h7xx_ll_usb.c **** 
 3002              		.loc 1 1170 1 is_stmt 0 view .LVU975
 3003 0004 1040     		ands	r0, r0, r2
 3004              	.LVL260:
1170:Drivers/STM32H7xx_HAL_Driver/Src/stm32h7xx_ll_usb.c **** 
 3005              		.loc 1 1170 1 view .LVU976
 3006 0006 7047     		bx	lr
 3007              		.cfi_endproc
 3008              	.LFE168:
 3010              		.section	.text.USB_ReadDevAllOutEpInterrupt,"ax",%progbits
 3011              		.align	1
 3012              		.global	USB_ReadDevAllOutEpInterrupt
 3013              		.syntax unified
 3014              		.thumb
 3015              		.thumb_func
 3017              	USB_ReadDevAllOutEpInterrupt:
 3018              	.LVL261:
 3019              	.LFB169:
1178:Drivers/STM32H7xx_HAL_Driver/Src/stm32h7xx_ll_usb.c ****   uint32_t USBx_BASE = (uint32_t)USBx;
 3020              		.loc 1 1178 1 is_stmt 1 view -0
 3021              		.cfi_startproc
 3022              		@ args = 0, pretend = 0, frame = 0
 3023              		@ frame_needed = 0, uses_anonymous_args = 0
 3024              		@ link register save eliminated.
1179:Drivers/STM32H7xx_HAL_Driver/Src/stm32h7xx_ll_usb.c ****   uint32_t tmpreg;
 3025              		.loc 1 1179 3 view .LVU978
1180:Drivers/STM32H7xx_HAL_Driver/Src/stm32h7xx_ll_usb.c **** 
 3026              		.loc 1 1180 3 view .LVU979
1182:Drivers/STM32H7xx_HAL_Driver/Src/stm32h7xx_ll_usb.c ****   tmpreg &= USBx_DEVICE->DAINTMSK;
 3027              		.loc 1 1182 3 view .LVU980
1182:Drivers/STM32H7xx_HAL_Driver/Src/stm32h7xx_ll_usb.c ****   tmpreg &= USBx_DEVICE->DAINTMSK;
 3028              		.loc 1 1182 11 is_stmt 0 view .LVU981
 3029 0000 D0F81838 		ldr	r3, [r0, #2072]
1182:Drivers/STM32H7xx_HAL_Driver/Src/stm32h7xx_ll_usb.c ****   tmpreg &= USBx_DEVICE->DAINTMSK;
 3030              		.loc 1 1182 13 view .LVU982
 3031 0004 00F50060 		add	r0, r0, #2048
 3032              	.LVL262:
1183:Drivers/STM32H7xx_HAL_Driver/Src/stm32h7xx_ll_usb.c **** 
 3033              		.loc 1 1183 3 is_stmt 1 view .LVU983
1183:Drivers/STM32H7xx_HAL_Driver/Src/stm32h7xx_ll_usb.c **** 
 3034              		.loc 1 1183 24 is_stmt 0 view .LVU984
 3035 0008 C069     		ldr	r0, [r0, #28]
 3036              	.LVL263:
1183:Drivers/STM32H7xx_HAL_Driver/Src/stm32h7xx_ll_usb.c **** 
 3037              		.loc 1 1183 10 view .LVU985
 3038 000a 1840     		ands	r0, r0, r3
 3039              	.LVL264:
ARM GAS  /var/folders/26/q55yrwgs1ql1lprjdslmzz800000gn/T//ccC08pEc.s 			page 94


1185:Drivers/STM32H7xx_HAL_Driver/Src/stm32h7xx_ll_usb.c **** }
 3040              		.loc 1 1185 3 is_stmt 1 view .LVU986
1186:Drivers/STM32H7xx_HAL_Driver/Src/stm32h7xx_ll_usb.c **** 
 3041              		.loc 1 1186 1 is_stmt 0 view .LVU987
 3042 000c 000C     		lsrs	r0, r0, #16
 3043              	.LVL265:
1186:Drivers/STM32H7xx_HAL_Driver/Src/stm32h7xx_ll_usb.c **** 
 3044              		.loc 1 1186 1 view .LVU988
 3045 000e 7047     		bx	lr
 3046              		.cfi_endproc
 3047              	.LFE169:
 3049              		.section	.text.USB_ReadDevAllInEpInterrupt,"ax",%progbits
 3050              		.align	1
 3051              		.global	USB_ReadDevAllInEpInterrupt
 3052              		.syntax unified
 3053              		.thumb
 3054              		.thumb_func
 3056              	USB_ReadDevAllInEpInterrupt:
 3057              	.LVL266:
 3058              	.LFB170:
1194:Drivers/STM32H7xx_HAL_Driver/Src/stm32h7xx_ll_usb.c ****   uint32_t USBx_BASE = (uint32_t)USBx;
 3059              		.loc 1 1194 1 is_stmt 1 view -0
 3060              		.cfi_startproc
 3061              		@ args = 0, pretend = 0, frame = 0
 3062              		@ frame_needed = 0, uses_anonymous_args = 0
 3063              		@ link register save eliminated.
1195:Drivers/STM32H7xx_HAL_Driver/Src/stm32h7xx_ll_usb.c ****   uint32_t tmpreg;
 3064              		.loc 1 1195 3 view .LVU990
1196:Drivers/STM32H7xx_HAL_Driver/Src/stm32h7xx_ll_usb.c **** 
 3065              		.loc 1 1196 3 view .LVU991
1198:Drivers/STM32H7xx_HAL_Driver/Src/stm32h7xx_ll_usb.c ****   tmpreg &= USBx_DEVICE->DAINTMSK;
 3066              		.loc 1 1198 3 view .LVU992
1198:Drivers/STM32H7xx_HAL_Driver/Src/stm32h7xx_ll_usb.c ****   tmpreg &= USBx_DEVICE->DAINTMSK;
 3067              		.loc 1 1198 11 is_stmt 0 view .LVU993
 3068 0000 D0F81838 		ldr	r3, [r0, #2072]
1198:Drivers/STM32H7xx_HAL_Driver/Src/stm32h7xx_ll_usb.c ****   tmpreg &= USBx_DEVICE->DAINTMSK;
 3069              		.loc 1 1198 13 view .LVU994
 3070 0004 00F50060 		add	r0, r0, #2048
 3071              	.LVL267:
1199:Drivers/STM32H7xx_HAL_Driver/Src/stm32h7xx_ll_usb.c **** 
 3072              		.loc 1 1199 3 is_stmt 1 view .LVU995
1199:Drivers/STM32H7xx_HAL_Driver/Src/stm32h7xx_ll_usb.c **** 
 3073              		.loc 1 1199 24 is_stmt 0 view .LVU996
 3074 0008 C069     		ldr	r0, [r0, #28]
 3075              	.LVL268:
1199:Drivers/STM32H7xx_HAL_Driver/Src/stm32h7xx_ll_usb.c **** 
 3076              		.loc 1 1199 10 view .LVU997
 3077 000a 1840     		ands	r0, r0, r3
 3078              	.LVL269:
1201:Drivers/STM32H7xx_HAL_Driver/Src/stm32h7xx_ll_usb.c **** }
 3079              		.loc 1 1201 3 is_stmt 1 view .LVU998
1202:Drivers/STM32H7xx_HAL_Driver/Src/stm32h7xx_ll_usb.c **** 
 3080              		.loc 1 1202 1 is_stmt 0 view .LVU999
 3081 000c 80B2     		uxth	r0, r0
 3082              	.LVL270:
1202:Drivers/STM32H7xx_HAL_Driver/Src/stm32h7xx_ll_usb.c **** 
 3083              		.loc 1 1202 1 view .LVU1000
ARM GAS  /var/folders/26/q55yrwgs1ql1lprjdslmzz800000gn/T//ccC08pEc.s 			page 95


 3084 000e 7047     		bx	lr
 3085              		.cfi_endproc
 3086              	.LFE170:
 3088              		.section	.text.USB_ReadDevOutEPInterrupt,"ax",%progbits
 3089              		.align	1
 3090              		.global	USB_ReadDevOutEPInterrupt
 3091              		.syntax unified
 3092              		.thumb
 3093              		.thumb_func
 3095              	USB_ReadDevOutEPInterrupt:
 3096              	.LVL271:
 3097              	.LFB171:
1212:Drivers/STM32H7xx_HAL_Driver/Src/stm32h7xx_ll_usb.c ****   uint32_t USBx_BASE = (uint32_t)USBx;
 3098              		.loc 1 1212 1 is_stmt 1 view -0
 3099              		.cfi_startproc
 3100              		@ args = 0, pretend = 0, frame = 0
 3101              		@ frame_needed = 0, uses_anonymous_args = 0
 3102              		@ link register save eliminated.
1213:Drivers/STM32H7xx_HAL_Driver/Src/stm32h7xx_ll_usb.c ****   uint32_t tmpreg;
 3103              		.loc 1 1213 3 view .LVU1002
1214:Drivers/STM32H7xx_HAL_Driver/Src/stm32h7xx_ll_usb.c **** 
 3104              		.loc 1 1214 3 view .LVU1003
1216:Drivers/STM32H7xx_HAL_Driver/Src/stm32h7xx_ll_usb.c ****   tmpreg &= USBx_DEVICE->DOEPMSK;
 3105              		.loc 1 1216 3 view .LVU1004
1216:Drivers/STM32H7xx_HAL_Driver/Src/stm32h7xx_ll_usb.c ****   tmpreg &= USBx_DEVICE->DOEPMSK;
 3106              		.loc 1 1216 13 is_stmt 0 view .LVU1005
 3107 0000 00EB4111 		add	r1, r0, r1, lsl #5
 3108              	.LVL272:
1216:Drivers/STM32H7xx_HAL_Driver/Src/stm32h7xx_ll_usb.c ****   tmpreg &= USBx_DEVICE->DOEPMSK;
 3109              		.loc 1 1216 11 view .LVU1006
 3110 0004 D1F8082B 		ldr	r2, [r1, #2824]
 3111              	.LVL273:
1217:Drivers/STM32H7xx_HAL_Driver/Src/stm32h7xx_ll_usb.c **** 
 3112              		.loc 1 1217 3 is_stmt 1 view .LVU1007
1217:Drivers/STM32H7xx_HAL_Driver/Src/stm32h7xx_ll_usb.c **** 
 3113              		.loc 1 1217 13 is_stmt 0 view .LVU1008
 3114 0008 00F50060 		add	r0, r0, #2048
 3115              	.LVL274:
1217:Drivers/STM32H7xx_HAL_Driver/Src/stm32h7xx_ll_usb.c **** 
 3116              		.loc 1 1217 24 view .LVU1009
 3117 000c 4069     		ldr	r0, [r0, #20]
 3118              	.LVL275:
1219:Drivers/STM32H7xx_HAL_Driver/Src/stm32h7xx_ll_usb.c **** }
 3119              		.loc 1 1219 3 is_stmt 1 view .LVU1010
1220:Drivers/STM32H7xx_HAL_Driver/Src/stm32h7xx_ll_usb.c **** 
 3120              		.loc 1 1220 1 is_stmt 0 view .LVU1011
 3121 000e 1040     		ands	r0, r0, r2
 3122              	.LVL276:
1220:Drivers/STM32H7xx_HAL_Driver/Src/stm32h7xx_ll_usb.c **** 
 3123              		.loc 1 1220 1 view .LVU1012
 3124 0010 7047     		bx	lr
 3125              		.cfi_endproc
 3126              	.LFE171:
 3128              		.section	.text.USB_ReadDevInEPInterrupt,"ax",%progbits
 3129              		.align	1
 3130              		.global	USB_ReadDevInEPInterrupt
 3131              		.syntax unified
ARM GAS  /var/folders/26/q55yrwgs1ql1lprjdslmzz800000gn/T//ccC08pEc.s 			page 96


 3132              		.thumb
 3133              		.thumb_func
 3135              	USB_ReadDevInEPInterrupt:
 3136              	.LVL277:
 3137              	.LFB172:
1230:Drivers/STM32H7xx_HAL_Driver/Src/stm32h7xx_ll_usb.c ****   uint32_t USBx_BASE = (uint32_t)USBx;
 3138              		.loc 1 1230 1 is_stmt 1 view -0
 3139              		.cfi_startproc
 3140              		@ args = 0, pretend = 0, frame = 0
 3141              		@ frame_needed = 0, uses_anonymous_args = 0
 3142              		@ link register save eliminated.
1230:Drivers/STM32H7xx_HAL_Driver/Src/stm32h7xx_ll_usb.c ****   uint32_t USBx_BASE = (uint32_t)USBx;
 3143              		.loc 1 1230 1 is_stmt 0 view .LVU1014
 3144 0000 10B4     		push	{r4}
 3145              	.LCFI30:
 3146              		.cfi_def_cfa_offset 4
 3147              		.cfi_offset 4, -4
1231:Drivers/STM32H7xx_HAL_Driver/Src/stm32h7xx_ll_usb.c ****   uint32_t tmpreg, msk, emp;
 3148              		.loc 1 1231 3 is_stmt 1 view .LVU1015
 3149              	.LVL278:
1232:Drivers/STM32H7xx_HAL_Driver/Src/stm32h7xx_ll_usb.c **** 
 3150              		.loc 1 1232 3 view .LVU1016
1234:Drivers/STM32H7xx_HAL_Driver/Src/stm32h7xx_ll_usb.c ****   emp = USBx_DEVICE->DIEPEMPMSK;
 3151              		.loc 1 1234 3 view .LVU1017
1234:Drivers/STM32H7xx_HAL_Driver/Src/stm32h7xx_ll_usb.c ****   emp = USBx_DEVICE->DIEPEMPMSK;
 3152              		.loc 1 1234 7 is_stmt 0 view .LVU1018
 3153 0002 D0F81048 		ldr	r4, [r0, #2064]
 3154              	.LVL279:
1235:Drivers/STM32H7xx_HAL_Driver/Src/stm32h7xx_ll_usb.c ****   msk |= ((emp >> (epnum & EP_ADDR_MSK)) & 0x1U) << 7;
 3155              		.loc 1 1235 3 is_stmt 1 view .LVU1019
1235:Drivers/STM32H7xx_HAL_Driver/Src/stm32h7xx_ll_usb.c ****   msk |= ((emp >> (epnum & EP_ADDR_MSK)) & 0x1U) << 7;
 3156              		.loc 1 1235 7 is_stmt 0 view .LVU1020
 3157 0006 D0F83438 		ldr	r3, [r0, #2100]
 3158              	.LVL280:
1236:Drivers/STM32H7xx_HAL_Driver/Src/stm32h7xx_ll_usb.c ****   tmpreg = USBx_INEP((uint32_t)epnum)->DIEPINT & msk;
 3159              		.loc 1 1236 3 is_stmt 1 view .LVU1021
1236:Drivers/STM32H7xx_HAL_Driver/Src/stm32h7xx_ll_usb.c ****   tmpreg = USBx_INEP((uint32_t)epnum)->DIEPINT & msk;
 3160              		.loc 1 1236 26 is_stmt 0 view .LVU1022
 3161 000a 01F00F02 		and	r2, r1, #15
1236:Drivers/STM32H7xx_HAL_Driver/Src/stm32h7xx_ll_usb.c ****   tmpreg = USBx_INEP((uint32_t)epnum)->DIEPINT & msk;
 3162              		.loc 1 1236 16 view .LVU1023
 3163 000e D340     		lsrs	r3, r3, r2
 3164              	.LVL281:
1236:Drivers/STM32H7xx_HAL_Driver/Src/stm32h7xx_ll_usb.c ****   tmpreg = USBx_INEP((uint32_t)epnum)->DIEPINT & msk;
 3165              		.loc 1 1236 50 view .LVU1024
 3166 0010 DB01     		lsls	r3, r3, #7
 3167 0012 DBB2     		uxtb	r3, r3
1236:Drivers/STM32H7xx_HAL_Driver/Src/stm32h7xx_ll_usb.c ****   tmpreg = USBx_INEP((uint32_t)epnum)->DIEPINT & msk;
 3168              		.loc 1 1236 7 view .LVU1025
 3169 0014 2343     		orrs	r3, r3, r4
 3170              	.LVL282:
1237:Drivers/STM32H7xx_HAL_Driver/Src/stm32h7xx_ll_usb.c **** 
 3171              		.loc 1 1237 3 is_stmt 1 view .LVU1026
1237:Drivers/STM32H7xx_HAL_Driver/Src/stm32h7xx_ll_usb.c **** 
 3172              		.loc 1 1237 12 is_stmt 0 view .LVU1027
 3173 0016 00EB4110 		add	r0, r0, r1, lsl #5
 3174              	.LVL283:
ARM GAS  /var/folders/26/q55yrwgs1ql1lprjdslmzz800000gn/T//ccC08pEc.s 			page 97


1237:Drivers/STM32H7xx_HAL_Driver/Src/stm32h7xx_ll_usb.c **** 
 3175              		.loc 1 1237 12 view .LVU1028
 3176 001a 00F51060 		add	r0, r0, #2304
1237:Drivers/STM32H7xx_HAL_Driver/Src/stm32h7xx_ll_usb.c **** 
 3177              		.loc 1 1237 38 view .LVU1029
 3178 001e 8068     		ldr	r0, [r0, #8]
 3179              	.LVL284:
1239:Drivers/STM32H7xx_HAL_Driver/Src/stm32h7xx_ll_usb.c **** }
 3180              		.loc 1 1239 3 is_stmt 1 view .LVU1030
1240:Drivers/STM32H7xx_HAL_Driver/Src/stm32h7xx_ll_usb.c **** 
 3181              		.loc 1 1240 1 is_stmt 0 view .LVU1031
 3182 0020 1840     		ands	r0, r0, r3
 3183              	.LVL285:
1240:Drivers/STM32H7xx_HAL_Driver/Src/stm32h7xx_ll_usb.c **** 
 3184              		.loc 1 1240 1 view .LVU1032
 3185 0022 5DF8044B 		ldr	r4, [sp], #4
 3186              	.LCFI31:
 3187              		.cfi_restore 4
 3188              		.cfi_def_cfa_offset 0
 3189 0026 7047     		bx	lr
 3190              		.cfi_endproc
 3191              	.LFE172:
 3193              		.section	.text.USB_ClearInterrupts,"ax",%progbits
 3194              		.align	1
 3195              		.global	USB_ClearInterrupts
 3196              		.syntax unified
 3197              		.thumb
 3198              		.thumb_func
 3200              	USB_ClearInterrupts:
 3201              	.LVL286:
 3202              	.LFB173:
1249:Drivers/STM32H7xx_HAL_Driver/Src/stm32h7xx_ll_usb.c ****   USBx->GINTSTS |= interrupt;
 3203              		.loc 1 1249 1 is_stmt 1 view -0
 3204              		.cfi_startproc
 3205              		@ args = 0, pretend = 0, frame = 0
 3206              		@ frame_needed = 0, uses_anonymous_args = 0
 3207              		@ link register save eliminated.
1250:Drivers/STM32H7xx_HAL_Driver/Src/stm32h7xx_ll_usb.c **** }
 3208              		.loc 1 1250 3 view .LVU1034
1250:Drivers/STM32H7xx_HAL_Driver/Src/stm32h7xx_ll_usb.c **** }
 3209              		.loc 1 1250 17 is_stmt 0 view .LVU1035
 3210 0000 4369     		ldr	r3, [r0, #20]
 3211 0002 0B43     		orrs	r3, r3, r1
 3212 0004 4361     		str	r3, [r0, #20]
1251:Drivers/STM32H7xx_HAL_Driver/Src/stm32h7xx_ll_usb.c **** 
 3213              		.loc 1 1251 1 view .LVU1036
 3214 0006 7047     		bx	lr
 3215              		.cfi_endproc
 3216              	.LFE173:
 3218              		.section	.text.USB_GetMode,"ax",%progbits
 3219              		.align	1
 3220              		.global	USB_GetMode
 3221              		.syntax unified
 3222              		.thumb
 3223              		.thumb_func
 3225              	USB_GetMode:
 3226              	.LVL287:
ARM GAS  /var/folders/26/q55yrwgs1ql1lprjdslmzz800000gn/T//ccC08pEc.s 			page 98


 3227              	.LFB174:
1262:Drivers/STM32H7xx_HAL_Driver/Src/stm32h7xx_ll_usb.c ****   return ((USBx->GINTSTS) & 0x1U);
 3228              		.loc 1 1262 1 is_stmt 1 view -0
 3229              		.cfi_startproc
 3230              		@ args = 0, pretend = 0, frame = 0
 3231              		@ frame_needed = 0, uses_anonymous_args = 0
 3232              		@ link register save eliminated.
1263:Drivers/STM32H7xx_HAL_Driver/Src/stm32h7xx_ll_usb.c **** }
 3233              		.loc 1 1263 3 view .LVU1038
1263:Drivers/STM32H7xx_HAL_Driver/Src/stm32h7xx_ll_usb.c **** }
 3234              		.loc 1 1263 16 is_stmt 0 view .LVU1039
 3235 0000 4069     		ldr	r0, [r0, #20]
 3236              	.LVL288:
1264:Drivers/STM32H7xx_HAL_Driver/Src/stm32h7xx_ll_usb.c **** 
 3237              		.loc 1 1264 1 view .LVU1040
 3238 0002 00F00100 		and	r0, r0, #1
 3239 0006 7047     		bx	lr
 3240              		.cfi_endproc
 3241              	.LFE174:
 3243              		.section	.text.USB_ActivateSetup,"ax",%progbits
 3244              		.align	1
 3245              		.global	USB_ActivateSetup
 3246              		.syntax unified
 3247              		.thumb
 3248              		.thumb_func
 3250              	USB_ActivateSetup:
 3251              	.LVL289:
 3252              	.LFB175:
1272:Drivers/STM32H7xx_HAL_Driver/Src/stm32h7xx_ll_usb.c ****   uint32_t USBx_BASE = (uint32_t)USBx;
 3253              		.loc 1 1272 1 is_stmt 1 view -0
 3254              		.cfi_startproc
 3255              		@ args = 0, pretend = 0, frame = 0
 3256              		@ frame_needed = 0, uses_anonymous_args = 0
 3257              		@ link register save eliminated.
1273:Drivers/STM32H7xx_HAL_Driver/Src/stm32h7xx_ll_usb.c **** 
 3258              		.loc 1 1273 3 view .LVU1042
1276:Drivers/STM32H7xx_HAL_Driver/Src/stm32h7xx_ll_usb.c **** 
 3259              		.loc 1 1276 3 view .LVU1043
1276:Drivers/STM32H7xx_HAL_Driver/Src/stm32h7xx_ll_usb.c **** 
 3260              		.loc 1 1276 26 is_stmt 0 view .LVU1044
 3261 0000 D0F80029 		ldr	r2, [r0, #2304]
 3262 0004 054B     		ldr	r3, .L211
 3263 0006 1340     		ands	r3, r3, r2
 3264 0008 C0F80039 		str	r3, [r0, #2304]
1278:Drivers/STM32H7xx_HAL_Driver/Src/stm32h7xx_ll_usb.c **** 
 3265              		.loc 1 1278 3 is_stmt 1 view .LVU1045
1278:Drivers/STM32H7xx_HAL_Driver/Src/stm32h7xx_ll_usb.c **** 
 3266              		.loc 1 1278 21 is_stmt 0 view .LVU1046
 3267 000c D0F80438 		ldr	r3, [r0, #2052]
 3268 0010 43F48073 		orr	r3, r3, #256
 3269 0014 C0F80438 		str	r3, [r0, #2052]
1280:Drivers/STM32H7xx_HAL_Driver/Src/stm32h7xx_ll_usb.c **** }
 3270              		.loc 1 1280 3 is_stmt 1 view .LVU1047
1281:Drivers/STM32H7xx_HAL_Driver/Src/stm32h7xx_ll_usb.c **** 
 3271              		.loc 1 1281 1 is_stmt 0 view .LVU1048
 3272 0018 0020     		movs	r0, #0
 3273              	.LVL290:
ARM GAS  /var/folders/26/q55yrwgs1ql1lprjdslmzz800000gn/T//ccC08pEc.s 			page 99


1281:Drivers/STM32H7xx_HAL_Driver/Src/stm32h7xx_ll_usb.c **** 
 3274              		.loc 1 1281 1 view .LVU1049
 3275 001a 7047     		bx	lr
 3276              	.L212:
 3277              		.align	2
 3278              	.L211:
 3279 001c 00F8FFFF 		.word	-2048
 3280              		.cfi_endproc
 3281              	.LFE175:
 3283              		.section	.text.USB_EP0_OutStart,"ax",%progbits
 3284              		.align	1
 3285              		.global	USB_EP0_OutStart
 3286              		.syntax unified
 3287              		.thumb
 3288              		.thumb_func
 3290              	USB_EP0_OutStart:
 3291              	.LVL291:
 3292              	.LFB176:
1294:Drivers/STM32H7xx_HAL_Driver/Src/stm32h7xx_ll_usb.c ****   uint32_t USBx_BASE = (uint32_t)USBx;
 3293              		.loc 1 1294 1 is_stmt 1 view -0
 3294              		.cfi_startproc
 3295              		@ args = 0, pretend = 0, frame = 0
 3296              		@ frame_needed = 0, uses_anonymous_args = 0
 3297              		@ link register save eliminated.
1294:Drivers/STM32H7xx_HAL_Driver/Src/stm32h7xx_ll_usb.c ****   uint32_t USBx_BASE = (uint32_t)USBx;
 3298              		.loc 1 1294 1 is_stmt 0 view .LVU1051
 3299 0000 10B4     		push	{r4}
 3300              	.LCFI32:
 3301              		.cfi_def_cfa_offset 4
 3302              		.cfi_offset 4, -4
1295:Drivers/STM32H7xx_HAL_Driver/Src/stm32h7xx_ll_usb.c ****   uint32_t gSNPSiD = *(__IO uint32_t *)(&USBx->CID + 0x1U);
 3303              		.loc 1 1295 3 is_stmt 1 view .LVU1052
 3304              	.LVL292:
1296:Drivers/STM32H7xx_HAL_Driver/Src/stm32h7xx_ll_usb.c **** 
 3305              		.loc 1 1296 3 view .LVU1053
1296:Drivers/STM32H7xx_HAL_Driver/Src/stm32h7xx_ll_usb.c **** 
 3306              		.loc 1 1296 12 is_stmt 0 view .LVU1054
 3307 0002 046C     		ldr	r4, [r0, #64]
 3308              	.LVL293:
1298:Drivers/STM32H7xx_HAL_Driver/Src/stm32h7xx_ll_usb.c ****   {
 3309              		.loc 1 1298 3 is_stmt 1 view .LVU1055
1298:Drivers/STM32H7xx_HAL_Driver/Src/stm32h7xx_ll_usb.c ****   {
 3310              		.loc 1 1298 6 is_stmt 0 view .LVU1056
 3311 0004 154B     		ldr	r3, .L218
 3312 0006 9C42     		cmp	r4, r3
 3313 0008 03D9     		bls	.L214
1300:Drivers/STM32H7xx_HAL_Driver/Src/stm32h7xx_ll_usb.c ****     {
 3314              		.loc 1 1300 5 is_stmt 1 view .LVU1057
1300:Drivers/STM32H7xx_HAL_Driver/Src/stm32h7xx_ll_usb.c ****     {
 3315              		.loc 1 1300 24 is_stmt 0 view .LVU1058
 3316 000a D0F8003B 		ldr	r3, [r0, #2816]
1300:Drivers/STM32H7xx_HAL_Driver/Src/stm32h7xx_ll_usb.c ****     {
 3317              		.loc 1 1300 8 view .LVU1059
 3318 000e 002B     		cmp	r3, #0
 3319 0010 16DB     		blt	.L215
 3320              	.L214:
1306:Drivers/STM32H7xx_HAL_Driver/Src/stm32h7xx_ll_usb.c ****   USBx_OUTEP(0U)->DOEPTSIZ |= (USB_OTG_DOEPTSIZ_PKTCNT & (1U << 19));
ARM GAS  /var/folders/26/q55yrwgs1ql1lprjdslmzz800000gn/T//ccC08pEc.s 			page 100


 3321              		.loc 1 1306 3 is_stmt 1 view .LVU1060
1306:Drivers/STM32H7xx_HAL_Driver/Src/stm32h7xx_ll_usb.c ****   USBx_OUTEP(0U)->DOEPTSIZ |= (USB_OTG_DOEPTSIZ_PKTCNT & (1U << 19));
 3322              		.loc 1 1306 28 is_stmt 0 view .LVU1061
 3323 0012 0024     		movs	r4, #0
 3324              	.LVL294:
1306:Drivers/STM32H7xx_HAL_Driver/Src/stm32h7xx_ll_usb.c ****   USBx_OUTEP(0U)->DOEPTSIZ |= (USB_OTG_DOEPTSIZ_PKTCNT & (1U << 19));
 3325              		.loc 1 1306 28 view .LVU1062
 3326 0014 C0F8104B 		str	r4, [r0, #2832]
1307:Drivers/STM32H7xx_HAL_Driver/Src/stm32h7xx_ll_usb.c ****   USBx_OUTEP(0U)->DOEPTSIZ |= (3U * 8U);
 3327              		.loc 1 1307 3 is_stmt 1 view .LVU1063
1307:Drivers/STM32H7xx_HAL_Driver/Src/stm32h7xx_ll_usb.c ****   USBx_OUTEP(0U)->DOEPTSIZ |= (3U * 8U);
 3328              		.loc 1 1307 28 is_stmt 0 view .LVU1064
 3329 0018 D0F8104B 		ldr	r4, [r0, #2832]
 3330 001c 44F40024 		orr	r4, r4, #524288
 3331 0020 C0F8104B 		str	r4, [r0, #2832]
1308:Drivers/STM32H7xx_HAL_Driver/Src/stm32h7xx_ll_usb.c ****   USBx_OUTEP(0U)->DOEPTSIZ |=  USB_OTG_DOEPTSIZ_STUPCNT;
 3332              		.loc 1 1308 3 is_stmt 1 view .LVU1065
1308:Drivers/STM32H7xx_HAL_Driver/Src/stm32h7xx_ll_usb.c ****   USBx_OUTEP(0U)->DOEPTSIZ |=  USB_OTG_DOEPTSIZ_STUPCNT;
 3333              		.loc 1 1308 28 is_stmt 0 view .LVU1066
 3334 0024 D0F8104B 		ldr	r4, [r0, #2832]
 3335 0028 44F01804 		orr	r4, r4, #24
 3336 002c C0F8104B 		str	r4, [r0, #2832]
1309:Drivers/STM32H7xx_HAL_Driver/Src/stm32h7xx_ll_usb.c **** 
 3337              		.loc 1 1309 3 is_stmt 1 view .LVU1067
1309:Drivers/STM32H7xx_HAL_Driver/Src/stm32h7xx_ll_usb.c **** 
 3338              		.loc 1 1309 28 is_stmt 0 view .LVU1068
 3339 0030 D0F8104B 		ldr	r4, [r0, #2832]
 3340 0034 44F0C044 		orr	r4, r4, #1610612736
 3341 0038 C0F8104B 		str	r4, [r0, #2832]
1311:Drivers/STM32H7xx_HAL_Driver/Src/stm32h7xx_ll_usb.c ****   {
 3342              		.loc 1 1311 3 is_stmt 1 view .LVU1069
1311:Drivers/STM32H7xx_HAL_Driver/Src/stm32h7xx_ll_usb.c ****   {
 3343              		.loc 1 1311 6 is_stmt 0 view .LVU1070
 3344 003c 0129     		cmp	r1, #1
 3345 003e 03D0     		beq	.L217
 3346              	.L215:
1319:Drivers/STM32H7xx_HAL_Driver/Src/stm32h7xx_ll_usb.c **** 
 3347              		.loc 1 1319 1 view .LVU1071
 3348 0040 0020     		movs	r0, #0
 3349              	.LVL295:
1319:Drivers/STM32H7xx_HAL_Driver/Src/stm32h7xx_ll_usb.c **** 
 3350              		.loc 1 1319 1 view .LVU1072
 3351 0042 5DF8044B 		ldr	r4, [sp], #4
 3352              	.LCFI33:
 3353              		.cfi_remember_state
 3354              		.cfi_restore 4
 3355              		.cfi_def_cfa_offset 0
 3356 0046 7047     		bx	lr
 3357              	.LVL296:
 3358              	.L217:
 3359              	.LCFI34:
 3360              		.cfi_restore_state
1313:Drivers/STM32H7xx_HAL_Driver/Src/stm32h7xx_ll_usb.c ****     /* EP enable */
 3361              		.loc 1 1313 5 is_stmt 1 view .LVU1073
1313:Drivers/STM32H7xx_HAL_Driver/Src/stm32h7xx_ll_usb.c ****     /* EP enable */
 3362              		.loc 1 1313 29 is_stmt 0 view .LVU1074
 3363 0048 C0F8142B 		str	r2, [r0, #2836]
ARM GAS  /var/folders/26/q55yrwgs1ql1lprjdslmzz800000gn/T//ccC08pEc.s 			page 101


1315:Drivers/STM32H7xx_HAL_Driver/Src/stm32h7xx_ll_usb.c ****   }
 3364              		.loc 1 1315 5 is_stmt 1 view .LVU1075
1315:Drivers/STM32H7xx_HAL_Driver/Src/stm32h7xx_ll_usb.c ****   }
 3365              		.loc 1 1315 29 is_stmt 0 view .LVU1076
 3366 004c D0F8003B 		ldr	r3, [r0, #2816]
 3367 0050 43F08023 		orr	r3, r3, #-2147450880
 3368 0054 C0F8003B 		str	r3, [r0, #2816]
 3369 0058 F2E7     		b	.L215
 3370              	.L219:
 3371 005a 00BF     		.align	2
 3372              	.L218:
 3373 005c 0A30544F 		.word	1330917386
 3374              		.cfi_endproc
 3375              	.LFE176:
 3377              		.section	.text.USB_InitFSLSPClkSel,"ax",%progbits
 3378              		.align	1
 3379              		.global	USB_InitFSLSPClkSel
 3380              		.syntax unified
 3381              		.thumb
 3382              		.thumb_func
 3384              	USB_InitFSLSPClkSel:
 3385              	.LVL297:
 3386              	.LFB179:
1353:Drivers/STM32H7xx_HAL_Driver/Src/stm32h7xx_ll_usb.c **** 
1354:Drivers/STM32H7xx_HAL_Driver/Src/stm32h7xx_ll_usb.c **** /**
1355:Drivers/STM32H7xx_HAL_Driver/Src/stm32h7xx_ll_usb.c ****   * @brief  USB_HostInit : Initializes the USB OTG controller registers
1356:Drivers/STM32H7xx_HAL_Driver/Src/stm32h7xx_ll_usb.c ****   *         for Host mode
1357:Drivers/STM32H7xx_HAL_Driver/Src/stm32h7xx_ll_usb.c ****   * @param  USBx  Selected device
1358:Drivers/STM32H7xx_HAL_Driver/Src/stm32h7xx_ll_usb.c ****   * @param  cfg   pointer to a USB_OTG_CfgTypeDef structure that contains
1359:Drivers/STM32H7xx_HAL_Driver/Src/stm32h7xx_ll_usb.c ****   *         the configuration information for the specified USBx peripheral.
1360:Drivers/STM32H7xx_HAL_Driver/Src/stm32h7xx_ll_usb.c ****   * @retval HAL status
1361:Drivers/STM32H7xx_HAL_Driver/Src/stm32h7xx_ll_usb.c ****   */
1362:Drivers/STM32H7xx_HAL_Driver/Src/stm32h7xx_ll_usb.c **** HAL_StatusTypeDef USB_HostInit(USB_OTG_GlobalTypeDef *USBx, USB_OTG_CfgTypeDef cfg)
1363:Drivers/STM32H7xx_HAL_Driver/Src/stm32h7xx_ll_usb.c **** {
1364:Drivers/STM32H7xx_HAL_Driver/Src/stm32h7xx_ll_usb.c ****   uint32_t USBx_BASE = (uint32_t)USBx;
1365:Drivers/STM32H7xx_HAL_Driver/Src/stm32h7xx_ll_usb.c ****   uint32_t i;
1366:Drivers/STM32H7xx_HAL_Driver/Src/stm32h7xx_ll_usb.c **** 
1367:Drivers/STM32H7xx_HAL_Driver/Src/stm32h7xx_ll_usb.c ****   /* Restart the Phy Clock */
1368:Drivers/STM32H7xx_HAL_Driver/Src/stm32h7xx_ll_usb.c ****   USBx_PCGCCTL = 0U;
1369:Drivers/STM32H7xx_HAL_Driver/Src/stm32h7xx_ll_usb.c **** 
1370:Drivers/STM32H7xx_HAL_Driver/Src/stm32h7xx_ll_usb.c ****   /* Disable VBUS sensing */
1371:Drivers/STM32H7xx_HAL_Driver/Src/stm32h7xx_ll_usb.c ****   USBx->GCCFG &= ~(USB_OTG_GCCFG_VBDEN);
1372:Drivers/STM32H7xx_HAL_Driver/Src/stm32h7xx_ll_usb.c **** 
1373:Drivers/STM32H7xx_HAL_Driver/Src/stm32h7xx_ll_usb.c ****   /* Disable Battery chargin detector */
1374:Drivers/STM32H7xx_HAL_Driver/Src/stm32h7xx_ll_usb.c ****   USBx->GCCFG &= ~(USB_OTG_GCCFG_BCDEN);
1375:Drivers/STM32H7xx_HAL_Driver/Src/stm32h7xx_ll_usb.c **** 
1376:Drivers/STM32H7xx_HAL_Driver/Src/stm32h7xx_ll_usb.c **** 
1377:Drivers/STM32H7xx_HAL_Driver/Src/stm32h7xx_ll_usb.c ****   if ((USBx->CID & (0x1U << 8)) != 0U)
1378:Drivers/STM32H7xx_HAL_Driver/Src/stm32h7xx_ll_usb.c ****   {
1379:Drivers/STM32H7xx_HAL_Driver/Src/stm32h7xx_ll_usb.c ****     if (cfg.speed == USBH_FSLS_SPEED)
1380:Drivers/STM32H7xx_HAL_Driver/Src/stm32h7xx_ll_usb.c ****     {
1381:Drivers/STM32H7xx_HAL_Driver/Src/stm32h7xx_ll_usb.c ****       /* Force Device Enumeration to FS/LS mode only */
1382:Drivers/STM32H7xx_HAL_Driver/Src/stm32h7xx_ll_usb.c ****       USBx_HOST->HCFG |= USB_OTG_HCFG_FSLSS;
1383:Drivers/STM32H7xx_HAL_Driver/Src/stm32h7xx_ll_usb.c ****     }
1384:Drivers/STM32H7xx_HAL_Driver/Src/stm32h7xx_ll_usb.c ****     else
1385:Drivers/STM32H7xx_HAL_Driver/Src/stm32h7xx_ll_usb.c ****     {
1386:Drivers/STM32H7xx_HAL_Driver/Src/stm32h7xx_ll_usb.c ****       /* Set default Max speed support */
ARM GAS  /var/folders/26/q55yrwgs1ql1lprjdslmzz800000gn/T//ccC08pEc.s 			page 102


1387:Drivers/STM32H7xx_HAL_Driver/Src/stm32h7xx_ll_usb.c ****       USBx_HOST->HCFG &= ~(USB_OTG_HCFG_FSLSS);
1388:Drivers/STM32H7xx_HAL_Driver/Src/stm32h7xx_ll_usb.c ****     }
1389:Drivers/STM32H7xx_HAL_Driver/Src/stm32h7xx_ll_usb.c ****   }
1390:Drivers/STM32H7xx_HAL_Driver/Src/stm32h7xx_ll_usb.c ****   else
1391:Drivers/STM32H7xx_HAL_Driver/Src/stm32h7xx_ll_usb.c ****   {
1392:Drivers/STM32H7xx_HAL_Driver/Src/stm32h7xx_ll_usb.c ****     /* Set default Max speed support */
1393:Drivers/STM32H7xx_HAL_Driver/Src/stm32h7xx_ll_usb.c ****     USBx_HOST->HCFG &= ~(USB_OTG_HCFG_FSLSS);
1394:Drivers/STM32H7xx_HAL_Driver/Src/stm32h7xx_ll_usb.c ****   }
1395:Drivers/STM32H7xx_HAL_Driver/Src/stm32h7xx_ll_usb.c **** 
1396:Drivers/STM32H7xx_HAL_Driver/Src/stm32h7xx_ll_usb.c ****   /* Make sure the FIFOs are flushed. */
1397:Drivers/STM32H7xx_HAL_Driver/Src/stm32h7xx_ll_usb.c ****   (void)USB_FlushTxFifo(USBx, 0x10U); /* all Tx FIFOs */
1398:Drivers/STM32H7xx_HAL_Driver/Src/stm32h7xx_ll_usb.c ****   (void)USB_FlushRxFifo(USBx);
1399:Drivers/STM32H7xx_HAL_Driver/Src/stm32h7xx_ll_usb.c **** 
1400:Drivers/STM32H7xx_HAL_Driver/Src/stm32h7xx_ll_usb.c ****   /* Clear all pending HC Interrupts */
1401:Drivers/STM32H7xx_HAL_Driver/Src/stm32h7xx_ll_usb.c ****   for (i = 0U; i < cfg.Host_channels; i++)
1402:Drivers/STM32H7xx_HAL_Driver/Src/stm32h7xx_ll_usb.c ****   {
1403:Drivers/STM32H7xx_HAL_Driver/Src/stm32h7xx_ll_usb.c ****     USBx_HC(i)->HCINT = 0xFFFFFFFFU;
1404:Drivers/STM32H7xx_HAL_Driver/Src/stm32h7xx_ll_usb.c ****     USBx_HC(i)->HCINTMSK = 0U;
1405:Drivers/STM32H7xx_HAL_Driver/Src/stm32h7xx_ll_usb.c ****   }
1406:Drivers/STM32H7xx_HAL_Driver/Src/stm32h7xx_ll_usb.c **** 
1407:Drivers/STM32H7xx_HAL_Driver/Src/stm32h7xx_ll_usb.c ****   /* Enable VBUS driving */
1408:Drivers/STM32H7xx_HAL_Driver/Src/stm32h7xx_ll_usb.c ****   (void)USB_DriveVbus(USBx, 1U);
1409:Drivers/STM32H7xx_HAL_Driver/Src/stm32h7xx_ll_usb.c **** 
1410:Drivers/STM32H7xx_HAL_Driver/Src/stm32h7xx_ll_usb.c ****   HAL_Delay(200U);
1411:Drivers/STM32H7xx_HAL_Driver/Src/stm32h7xx_ll_usb.c **** 
1412:Drivers/STM32H7xx_HAL_Driver/Src/stm32h7xx_ll_usb.c ****   /* Disable all interrupts. */
1413:Drivers/STM32H7xx_HAL_Driver/Src/stm32h7xx_ll_usb.c ****   USBx->GINTMSK = 0U;
1414:Drivers/STM32H7xx_HAL_Driver/Src/stm32h7xx_ll_usb.c **** 
1415:Drivers/STM32H7xx_HAL_Driver/Src/stm32h7xx_ll_usb.c ****   /* Clear any pending interrupts */
1416:Drivers/STM32H7xx_HAL_Driver/Src/stm32h7xx_ll_usb.c ****   USBx->GINTSTS = 0xFFFFFFFFU;
1417:Drivers/STM32H7xx_HAL_Driver/Src/stm32h7xx_ll_usb.c **** 
1418:Drivers/STM32H7xx_HAL_Driver/Src/stm32h7xx_ll_usb.c ****   if ((USBx->CID & (0x1U << 8)) != 0U)
1419:Drivers/STM32H7xx_HAL_Driver/Src/stm32h7xx_ll_usb.c ****   {
1420:Drivers/STM32H7xx_HAL_Driver/Src/stm32h7xx_ll_usb.c ****     /* set Rx FIFO size */
1421:Drivers/STM32H7xx_HAL_Driver/Src/stm32h7xx_ll_usb.c ****     USBx->GRXFSIZ  = 0x200U;
1422:Drivers/STM32H7xx_HAL_Driver/Src/stm32h7xx_ll_usb.c ****     USBx->DIEPTXF0_HNPTXFSIZ = (uint32_t)(((0x100U << 16) & USB_OTG_NPTXFD) | 0x200U);
1423:Drivers/STM32H7xx_HAL_Driver/Src/stm32h7xx_ll_usb.c ****     USBx->HPTXFSIZ = (uint32_t)(((0xE0U << 16) & USB_OTG_HPTXFSIZ_PTXFD) | 0x300U);
1424:Drivers/STM32H7xx_HAL_Driver/Src/stm32h7xx_ll_usb.c ****   }
1425:Drivers/STM32H7xx_HAL_Driver/Src/stm32h7xx_ll_usb.c ****   else
1426:Drivers/STM32H7xx_HAL_Driver/Src/stm32h7xx_ll_usb.c ****   {
1427:Drivers/STM32H7xx_HAL_Driver/Src/stm32h7xx_ll_usb.c ****     /* set Rx FIFO size */
1428:Drivers/STM32H7xx_HAL_Driver/Src/stm32h7xx_ll_usb.c ****     USBx->GRXFSIZ  = 0x80U;
1429:Drivers/STM32H7xx_HAL_Driver/Src/stm32h7xx_ll_usb.c ****     USBx->DIEPTXF0_HNPTXFSIZ = (uint32_t)(((0x60U << 16) & USB_OTG_NPTXFD) | 0x80U);
1430:Drivers/STM32H7xx_HAL_Driver/Src/stm32h7xx_ll_usb.c ****     USBx->HPTXFSIZ = (uint32_t)(((0x40U << 16)& USB_OTG_HPTXFSIZ_PTXFD) | 0xE0U);
1431:Drivers/STM32H7xx_HAL_Driver/Src/stm32h7xx_ll_usb.c ****   }
1432:Drivers/STM32H7xx_HAL_Driver/Src/stm32h7xx_ll_usb.c **** 
1433:Drivers/STM32H7xx_HAL_Driver/Src/stm32h7xx_ll_usb.c ****   /* Enable the common interrupts */
1434:Drivers/STM32H7xx_HAL_Driver/Src/stm32h7xx_ll_usb.c ****   if (cfg.dma_enable == 0U)
1435:Drivers/STM32H7xx_HAL_Driver/Src/stm32h7xx_ll_usb.c ****   {
1436:Drivers/STM32H7xx_HAL_Driver/Src/stm32h7xx_ll_usb.c ****     USBx->GINTMSK |= USB_OTG_GINTMSK_RXFLVLM;
1437:Drivers/STM32H7xx_HAL_Driver/Src/stm32h7xx_ll_usb.c ****   }
1438:Drivers/STM32H7xx_HAL_Driver/Src/stm32h7xx_ll_usb.c **** 
1439:Drivers/STM32H7xx_HAL_Driver/Src/stm32h7xx_ll_usb.c ****   /* Enable interrupts matching to the Host mode ONLY */
1440:Drivers/STM32H7xx_HAL_Driver/Src/stm32h7xx_ll_usb.c ****   USBx->GINTMSK |= (USB_OTG_GINTMSK_PRTIM            | USB_OTG_GINTMSK_HCIM | \
1441:Drivers/STM32H7xx_HAL_Driver/Src/stm32h7xx_ll_usb.c ****                     USB_OTG_GINTMSK_SOFM             | USB_OTG_GINTSTS_DISCINT | \
1442:Drivers/STM32H7xx_HAL_Driver/Src/stm32h7xx_ll_usb.c ****                     USB_OTG_GINTMSK_PXFRM_IISOOXFRM  | USB_OTG_GINTMSK_WUIM);
1443:Drivers/STM32H7xx_HAL_Driver/Src/stm32h7xx_ll_usb.c **** 
ARM GAS  /var/folders/26/q55yrwgs1ql1lprjdslmzz800000gn/T//ccC08pEc.s 			page 103


1444:Drivers/STM32H7xx_HAL_Driver/Src/stm32h7xx_ll_usb.c ****   return HAL_OK;
1445:Drivers/STM32H7xx_HAL_Driver/Src/stm32h7xx_ll_usb.c **** }
1446:Drivers/STM32H7xx_HAL_Driver/Src/stm32h7xx_ll_usb.c **** 
1447:Drivers/STM32H7xx_HAL_Driver/Src/stm32h7xx_ll_usb.c **** /**
1448:Drivers/STM32H7xx_HAL_Driver/Src/stm32h7xx_ll_usb.c ****   * @brief  USB_InitFSLSPClkSel : Initializes the FSLSPClkSel field of the
1449:Drivers/STM32H7xx_HAL_Driver/Src/stm32h7xx_ll_usb.c ****   *         HCFG register on the PHY type and set the right frame interval
1450:Drivers/STM32H7xx_HAL_Driver/Src/stm32h7xx_ll_usb.c ****   * @param  USBx  Selected device
1451:Drivers/STM32H7xx_HAL_Driver/Src/stm32h7xx_ll_usb.c ****   * @param  freq  clock frequency
1452:Drivers/STM32H7xx_HAL_Driver/Src/stm32h7xx_ll_usb.c ****   *          This parameter can be one of these values:
1453:Drivers/STM32H7xx_HAL_Driver/Src/stm32h7xx_ll_usb.c ****   *           HCFG_48_MHZ : Full Speed 48 MHz Clock
1454:Drivers/STM32H7xx_HAL_Driver/Src/stm32h7xx_ll_usb.c ****   *           HCFG_6_MHZ : Low Speed 6 MHz Clock
1455:Drivers/STM32H7xx_HAL_Driver/Src/stm32h7xx_ll_usb.c ****   * @retval HAL status
1456:Drivers/STM32H7xx_HAL_Driver/Src/stm32h7xx_ll_usb.c ****   */
1457:Drivers/STM32H7xx_HAL_Driver/Src/stm32h7xx_ll_usb.c **** HAL_StatusTypeDef USB_InitFSLSPClkSel(USB_OTG_GlobalTypeDef *USBx, uint8_t freq)
1458:Drivers/STM32H7xx_HAL_Driver/Src/stm32h7xx_ll_usb.c **** {
 3387              		.loc 1 1458 1 is_stmt 1 view -0
 3388              		.cfi_startproc
 3389              		@ args = 0, pretend = 0, frame = 0
 3390              		@ frame_needed = 0, uses_anonymous_args = 0
 3391              		@ link register save eliminated.
1459:Drivers/STM32H7xx_HAL_Driver/Src/stm32h7xx_ll_usb.c ****   uint32_t USBx_BASE = (uint32_t)USBx;
 3392              		.loc 1 1459 3 view .LVU1078
1460:Drivers/STM32H7xx_HAL_Driver/Src/stm32h7xx_ll_usb.c **** 
1461:Drivers/STM32H7xx_HAL_Driver/Src/stm32h7xx_ll_usb.c ****   USBx_HOST->HCFG &= ~(USB_OTG_HCFG_FSLSPCS);
 3393              		.loc 1 1461 3 view .LVU1079
 3394              		.loc 1 1461 19 is_stmt 0 view .LVU1080
 3395 0000 00F5806C 		add	ip, r0, #1024
 3396 0004 D0F80034 		ldr	r3, [r0, #1024]
 3397 0008 23F00303 		bic	r3, r3, #3
 3398 000c C0F80034 		str	r3, [r0, #1024]
1462:Drivers/STM32H7xx_HAL_Driver/Src/stm32h7xx_ll_usb.c ****   USBx_HOST->HCFG |= (uint32_t)freq & USB_OTG_HCFG_FSLSPCS;
 3399              		.loc 1 1462 3 is_stmt 1 view .LVU1081
 3400              		.loc 1 1462 19 is_stmt 0 view .LVU1082
 3401 0010 D0F80034 		ldr	r3, [r0, #1024]
 3402              		.loc 1 1462 37 view .LVU1083
 3403 0014 01F00302 		and	r2, r1, #3
 3404              		.loc 1 1462 19 view .LVU1084
 3405 0018 1343     		orrs	r3, r3, r2
 3406 001a C0F80034 		str	r3, [r0, #1024]
1463:Drivers/STM32H7xx_HAL_Driver/Src/stm32h7xx_ll_usb.c **** 
1464:Drivers/STM32H7xx_HAL_Driver/Src/stm32h7xx_ll_usb.c ****   if (freq == HCFG_48_MHZ)
 3407              		.loc 1 1464 3 is_stmt 1 view .LVU1085
 3408              		.loc 1 1464 6 is_stmt 0 view .LVU1086
 3409 001e 0129     		cmp	r1, #1
 3410 0020 03D0     		beq	.L223
1465:Drivers/STM32H7xx_HAL_Driver/Src/stm32h7xx_ll_usb.c ****   {
1466:Drivers/STM32H7xx_HAL_Driver/Src/stm32h7xx_ll_usb.c ****     USBx_HOST->HFIR = 48000U;
1467:Drivers/STM32H7xx_HAL_Driver/Src/stm32h7xx_ll_usb.c ****   }
1468:Drivers/STM32H7xx_HAL_Driver/Src/stm32h7xx_ll_usb.c ****   else if (freq == HCFG_6_MHZ)
 3411              		.loc 1 1468 8 is_stmt 1 view .LVU1087
 3412              		.loc 1 1468 11 is_stmt 0 view .LVU1088
 3413 0022 0229     		cmp	r1, #2
 3414 0024 06D0     		beq	.L224
 3415              	.L222:
1469:Drivers/STM32H7xx_HAL_Driver/Src/stm32h7xx_ll_usb.c ****   {
1470:Drivers/STM32H7xx_HAL_Driver/Src/stm32h7xx_ll_usb.c ****     USBx_HOST->HFIR = 6000U;
1471:Drivers/STM32H7xx_HAL_Driver/Src/stm32h7xx_ll_usb.c ****   }
ARM GAS  /var/folders/26/q55yrwgs1ql1lprjdslmzz800000gn/T//ccC08pEc.s 			page 104


1472:Drivers/STM32H7xx_HAL_Driver/Src/stm32h7xx_ll_usb.c ****   else
1473:Drivers/STM32H7xx_HAL_Driver/Src/stm32h7xx_ll_usb.c ****   {
1474:Drivers/STM32H7xx_HAL_Driver/Src/stm32h7xx_ll_usb.c ****     /* ... */
1475:Drivers/STM32H7xx_HAL_Driver/Src/stm32h7xx_ll_usb.c ****   }
 3416              		.loc 1 1475 3 is_stmt 1 view .LVU1089
1476:Drivers/STM32H7xx_HAL_Driver/Src/stm32h7xx_ll_usb.c **** 
1477:Drivers/STM32H7xx_HAL_Driver/Src/stm32h7xx_ll_usb.c ****   return HAL_OK;
 3417              		.loc 1 1477 3 view .LVU1090
1478:Drivers/STM32H7xx_HAL_Driver/Src/stm32h7xx_ll_usb.c **** }
 3418              		.loc 1 1478 1 is_stmt 0 view .LVU1091
 3419 0026 0020     		movs	r0, #0
 3420              	.LVL298:
 3421              		.loc 1 1478 1 view .LVU1092
 3422 0028 7047     		bx	lr
 3423              	.LVL299:
 3424              	.L223:
1466:Drivers/STM32H7xx_HAL_Driver/Src/stm32h7xx_ll_usb.c ****   }
 3425              		.loc 1 1466 5 is_stmt 1 view .LVU1093
1466:Drivers/STM32H7xx_HAL_Driver/Src/stm32h7xx_ll_usb.c ****   }
 3426              		.loc 1 1466 21 is_stmt 0 view .LVU1094
 3427 002a 4BF68033 		movw	r3, #48000
 3428 002e CCF80430 		str	r3, [ip, #4]
 3429 0032 F8E7     		b	.L222
 3430              	.L224:
1470:Drivers/STM32H7xx_HAL_Driver/Src/stm32h7xx_ll_usb.c ****   }
 3431              		.loc 1 1470 5 is_stmt 1 view .LVU1095
1470:Drivers/STM32H7xx_HAL_Driver/Src/stm32h7xx_ll_usb.c ****   }
 3432              		.loc 1 1470 21 is_stmt 0 view .LVU1096
 3433 0034 41F27073 		movw	r3, #6000
 3434 0038 CCF80430 		str	r3, [ip, #4]
 3435 003c F3E7     		b	.L222
 3436              		.cfi_endproc
 3437              	.LFE179:
 3439              		.section	.text.USB_ResetPort,"ax",%progbits
 3440              		.align	1
 3441              		.global	USB_ResetPort
 3442              		.syntax unified
 3443              		.thumb
 3444              		.thumb_func
 3446              	USB_ResetPort:
 3447              	.LVL300:
 3448              	.LFB180:
1479:Drivers/STM32H7xx_HAL_Driver/Src/stm32h7xx_ll_usb.c **** 
1480:Drivers/STM32H7xx_HAL_Driver/Src/stm32h7xx_ll_usb.c **** /**
1481:Drivers/STM32H7xx_HAL_Driver/Src/stm32h7xx_ll_usb.c ****   * @brief  USB_OTG_ResetPort : Reset Host Port
1482:Drivers/STM32H7xx_HAL_Driver/Src/stm32h7xx_ll_usb.c ****   * @param  USBx  Selected device
1483:Drivers/STM32H7xx_HAL_Driver/Src/stm32h7xx_ll_usb.c ****   * @retval HAL status
1484:Drivers/STM32H7xx_HAL_Driver/Src/stm32h7xx_ll_usb.c ****   * @note (1)The application must wait at least 10 ms
1485:Drivers/STM32H7xx_HAL_Driver/Src/stm32h7xx_ll_usb.c ****   *   before clearing the reset bit.
1486:Drivers/STM32H7xx_HAL_Driver/Src/stm32h7xx_ll_usb.c ****   */
1487:Drivers/STM32H7xx_HAL_Driver/Src/stm32h7xx_ll_usb.c **** HAL_StatusTypeDef USB_ResetPort(USB_OTG_GlobalTypeDef *USBx)
1488:Drivers/STM32H7xx_HAL_Driver/Src/stm32h7xx_ll_usb.c **** {
 3449              		.loc 1 1488 1 is_stmt 1 view -0
 3450              		.cfi_startproc
 3451              		@ args = 0, pretend = 0, frame = 8
 3452              		@ frame_needed = 0, uses_anonymous_args = 0
 3453              		.loc 1 1488 1 is_stmt 0 view .LVU1098
ARM GAS  /var/folders/26/q55yrwgs1ql1lprjdslmzz800000gn/T//ccC08pEc.s 			page 105


 3454 0000 30B5     		push	{r4, r5, lr}
 3455              	.LCFI35:
 3456              		.cfi_def_cfa_offset 12
 3457              		.cfi_offset 4, -12
 3458              		.cfi_offset 5, -8
 3459              		.cfi_offset 14, -4
 3460 0002 83B0     		sub	sp, sp, #12
 3461              	.LCFI36:
 3462              		.cfi_def_cfa_offset 24
 3463 0004 0446     		mov	r4, r0
1489:Drivers/STM32H7xx_HAL_Driver/Src/stm32h7xx_ll_usb.c ****   uint32_t USBx_BASE = (uint32_t)USBx;
 3464              		.loc 1 1489 3 is_stmt 1 view .LVU1099
 3465              	.LVL301:
1490:Drivers/STM32H7xx_HAL_Driver/Src/stm32h7xx_ll_usb.c **** 
1491:Drivers/STM32H7xx_HAL_Driver/Src/stm32h7xx_ll_usb.c ****   __IO uint32_t hprt0 = 0U;
 3466              		.loc 1 1491 3 view .LVU1100
 3467              		.loc 1 1491 17 is_stmt 0 view .LVU1101
 3468 0006 0025     		movs	r5, #0
 3469 0008 0195     		str	r5, [sp, #4]
1492:Drivers/STM32H7xx_HAL_Driver/Src/stm32h7xx_ll_usb.c **** 
1493:Drivers/STM32H7xx_HAL_Driver/Src/stm32h7xx_ll_usb.c ****   hprt0 = USBx_HPRT0;
 3470              		.loc 1 1493 3 is_stmt 1 view .LVU1102
 3471              		.loc 1 1493 11 is_stmt 0 view .LVU1103
 3472 000a D0F84034 		ldr	r3, [r0, #1088]
 3473              		.loc 1 1493 9 view .LVU1104
 3474 000e 0193     		str	r3, [sp, #4]
1494:Drivers/STM32H7xx_HAL_Driver/Src/stm32h7xx_ll_usb.c **** 
1495:Drivers/STM32H7xx_HAL_Driver/Src/stm32h7xx_ll_usb.c ****   hprt0 &= ~(USB_OTG_HPRT_PENA | USB_OTG_HPRT_PCDET |
 3475              		.loc 1 1495 3 is_stmt 1 view .LVU1105
 3476              		.loc 1 1495 9 is_stmt 0 view .LVU1106
 3477 0010 019B     		ldr	r3, [sp, #4]
 3478 0012 23F02E03 		bic	r3, r3, #46
 3479 0016 0193     		str	r3, [sp, #4]
1496:Drivers/STM32H7xx_HAL_Driver/Src/stm32h7xx_ll_usb.c ****              USB_OTG_HPRT_PENCHNG | USB_OTG_HPRT_POCCHNG);
1497:Drivers/STM32H7xx_HAL_Driver/Src/stm32h7xx_ll_usb.c **** 
1498:Drivers/STM32H7xx_HAL_Driver/Src/stm32h7xx_ll_usb.c ****   USBx_HPRT0 = (USB_OTG_HPRT_PRST | hprt0);
 3480              		.loc 1 1498 3 is_stmt 1 view .LVU1107
 3481              		.loc 1 1498 35 is_stmt 0 view .LVU1108
 3482 0018 019B     		ldr	r3, [sp, #4]
 3483 001a 43F48073 		orr	r3, r3, #256
 3484              		.loc 1 1498 14 view .LVU1109
 3485 001e C0F84034 		str	r3, [r0, #1088]
1499:Drivers/STM32H7xx_HAL_Driver/Src/stm32h7xx_ll_usb.c ****   HAL_Delay(100U);                                 /* See Note #1 */
 3486              		.loc 1 1499 3 is_stmt 1 view .LVU1110
 3487 0022 6420     		movs	r0, #100
 3488              	.LVL302:
 3489              		.loc 1 1499 3 is_stmt 0 view .LVU1111
 3490 0024 FFF7FEFF 		bl	HAL_Delay
 3491              	.LVL303:
1500:Drivers/STM32H7xx_HAL_Driver/Src/stm32h7xx_ll_usb.c ****   USBx_HPRT0 = ((~USB_OTG_HPRT_PRST) & hprt0);
 3492              		.loc 1 1500 3 is_stmt 1 view .LVU1112
 3493              		.loc 1 1500 38 is_stmt 0 view .LVU1113
 3494 0028 019B     		ldr	r3, [sp, #4]
 3495 002a 23F48073 		bic	r3, r3, #256
 3496              		.loc 1 1500 14 view .LVU1114
 3497 002e C4F84034 		str	r3, [r4, #1088]
1501:Drivers/STM32H7xx_HAL_Driver/Src/stm32h7xx_ll_usb.c ****   HAL_Delay(10U);
ARM GAS  /var/folders/26/q55yrwgs1ql1lprjdslmzz800000gn/T//ccC08pEc.s 			page 106


 3498              		.loc 1 1501 3 is_stmt 1 view .LVU1115
 3499 0032 0A20     		movs	r0, #10
 3500 0034 FFF7FEFF 		bl	HAL_Delay
 3501              	.LVL304:
1502:Drivers/STM32H7xx_HAL_Driver/Src/stm32h7xx_ll_usb.c **** 
1503:Drivers/STM32H7xx_HAL_Driver/Src/stm32h7xx_ll_usb.c ****   return HAL_OK;
 3502              		.loc 1 1503 3 view .LVU1116
1504:Drivers/STM32H7xx_HAL_Driver/Src/stm32h7xx_ll_usb.c **** }
 3503              		.loc 1 1504 1 is_stmt 0 view .LVU1117
 3504 0038 2846     		mov	r0, r5
 3505 003a 03B0     		add	sp, sp, #12
 3506              	.LCFI37:
 3507              		.cfi_def_cfa_offset 12
 3508              		@ sp needed
 3509 003c 30BD     		pop	{r4, r5, pc}
 3510              		.loc 1 1504 1 view .LVU1118
 3511              		.cfi_endproc
 3512              	.LFE180:
 3514              		.section	.text.USB_DriveVbus,"ax",%progbits
 3515              		.align	1
 3516              		.global	USB_DriveVbus
 3517              		.syntax unified
 3518              		.thumb
 3519              		.thumb_func
 3521              	USB_DriveVbus:
 3522              	.LVL305:
 3523              	.LFB181:
1505:Drivers/STM32H7xx_HAL_Driver/Src/stm32h7xx_ll_usb.c **** 
1506:Drivers/STM32H7xx_HAL_Driver/Src/stm32h7xx_ll_usb.c **** /**
1507:Drivers/STM32H7xx_HAL_Driver/Src/stm32h7xx_ll_usb.c ****   * @brief  USB_DriveVbus : activate or de-activate vbus
1508:Drivers/STM32H7xx_HAL_Driver/Src/stm32h7xx_ll_usb.c ****   * @param  state  VBUS state
1509:Drivers/STM32H7xx_HAL_Driver/Src/stm32h7xx_ll_usb.c ****   *          This parameter can be one of these values:
1510:Drivers/STM32H7xx_HAL_Driver/Src/stm32h7xx_ll_usb.c ****   *           0 : Deactivate VBUS
1511:Drivers/STM32H7xx_HAL_Driver/Src/stm32h7xx_ll_usb.c ****   *           1 : Activate VBUS
1512:Drivers/STM32H7xx_HAL_Driver/Src/stm32h7xx_ll_usb.c ****   * @retval HAL status
1513:Drivers/STM32H7xx_HAL_Driver/Src/stm32h7xx_ll_usb.c ****   */
1514:Drivers/STM32H7xx_HAL_Driver/Src/stm32h7xx_ll_usb.c **** HAL_StatusTypeDef USB_DriveVbus(USB_OTG_GlobalTypeDef *USBx, uint8_t state)
1515:Drivers/STM32H7xx_HAL_Driver/Src/stm32h7xx_ll_usb.c **** {
 3524              		.loc 1 1515 1 is_stmt 1 view -0
 3525              		.cfi_startproc
 3526              		@ args = 0, pretend = 0, frame = 8
 3527              		@ frame_needed = 0, uses_anonymous_args = 0
 3528              		@ link register save eliminated.
 3529              		.loc 1 1515 1 is_stmt 0 view .LVU1120
 3530 0000 82B0     		sub	sp, sp, #8
 3531              	.LCFI38:
 3532              		.cfi_def_cfa_offset 8
1516:Drivers/STM32H7xx_HAL_Driver/Src/stm32h7xx_ll_usb.c ****   uint32_t USBx_BASE = (uint32_t)USBx;
 3533              		.loc 1 1516 3 is_stmt 1 view .LVU1121
 3534              	.LVL306:
1517:Drivers/STM32H7xx_HAL_Driver/Src/stm32h7xx_ll_usb.c ****   __IO uint32_t hprt0 = 0U;
 3535              		.loc 1 1517 3 view .LVU1122
 3536              		.loc 1 1517 17 is_stmt 0 view .LVU1123
 3537 0002 0023     		movs	r3, #0
 3538 0004 0193     		str	r3, [sp, #4]
1518:Drivers/STM32H7xx_HAL_Driver/Src/stm32h7xx_ll_usb.c **** 
1519:Drivers/STM32H7xx_HAL_Driver/Src/stm32h7xx_ll_usb.c ****   hprt0 = USBx_HPRT0;
ARM GAS  /var/folders/26/q55yrwgs1ql1lprjdslmzz800000gn/T//ccC08pEc.s 			page 107


 3539              		.loc 1 1519 3 is_stmt 1 view .LVU1124
 3540              		.loc 1 1519 11 is_stmt 0 view .LVU1125
 3541 0006 D0F84034 		ldr	r3, [r0, #1088]
 3542              		.loc 1 1519 9 view .LVU1126
 3543 000a 0193     		str	r3, [sp, #4]
1520:Drivers/STM32H7xx_HAL_Driver/Src/stm32h7xx_ll_usb.c **** 
1521:Drivers/STM32H7xx_HAL_Driver/Src/stm32h7xx_ll_usb.c ****   hprt0 &= ~(USB_OTG_HPRT_PENA | USB_OTG_HPRT_PCDET |
 3544              		.loc 1 1521 3 is_stmt 1 view .LVU1127
 3545              		.loc 1 1521 9 is_stmt 0 view .LVU1128
 3546 000c 019B     		ldr	r3, [sp, #4]
 3547 000e 23F02E03 		bic	r3, r3, #46
 3548 0012 0193     		str	r3, [sp, #4]
1522:Drivers/STM32H7xx_HAL_Driver/Src/stm32h7xx_ll_usb.c ****              USB_OTG_HPRT_PENCHNG | USB_OTG_HPRT_POCCHNG);
1523:Drivers/STM32H7xx_HAL_Driver/Src/stm32h7xx_ll_usb.c **** 
1524:Drivers/STM32H7xx_HAL_Driver/Src/stm32h7xx_ll_usb.c ****   if (((hprt0 & USB_OTG_HPRT_PPWR) == 0U) && (state == 1U))
 3549              		.loc 1 1524 3 is_stmt 1 view .LVU1129
 3550              		.loc 1 1524 15 is_stmt 0 view .LVU1130
 3551 0014 019B     		ldr	r3, [sp, #4]
 3552              		.loc 1 1524 6 view .LVU1131
 3553 0016 13F4805F 		tst	r3, #4096
 3554 001a 01D1     		bne	.L228
 3555              		.loc 1 1524 43 discriminator 1 view .LVU1132
 3556 001c 0129     		cmp	r1, #1
 3557 001e 0CD0     		beq	.L231
 3558              	.L228:
1525:Drivers/STM32H7xx_HAL_Driver/Src/stm32h7xx_ll_usb.c ****   {
1526:Drivers/STM32H7xx_HAL_Driver/Src/stm32h7xx_ll_usb.c ****     USBx_HPRT0 = (USB_OTG_HPRT_PPWR | hprt0);
1527:Drivers/STM32H7xx_HAL_Driver/Src/stm32h7xx_ll_usb.c ****   }
1528:Drivers/STM32H7xx_HAL_Driver/Src/stm32h7xx_ll_usb.c ****   if (((hprt0 & USB_OTG_HPRT_PPWR) == USB_OTG_HPRT_PPWR) && (state == 0U))
 3559              		.loc 1 1528 3 is_stmt 1 view .LVU1133
 3560              		.loc 1 1528 15 is_stmt 0 view .LVU1134
 3561 0020 019B     		ldr	r3, [sp, #4]
 3562              		.loc 1 1528 6 view .LVU1135
 3563 0022 13F4805F 		tst	r3, #4096
 3564 0026 05D0     		beq	.L229
 3565              		.loc 1 1528 58 discriminator 1 view .LVU1136
 3566 0028 21B9     		cbnz	r1, .L229
1529:Drivers/STM32H7xx_HAL_Driver/Src/stm32h7xx_ll_usb.c ****   {
1530:Drivers/STM32H7xx_HAL_Driver/Src/stm32h7xx_ll_usb.c ****     USBx_HPRT0 = ((~USB_OTG_HPRT_PPWR) & hprt0);
 3567              		.loc 1 1530 5 is_stmt 1 view .LVU1137
 3568              		.loc 1 1530 40 is_stmt 0 view .LVU1138
 3569 002a 019B     		ldr	r3, [sp, #4]
 3570 002c 23F48053 		bic	r3, r3, #4096
 3571              		.loc 1 1530 16 view .LVU1139
 3572 0030 C0F84034 		str	r3, [r0, #1088]
 3573              	.L229:
1531:Drivers/STM32H7xx_HAL_Driver/Src/stm32h7xx_ll_usb.c ****   }
1532:Drivers/STM32H7xx_HAL_Driver/Src/stm32h7xx_ll_usb.c ****   return HAL_OK;
 3574              		.loc 1 1532 3 is_stmt 1 view .LVU1140
1533:Drivers/STM32H7xx_HAL_Driver/Src/stm32h7xx_ll_usb.c **** }
 3575              		.loc 1 1533 1 is_stmt 0 view .LVU1141
 3576 0034 0020     		movs	r0, #0
 3577              	.LVL307:
 3578              		.loc 1 1533 1 view .LVU1142
 3579 0036 02B0     		add	sp, sp, #8
 3580              	.LCFI39:
 3581              		.cfi_remember_state
ARM GAS  /var/folders/26/q55yrwgs1ql1lprjdslmzz800000gn/T//ccC08pEc.s 			page 108


 3582              		.cfi_def_cfa_offset 0
 3583              		@ sp needed
 3584 0038 7047     		bx	lr
 3585              	.LVL308:
 3586              	.L231:
 3587              	.LCFI40:
 3588              		.cfi_restore_state
1526:Drivers/STM32H7xx_HAL_Driver/Src/stm32h7xx_ll_usb.c ****   }
 3589              		.loc 1 1526 5 is_stmt 1 view .LVU1143
1526:Drivers/STM32H7xx_HAL_Driver/Src/stm32h7xx_ll_usb.c ****   }
 3590              		.loc 1 1526 37 is_stmt 0 view .LVU1144
 3591 003a 019B     		ldr	r3, [sp, #4]
 3592 003c 43F48053 		orr	r3, r3, #4096
1526:Drivers/STM32H7xx_HAL_Driver/Src/stm32h7xx_ll_usb.c ****   }
 3593              		.loc 1 1526 16 view .LVU1145
 3594 0040 C0F84034 		str	r3, [r0, #1088]
 3595 0044 ECE7     		b	.L228
 3596              		.cfi_endproc
 3597              	.LFE181:
 3599              		.section	.text.USB_HostInit,"ax",%progbits
 3600              		.align	1
 3601              		.global	USB_HostInit
 3602              		.syntax unified
 3603              		.thumb
 3604              		.thumb_func
 3606              	USB_HostInit:
 3607              	.LVL309:
 3608              	.LFB178:
1363:Drivers/STM32H7xx_HAL_Driver/Src/stm32h7xx_ll_usb.c ****   uint32_t USBx_BASE = (uint32_t)USBx;
 3609              		.loc 1 1363 1 is_stmt 1 view -0
 3610              		.cfi_startproc
 3611              		@ args = 56, pretend = 16, frame = 0
 3612              		@ frame_needed = 0, uses_anonymous_args = 0
1363:Drivers/STM32H7xx_HAL_Driver/Src/stm32h7xx_ll_usb.c ****   uint32_t USBx_BASE = (uint32_t)USBx;
 3613              		.loc 1 1363 1 is_stmt 0 view .LVU1147
 3614 0000 84B0     		sub	sp, sp, #16
 3615              	.LCFI41:
 3616              		.cfi_def_cfa_offset 16
 3617 0002 10B5     		push	{r4, lr}
 3618              	.LCFI42:
 3619              		.cfi_def_cfa_offset 24
 3620              		.cfi_offset 4, -24
 3621              		.cfi_offset 14, -20
 3622 0004 0446     		mov	r4, r0
 3623 0006 03A8     		add	r0, sp, #12
 3624 0008 80E80E00 		stm	r0, {r1, r2, r3}
1364:Drivers/STM32H7xx_HAL_Driver/Src/stm32h7xx_ll_usb.c ****   uint32_t i;
 3625              		.loc 1 1364 3 is_stmt 1 view .LVU1148
 3626              	.LVL310:
1365:Drivers/STM32H7xx_HAL_Driver/Src/stm32h7xx_ll_usb.c **** 
 3627              		.loc 1 1365 3 view .LVU1149
1368:Drivers/STM32H7xx_HAL_Driver/Src/stm32h7xx_ll_usb.c **** 
 3628              		.loc 1 1368 3 view .LVU1150
1368:Drivers/STM32H7xx_HAL_Driver/Src/stm32h7xx_ll_usb.c **** 
 3629              		.loc 1 1368 16 is_stmt 0 view .LVU1151
 3630 000c 0023     		movs	r3, #0
 3631 000e C4F8003E 		str	r3, [r4, #3584]
ARM GAS  /var/folders/26/q55yrwgs1ql1lprjdslmzz800000gn/T//ccC08pEc.s 			page 109


1371:Drivers/STM32H7xx_HAL_Driver/Src/stm32h7xx_ll_usb.c **** 
 3632              		.loc 1 1371 3 is_stmt 1 view .LVU1152
1371:Drivers/STM32H7xx_HAL_Driver/Src/stm32h7xx_ll_usb.c **** 
 3633              		.loc 1 1371 15 is_stmt 0 view .LVU1153
 3634 0012 A36B     		ldr	r3, [r4, #56]
 3635 0014 23F40013 		bic	r3, r3, #2097152
 3636 0018 A363     		str	r3, [r4, #56]
1374:Drivers/STM32H7xx_HAL_Driver/Src/stm32h7xx_ll_usb.c **** 
 3637              		.loc 1 1374 3 is_stmt 1 view .LVU1154
1374:Drivers/STM32H7xx_HAL_Driver/Src/stm32h7xx_ll_usb.c **** 
 3638              		.loc 1 1374 15 is_stmt 0 view .LVU1155
 3639 001a A36B     		ldr	r3, [r4, #56]
 3640 001c 23F40033 		bic	r3, r3, #131072
 3641 0020 A363     		str	r3, [r4, #56]
1377:Drivers/STM32H7xx_HAL_Driver/Src/stm32h7xx_ll_usb.c ****   {
 3642              		.loc 1 1377 3 is_stmt 1 view .LVU1156
1377:Drivers/STM32H7xx_HAL_Driver/Src/stm32h7xx_ll_usb.c ****   {
 3643              		.loc 1 1377 12 is_stmt 0 view .LVU1157
 3644 0022 E36B     		ldr	r3, [r4, #60]
1377:Drivers/STM32H7xx_HAL_Driver/Src/stm32h7xx_ll_usb.c ****   {
 3645              		.loc 1 1377 6 view .LVU1158
 3646 0024 13F4807F 		tst	r3, #256
 3647 0028 10D0     		beq	.L233
1379:Drivers/STM32H7xx_HAL_Driver/Src/stm32h7xx_ll_usb.c ****     {
 3648              		.loc 1 1379 5 is_stmt 1 view .LVU1159
1379:Drivers/STM32H7xx_HAL_Driver/Src/stm32h7xx_ll_usb.c ****     {
 3649              		.loc 1 1379 12 is_stmt 0 view .LVU1160
 3650 002a 059B     		ldr	r3, [sp, #20]
1379:Drivers/STM32H7xx_HAL_Driver/Src/stm32h7xx_ll_usb.c ****     {
 3651              		.loc 1 1379 8 view .LVU1161
 3652 002c 012B     		cmp	r3, #1
 3653 002e 06D0     		beq	.L242
1387:Drivers/STM32H7xx_HAL_Driver/Src/stm32h7xx_ll_usb.c ****     }
 3654              		.loc 1 1387 7 is_stmt 1 view .LVU1162
1387:Drivers/STM32H7xx_HAL_Driver/Src/stm32h7xx_ll_usb.c ****     }
 3655              		.loc 1 1387 23 is_stmt 0 view .LVU1163
 3656 0030 D4F80034 		ldr	r3, [r4, #1024]
 3657 0034 23F00403 		bic	r3, r3, #4
 3658 0038 C4F80034 		str	r3, [r4, #1024]
 3659 003c 0CE0     		b	.L235
 3660              	.L242:
1382:Drivers/STM32H7xx_HAL_Driver/Src/stm32h7xx_ll_usb.c ****     }
 3661              		.loc 1 1382 7 is_stmt 1 view .LVU1164
1382:Drivers/STM32H7xx_HAL_Driver/Src/stm32h7xx_ll_usb.c ****     }
 3662              		.loc 1 1382 23 is_stmt 0 view .LVU1165
 3663 003e D4F80034 		ldr	r3, [r4, #1024]
 3664 0042 43F00403 		orr	r3, r3, #4
 3665 0046 C4F80034 		str	r3, [r4, #1024]
 3666 004a 05E0     		b	.L235
 3667              	.L233:
1393:Drivers/STM32H7xx_HAL_Driver/Src/stm32h7xx_ll_usb.c ****   }
 3668              		.loc 1 1393 5 is_stmt 1 view .LVU1166
1393:Drivers/STM32H7xx_HAL_Driver/Src/stm32h7xx_ll_usb.c ****   }
 3669              		.loc 1 1393 21 is_stmt 0 view .LVU1167
 3670 004c D4F80034 		ldr	r3, [r4, #1024]
 3671 0050 23F00403 		bic	r3, r3, #4
 3672 0054 C4F80034 		str	r3, [r4, #1024]
ARM GAS  /var/folders/26/q55yrwgs1ql1lprjdslmzz800000gn/T//ccC08pEc.s 			page 110


 3673              	.L235:
1397:Drivers/STM32H7xx_HAL_Driver/Src/stm32h7xx_ll_usb.c ****   (void)USB_FlushRxFifo(USBx);
 3674              		.loc 1 1397 3 is_stmt 1 view .LVU1168
1397:Drivers/STM32H7xx_HAL_Driver/Src/stm32h7xx_ll_usb.c ****   (void)USB_FlushRxFifo(USBx);
 3675              		.loc 1 1397 9 is_stmt 0 view .LVU1169
 3676 0058 1021     		movs	r1, #16
 3677 005a 2046     		mov	r0, r4
 3678              	.LVL311:
1397:Drivers/STM32H7xx_HAL_Driver/Src/stm32h7xx_ll_usb.c ****   (void)USB_FlushRxFifo(USBx);
 3679              		.loc 1 1397 9 view .LVU1170
 3680 005c FFF7FEFF 		bl	USB_FlushTxFifo
 3681              	.LVL312:
1398:Drivers/STM32H7xx_HAL_Driver/Src/stm32h7xx_ll_usb.c **** 
 3682              		.loc 1 1398 3 is_stmt 1 view .LVU1171
1398:Drivers/STM32H7xx_HAL_Driver/Src/stm32h7xx_ll_usb.c **** 
 3683              		.loc 1 1398 9 is_stmt 0 view .LVU1172
 3684 0060 2046     		mov	r0, r4
 3685 0062 FFF7FEFF 		bl	USB_FlushRxFifo
 3686              	.LVL313:
1401:Drivers/STM32H7xx_HAL_Driver/Src/stm32h7xx_ll_usb.c ****   {
 3687              		.loc 1 1401 3 is_stmt 1 view .LVU1173
1401:Drivers/STM32H7xx_HAL_Driver/Src/stm32h7xx_ll_usb.c ****   {
 3688              		.loc 1 1401 10 is_stmt 0 view .LVU1174
 3689 0066 0022     		movs	r2, #0
1401:Drivers/STM32H7xx_HAL_Driver/Src/stm32h7xx_ll_usb.c ****   {
 3690              		.loc 1 1401 3 view .LVU1175
 3691 0068 09E0     		b	.L236
 3692              	.LVL314:
 3693              	.L237:
1403:Drivers/STM32H7xx_HAL_Driver/Src/stm32h7xx_ll_usb.c ****     USBx_HC(i)->HCINTMSK = 0U;
 3694              		.loc 1 1403 5 is_stmt 1 discriminator 3 view .LVU1176
 3695 006a 04EB4213 		add	r3, r4, r2, lsl #5
1403:Drivers/STM32H7xx_HAL_Driver/Src/stm32h7xx_ll_usb.c ****     USBx_HC(i)->HCINTMSK = 0U;
 3696              		.loc 1 1403 23 is_stmt 0 discriminator 3 view .LVU1177
 3697 006e 4FF0FF31 		mov	r1, #-1
 3698 0072 C3F80815 		str	r1, [r3, #1288]
1404:Drivers/STM32H7xx_HAL_Driver/Src/stm32h7xx_ll_usb.c ****   }
 3699              		.loc 1 1404 5 is_stmt 1 discriminator 3 view .LVU1178
1404:Drivers/STM32H7xx_HAL_Driver/Src/stm32h7xx_ll_usb.c ****   }
 3700              		.loc 1 1404 26 is_stmt 0 discriminator 3 view .LVU1179
 3701 0076 0021     		movs	r1, #0
 3702 0078 C3F80C15 		str	r1, [r3, #1292]
1401:Drivers/STM32H7xx_HAL_Driver/Src/stm32h7xx_ll_usb.c ****   {
 3703              		.loc 1 1401 39 is_stmt 1 discriminator 3 view .LVU1180
1401:Drivers/STM32H7xx_HAL_Driver/Src/stm32h7xx_ll_usb.c ****   {
 3704              		.loc 1 1401 40 is_stmt 0 discriminator 3 view .LVU1181
 3705 007c 0132     		adds	r2, r2, #1
 3706              	.LVL315:
 3707              	.L236:
1401:Drivers/STM32H7xx_HAL_Driver/Src/stm32h7xx_ll_usb.c ****   {
 3708              		.loc 1 1401 16 is_stmt 1 discriminator 1 view .LVU1182
1401:Drivers/STM32H7xx_HAL_Driver/Src/stm32h7xx_ll_usb.c ****   {
 3709              		.loc 1 1401 23 is_stmt 0 discriminator 1 view .LVU1183
 3710 007e 049B     		ldr	r3, [sp, #16]
1401:Drivers/STM32H7xx_HAL_Driver/Src/stm32h7xx_ll_usb.c ****   {
 3711              		.loc 1 1401 3 discriminator 1 view .LVU1184
 3712 0080 9342     		cmp	r3, r2
ARM GAS  /var/folders/26/q55yrwgs1ql1lprjdslmzz800000gn/T//ccC08pEc.s 			page 111


 3713 0082 F2D8     		bhi	.L237
1408:Drivers/STM32H7xx_HAL_Driver/Src/stm32h7xx_ll_usb.c **** 
 3714              		.loc 1 1408 3 is_stmt 1 view .LVU1185
1408:Drivers/STM32H7xx_HAL_Driver/Src/stm32h7xx_ll_usb.c **** 
 3715              		.loc 1 1408 9 is_stmt 0 view .LVU1186
 3716 0084 0121     		movs	r1, #1
 3717 0086 2046     		mov	r0, r4
 3718 0088 FFF7FEFF 		bl	USB_DriveVbus
 3719              	.LVL316:
1410:Drivers/STM32H7xx_HAL_Driver/Src/stm32h7xx_ll_usb.c **** 
 3720              		.loc 1 1410 3 is_stmt 1 view .LVU1187
 3721 008c C820     		movs	r0, #200
 3722 008e FFF7FEFF 		bl	HAL_Delay
 3723              	.LVL317:
1413:Drivers/STM32H7xx_HAL_Driver/Src/stm32h7xx_ll_usb.c **** 
 3724              		.loc 1 1413 3 view .LVU1188
1413:Drivers/STM32H7xx_HAL_Driver/Src/stm32h7xx_ll_usb.c **** 
 3725              		.loc 1 1413 17 is_stmt 0 view .LVU1189
 3726 0092 0023     		movs	r3, #0
 3727 0094 A361     		str	r3, [r4, #24]
1416:Drivers/STM32H7xx_HAL_Driver/Src/stm32h7xx_ll_usb.c **** 
 3728              		.loc 1 1416 3 is_stmt 1 view .LVU1190
1416:Drivers/STM32H7xx_HAL_Driver/Src/stm32h7xx_ll_usb.c **** 
 3729              		.loc 1 1416 17 is_stmt 0 view .LVU1191
 3730 0096 4FF0FF33 		mov	r3, #-1
 3731 009a 6361     		str	r3, [r4, #20]
1418:Drivers/STM32H7xx_HAL_Driver/Src/stm32h7xx_ll_usb.c ****   {
 3732              		.loc 1 1418 3 is_stmt 1 view .LVU1192
1418:Drivers/STM32H7xx_HAL_Driver/Src/stm32h7xx_ll_usb.c ****   {
 3733              		.loc 1 1418 12 is_stmt 0 view .LVU1193
 3734 009c E36B     		ldr	r3, [r4, #60]
1418:Drivers/STM32H7xx_HAL_Driver/Src/stm32h7xx_ll_usb.c ****   {
 3735              		.loc 1 1418 6 view .LVU1194
 3736 009e 13F4807F 		tst	r3, #256
 3737 00a2 17D0     		beq	.L238
1421:Drivers/STM32H7xx_HAL_Driver/Src/stm32h7xx_ll_usb.c ****     USBx->DIEPTXF0_HNPTXFSIZ = (uint32_t)(((0x100U << 16) & USB_OTG_NPTXFD) | 0x200U);
 3738              		.loc 1 1421 5 is_stmt 1 view .LVU1195
1421:Drivers/STM32H7xx_HAL_Driver/Src/stm32h7xx_ll_usb.c ****     USBx->DIEPTXF0_HNPTXFSIZ = (uint32_t)(((0x100U << 16) & USB_OTG_NPTXFD) | 0x200U);
 3739              		.loc 1 1421 20 is_stmt 0 view .LVU1196
 3740 00a4 4FF40073 		mov	r3, #512
 3741 00a8 6362     		str	r3, [r4, #36]
1422:Drivers/STM32H7xx_HAL_Driver/Src/stm32h7xx_ll_usb.c ****     USBx->HPTXFSIZ = (uint32_t)(((0xE0U << 16) & USB_OTG_HPTXFSIZ_PTXFD) | 0x300U);
 3742              		.loc 1 1422 5 is_stmt 1 view .LVU1197
1422:Drivers/STM32H7xx_HAL_Driver/Src/stm32h7xx_ll_usb.c ****     USBx->HPTXFSIZ = (uint32_t)(((0xE0U << 16) & USB_OTG_HPTXFSIZ_PTXFD) | 0x300U);
 3743              		.loc 1 1422 30 is_stmt 0 view .LVU1198
 3744 00aa 03F18073 		add	r3, r3, #16777216
 3745 00ae A362     		str	r3, [r4, #40]
1423:Drivers/STM32H7xx_HAL_Driver/Src/stm32h7xx_ll_usb.c ****   }
 3746              		.loc 1 1423 5 is_stmt 1 view .LVU1199
1423:Drivers/STM32H7xx_HAL_Driver/Src/stm32h7xx_ll_usb.c ****   }
 3747              		.loc 1 1423 20 is_stmt 0 view .LVU1200
 3748 00b0 0D4B     		ldr	r3, .L243
 3749 00b2 C4F80031 		str	r3, [r4, #256]
 3750              	.L239:
1434:Drivers/STM32H7xx_HAL_Driver/Src/stm32h7xx_ll_usb.c ****   {
 3751              		.loc 1 1434 3 is_stmt 1 view .LVU1201
1434:Drivers/STM32H7xx_HAL_Driver/Src/stm32h7xx_ll_usb.c ****   {
ARM GAS  /var/folders/26/q55yrwgs1ql1lprjdslmzz800000gn/T//ccC08pEc.s 			page 112


 3752              		.loc 1 1434 10 is_stmt 0 view .LVU1202
 3753 00b6 069B     		ldr	r3, [sp, #24]
1434:Drivers/STM32H7xx_HAL_Driver/Src/stm32h7xx_ll_usb.c ****   {
 3754              		.loc 1 1434 6 view .LVU1203
 3755 00b8 1BB9     		cbnz	r3, .L240
1436:Drivers/STM32H7xx_HAL_Driver/Src/stm32h7xx_ll_usb.c ****   }
 3756              		.loc 1 1436 5 is_stmt 1 view .LVU1204
1436:Drivers/STM32H7xx_HAL_Driver/Src/stm32h7xx_ll_usb.c ****   }
 3757              		.loc 1 1436 19 is_stmt 0 view .LVU1205
 3758 00ba A369     		ldr	r3, [r4, #24]
 3759 00bc 43F01003 		orr	r3, r3, #16
 3760 00c0 A361     		str	r3, [r4, #24]
 3761              	.L240:
1440:Drivers/STM32H7xx_HAL_Driver/Src/stm32h7xx_ll_usb.c ****                     USB_OTG_GINTMSK_SOFM             | USB_OTG_GINTSTS_DISCINT | \
 3762              		.loc 1 1440 3 is_stmt 1 view .LVU1206
1440:Drivers/STM32H7xx_HAL_Driver/Src/stm32h7xx_ll_usb.c ****                     USB_OTG_GINTMSK_SOFM             | USB_OTG_GINTSTS_DISCINT | \
 3763              		.loc 1 1440 17 is_stmt 0 view .LVU1207
 3764 00c2 A269     		ldr	r2, [r4, #24]
 3765 00c4 094B     		ldr	r3, .L243+4
 3766 00c6 1343     		orrs	r3, r3, r2
 3767 00c8 A361     		str	r3, [r4, #24]
1444:Drivers/STM32H7xx_HAL_Driver/Src/stm32h7xx_ll_usb.c **** }
 3768              		.loc 1 1444 3 is_stmt 1 view .LVU1208
1445:Drivers/STM32H7xx_HAL_Driver/Src/stm32h7xx_ll_usb.c **** 
 3769              		.loc 1 1445 1 is_stmt 0 view .LVU1209
 3770 00ca 0020     		movs	r0, #0
 3771 00cc BDE81040 		pop	{r4, lr}
 3772              	.LCFI43:
 3773              		.cfi_remember_state
 3774              		.cfi_restore 14
 3775              		.cfi_restore 4
 3776              		.cfi_def_cfa_offset 16
 3777              	.LVL318:
1445:Drivers/STM32H7xx_HAL_Driver/Src/stm32h7xx_ll_usb.c **** 
 3778              		.loc 1 1445 1 view .LVU1210
 3779 00d0 04B0     		add	sp, sp, #16
 3780              	.LCFI44:
 3781              		.cfi_def_cfa_offset 0
 3782 00d2 7047     		bx	lr
 3783              	.LVL319:
 3784              	.L238:
 3785              	.LCFI45:
 3786              		.cfi_restore_state
1428:Drivers/STM32H7xx_HAL_Driver/Src/stm32h7xx_ll_usb.c ****     USBx->DIEPTXF0_HNPTXFSIZ = (uint32_t)(((0x60U << 16) & USB_OTG_NPTXFD) | 0x80U);
 3787              		.loc 1 1428 5 is_stmt 1 view .LVU1211
1428:Drivers/STM32H7xx_HAL_Driver/Src/stm32h7xx_ll_usb.c ****     USBx->DIEPTXF0_HNPTXFSIZ = (uint32_t)(((0x60U << 16) & USB_OTG_NPTXFD) | 0x80U);
 3788              		.loc 1 1428 20 is_stmt 0 view .LVU1212
 3789 00d4 8023     		movs	r3, #128
 3790 00d6 6362     		str	r3, [r4, #36]
1429:Drivers/STM32H7xx_HAL_Driver/Src/stm32h7xx_ll_usb.c ****     USBx->HPTXFSIZ = (uint32_t)(((0x40U << 16)& USB_OTG_HPTXFSIZ_PTXFD) | 0xE0U);
 3791              		.loc 1 1429 5 is_stmt 1 view .LVU1213
1429:Drivers/STM32H7xx_HAL_Driver/Src/stm32h7xx_ll_usb.c ****     USBx->HPTXFSIZ = (uint32_t)(((0x40U << 16)& USB_OTG_HPTXFSIZ_PTXFD) | 0xE0U);
 3792              		.loc 1 1429 30 is_stmt 0 view .LVU1214
 3793 00d8 03F5C003 		add	r3, r3, #6291456
 3794 00dc A362     		str	r3, [r4, #40]
1430:Drivers/STM32H7xx_HAL_Driver/Src/stm32h7xx_ll_usb.c ****   }
 3795              		.loc 1 1430 5 is_stmt 1 view .LVU1215
ARM GAS  /var/folders/26/q55yrwgs1ql1lprjdslmzz800000gn/T//ccC08pEc.s 			page 113


1430:Drivers/STM32H7xx_HAL_Driver/Src/stm32h7xx_ll_usb.c ****   }
 3796              		.loc 1 1430 20 is_stmt 0 view .LVU1216
 3797 00de 044B     		ldr	r3, .L243+8
 3798 00e0 C4F80031 		str	r3, [r4, #256]
 3799 00e4 E7E7     		b	.L239
 3800              	.L244:
 3801 00e6 00BF     		.align	2
 3802              	.L243:
 3803 00e8 0003E000 		.word	14680832
 3804 00ec 080020A3 		.word	-1558183928
 3805 00f0 E0004000 		.word	4194528
 3806              		.cfi_endproc
 3807              	.LFE178:
 3809              		.section	.text.USB_GetHostSpeed,"ax",%progbits
 3810              		.align	1
 3811              		.global	USB_GetHostSpeed
 3812              		.syntax unified
 3813              		.thumb
 3814              		.thumb_func
 3816              	USB_GetHostSpeed:
 3817              	.LVL320:
 3818              	.LFB182:
1534:Drivers/STM32H7xx_HAL_Driver/Src/stm32h7xx_ll_usb.c **** 
1535:Drivers/STM32H7xx_HAL_Driver/Src/stm32h7xx_ll_usb.c **** /**
1536:Drivers/STM32H7xx_HAL_Driver/Src/stm32h7xx_ll_usb.c ****   * @brief  Return Host Core speed
1537:Drivers/STM32H7xx_HAL_Driver/Src/stm32h7xx_ll_usb.c ****   * @param  USBx  Selected device
1538:Drivers/STM32H7xx_HAL_Driver/Src/stm32h7xx_ll_usb.c ****   * @retval speed : Host speed
1539:Drivers/STM32H7xx_HAL_Driver/Src/stm32h7xx_ll_usb.c ****   *          This parameter can be one of these values:
1540:Drivers/STM32H7xx_HAL_Driver/Src/stm32h7xx_ll_usb.c ****   *            @arg HCD_SPEED_HIGH: High speed mode
1541:Drivers/STM32H7xx_HAL_Driver/Src/stm32h7xx_ll_usb.c ****   *            @arg HCD_SPEED_FULL: Full speed mode
1542:Drivers/STM32H7xx_HAL_Driver/Src/stm32h7xx_ll_usb.c ****   *            @arg HCD_SPEED_LOW: Low speed mode
1543:Drivers/STM32H7xx_HAL_Driver/Src/stm32h7xx_ll_usb.c ****   */
1544:Drivers/STM32H7xx_HAL_Driver/Src/stm32h7xx_ll_usb.c **** uint32_t USB_GetHostSpeed(USB_OTG_GlobalTypeDef *USBx)
1545:Drivers/STM32H7xx_HAL_Driver/Src/stm32h7xx_ll_usb.c **** {
 3819              		.loc 1 1545 1 is_stmt 1 view -0
 3820              		.cfi_startproc
 3821              		@ args = 0, pretend = 0, frame = 8
 3822              		@ frame_needed = 0, uses_anonymous_args = 0
 3823              		@ link register save eliminated.
 3824              		.loc 1 1545 1 is_stmt 0 view .LVU1218
 3825 0000 82B0     		sub	sp, sp, #8
 3826              	.LCFI46:
 3827              		.cfi_def_cfa_offset 8
1546:Drivers/STM32H7xx_HAL_Driver/Src/stm32h7xx_ll_usb.c ****   uint32_t USBx_BASE = (uint32_t)USBx;
 3828              		.loc 1 1546 3 is_stmt 1 view .LVU1219
 3829              	.LVL321:
1547:Drivers/STM32H7xx_HAL_Driver/Src/stm32h7xx_ll_usb.c ****   __IO uint32_t hprt0 = 0U;
 3830              		.loc 1 1547 3 view .LVU1220
 3831              		.loc 1 1547 17 is_stmt 0 view .LVU1221
 3832 0002 0023     		movs	r3, #0
 3833 0004 0193     		str	r3, [sp, #4]
1548:Drivers/STM32H7xx_HAL_Driver/Src/stm32h7xx_ll_usb.c **** 
1549:Drivers/STM32H7xx_HAL_Driver/Src/stm32h7xx_ll_usb.c ****   hprt0 = USBx_HPRT0;
 3834              		.loc 1 1549 3 is_stmt 1 view .LVU1222
 3835              		.loc 1 1549 11 is_stmt 0 view .LVU1223
 3836 0006 D0F84034 		ldr	r3, [r0, #1088]
 3837              		.loc 1 1549 9 view .LVU1224
ARM GAS  /var/folders/26/q55yrwgs1ql1lprjdslmzz800000gn/T//ccC08pEc.s 			page 114


 3838 000a 0193     		str	r3, [sp, #4]
1550:Drivers/STM32H7xx_HAL_Driver/Src/stm32h7xx_ll_usb.c ****   return ((hprt0 & USB_OTG_HPRT_PSPD) >> 17);
 3839              		.loc 1 1550 3 is_stmt 1 view .LVU1225
 3840              		.loc 1 1550 39 is_stmt 0 view .LVU1226
 3841 000c 0198     		ldr	r0, [sp, #4]
 3842              	.LVL322:
1551:Drivers/STM32H7xx_HAL_Driver/Src/stm32h7xx_ll_usb.c **** }
 3843              		.loc 1 1551 1 view .LVU1227
 3844 000e C0F34140 		ubfx	r0, r0, #17, #2
 3845 0012 02B0     		add	sp, sp, #8
 3846              	.LCFI47:
 3847              		.cfi_def_cfa_offset 0
 3848              		@ sp needed
 3849 0014 7047     		bx	lr
 3850              		.cfi_endproc
 3851              	.LFE182:
 3853              		.section	.text.USB_GetCurrentFrame,"ax",%progbits
 3854              		.align	1
 3855              		.global	USB_GetCurrentFrame
 3856              		.syntax unified
 3857              		.thumb
 3858              		.thumb_func
 3860              	USB_GetCurrentFrame:
 3861              	.LVL323:
 3862              	.LFB183:
1552:Drivers/STM32H7xx_HAL_Driver/Src/stm32h7xx_ll_usb.c **** 
1553:Drivers/STM32H7xx_HAL_Driver/Src/stm32h7xx_ll_usb.c **** /**
1554:Drivers/STM32H7xx_HAL_Driver/Src/stm32h7xx_ll_usb.c ****   * @brief  Return Host Current Frame number
1555:Drivers/STM32H7xx_HAL_Driver/Src/stm32h7xx_ll_usb.c ****   * @param  USBx  Selected device
1556:Drivers/STM32H7xx_HAL_Driver/Src/stm32h7xx_ll_usb.c ****   * @retval current frame number
1557:Drivers/STM32H7xx_HAL_Driver/Src/stm32h7xx_ll_usb.c ****   */
1558:Drivers/STM32H7xx_HAL_Driver/Src/stm32h7xx_ll_usb.c **** uint32_t USB_GetCurrentFrame(USB_OTG_GlobalTypeDef *USBx)
1559:Drivers/STM32H7xx_HAL_Driver/Src/stm32h7xx_ll_usb.c **** {
 3863              		.loc 1 1559 1 is_stmt 1 view -0
 3864              		.cfi_startproc
 3865              		@ args = 0, pretend = 0, frame = 0
 3866              		@ frame_needed = 0, uses_anonymous_args = 0
 3867              		@ link register save eliminated.
1560:Drivers/STM32H7xx_HAL_Driver/Src/stm32h7xx_ll_usb.c ****   uint32_t USBx_BASE = (uint32_t)USBx;
 3868              		.loc 1 1560 3 view .LVU1229
1561:Drivers/STM32H7xx_HAL_Driver/Src/stm32h7xx_ll_usb.c **** 
1562:Drivers/STM32H7xx_HAL_Driver/Src/stm32h7xx_ll_usb.c ****   return (USBx_HOST->HFNUM & USB_OTG_HFNUM_FRNUM);
 3869              		.loc 1 1562 3 view .LVU1230
 3870              		.loc 1 1562 11 is_stmt 0 view .LVU1231
 3871 0000 00F58060 		add	r0, r0, #1024
 3872              	.LVL324:
 3873              		.loc 1 1562 20 view .LVU1232
 3874 0004 8068     		ldr	r0, [r0, #8]
 3875              	.LVL325:
1563:Drivers/STM32H7xx_HAL_Driver/Src/stm32h7xx_ll_usb.c **** }
 3876              		.loc 1 1563 1 view .LVU1233
 3877 0006 80B2     		uxth	r0, r0
 3878 0008 7047     		bx	lr
 3879              		.cfi_endproc
 3880              	.LFE183:
 3882              		.section	.text.USB_HC_Init,"ax",%progbits
 3883              		.align	1
ARM GAS  /var/folders/26/q55yrwgs1ql1lprjdslmzz800000gn/T//ccC08pEc.s 			page 115


 3884              		.global	USB_HC_Init
 3885              		.syntax unified
 3886              		.thumb
 3887              		.thumb_func
 3889              	USB_HC_Init:
 3890              	.LVL326:
 3891              	.LFB184:
1564:Drivers/STM32H7xx_HAL_Driver/Src/stm32h7xx_ll_usb.c **** 
1565:Drivers/STM32H7xx_HAL_Driver/Src/stm32h7xx_ll_usb.c **** /**
1566:Drivers/STM32H7xx_HAL_Driver/Src/stm32h7xx_ll_usb.c ****   * @brief  Initialize a host channel
1567:Drivers/STM32H7xx_HAL_Driver/Src/stm32h7xx_ll_usb.c ****   * @param  USBx  Selected device
1568:Drivers/STM32H7xx_HAL_Driver/Src/stm32h7xx_ll_usb.c ****   * @param  ch_num  Channel number
1569:Drivers/STM32H7xx_HAL_Driver/Src/stm32h7xx_ll_usb.c ****   *         This parameter can be a value from 1 to 15
1570:Drivers/STM32H7xx_HAL_Driver/Src/stm32h7xx_ll_usb.c ****   * @param  epnum  Endpoint number
1571:Drivers/STM32H7xx_HAL_Driver/Src/stm32h7xx_ll_usb.c ****   *          This parameter can be a value from 1 to 15
1572:Drivers/STM32H7xx_HAL_Driver/Src/stm32h7xx_ll_usb.c ****   * @param  dev_address  Current device address
1573:Drivers/STM32H7xx_HAL_Driver/Src/stm32h7xx_ll_usb.c ****   *          This parameter can be a value from 0 to 255
1574:Drivers/STM32H7xx_HAL_Driver/Src/stm32h7xx_ll_usb.c ****   * @param  speed  Current device speed
1575:Drivers/STM32H7xx_HAL_Driver/Src/stm32h7xx_ll_usb.c ****   *          This parameter can be one of these values:
1576:Drivers/STM32H7xx_HAL_Driver/Src/stm32h7xx_ll_usb.c ****   *            @arg USB_OTG_SPEED_HIGH: High speed mode
1577:Drivers/STM32H7xx_HAL_Driver/Src/stm32h7xx_ll_usb.c ****   *            @arg USB_OTG_SPEED_FULL: Full speed mode
1578:Drivers/STM32H7xx_HAL_Driver/Src/stm32h7xx_ll_usb.c ****   *            @arg USB_OTG_SPEED_LOW: Low speed mode
1579:Drivers/STM32H7xx_HAL_Driver/Src/stm32h7xx_ll_usb.c ****   * @param  ep_type  Endpoint Type
1580:Drivers/STM32H7xx_HAL_Driver/Src/stm32h7xx_ll_usb.c ****   *          This parameter can be one of these values:
1581:Drivers/STM32H7xx_HAL_Driver/Src/stm32h7xx_ll_usb.c ****   *            @arg EP_TYPE_CTRL: Control type
1582:Drivers/STM32H7xx_HAL_Driver/Src/stm32h7xx_ll_usb.c ****   *            @arg EP_TYPE_ISOC: Isochronous type
1583:Drivers/STM32H7xx_HAL_Driver/Src/stm32h7xx_ll_usb.c ****   *            @arg EP_TYPE_BULK: Bulk type
1584:Drivers/STM32H7xx_HAL_Driver/Src/stm32h7xx_ll_usb.c ****   *            @arg EP_TYPE_INTR: Interrupt type
1585:Drivers/STM32H7xx_HAL_Driver/Src/stm32h7xx_ll_usb.c ****   * @param  mps  Max Packet Size
1586:Drivers/STM32H7xx_HAL_Driver/Src/stm32h7xx_ll_usb.c ****   *          This parameter can be a value from 0 to 32K
1587:Drivers/STM32H7xx_HAL_Driver/Src/stm32h7xx_ll_usb.c ****   * @retval HAL state
1588:Drivers/STM32H7xx_HAL_Driver/Src/stm32h7xx_ll_usb.c ****   */
1589:Drivers/STM32H7xx_HAL_Driver/Src/stm32h7xx_ll_usb.c **** HAL_StatusTypeDef USB_HC_Init(USB_OTG_GlobalTypeDef *USBx, uint8_t ch_num,
1590:Drivers/STM32H7xx_HAL_Driver/Src/stm32h7xx_ll_usb.c ****                               uint8_t epnum, uint8_t dev_address, uint8_t speed,
1591:Drivers/STM32H7xx_HAL_Driver/Src/stm32h7xx_ll_usb.c ****                               uint8_t ep_type, uint16_t mps)
1592:Drivers/STM32H7xx_HAL_Driver/Src/stm32h7xx_ll_usb.c **** {
 3892              		.loc 1 1592 1 is_stmt 1 view -0
 3893              		.cfi_startproc
 3894              		@ args = 12, pretend = 0, frame = 0
 3895              		@ frame_needed = 0, uses_anonymous_args = 0
 3896              		.loc 1 1592 1 is_stmt 0 view .LVU1235
 3897 0000 2DE9F843 		push	{r3, r4, r5, r6, r7, r8, r9, lr}
 3898              	.LCFI48:
 3899              		.cfi_def_cfa_offset 32
 3900              		.cfi_offset 3, -32
 3901              		.cfi_offset 4, -28
 3902              		.cfi_offset 5, -24
 3903              		.cfi_offset 6, -20
 3904              		.cfi_offset 7, -16
 3905              		.cfi_offset 8, -12
 3906              		.cfi_offset 9, -8
 3907              		.cfi_offset 14, -4
 3908 0004 9146     		mov	r9, r2
 3909 0006 1C46     		mov	r4, r3
 3910 0008 9DF82450 		ldrb	r5, [sp, #36]	@ zero_extendqisi2
1593:Drivers/STM32H7xx_HAL_Driver/Src/stm32h7xx_ll_usb.c ****   HAL_StatusTypeDef ret = HAL_OK;
 3911              		.loc 1 1593 3 is_stmt 1 view .LVU1236
ARM GAS  /var/folders/26/q55yrwgs1ql1lprjdslmzz800000gn/T//ccC08pEc.s 			page 116


 3912              	.LVL327:
1594:Drivers/STM32H7xx_HAL_Driver/Src/stm32h7xx_ll_usb.c ****   uint32_t USBx_BASE = (uint32_t)USBx;
 3913              		.loc 1 1594 3 view .LVU1237
1595:Drivers/STM32H7xx_HAL_Driver/Src/stm32h7xx_ll_usb.c ****   uint32_t HCcharEpDir, HCcharLowSpeed;
 3914              		.loc 1 1595 3 view .LVU1238
1596:Drivers/STM32H7xx_HAL_Driver/Src/stm32h7xx_ll_usb.c ****   uint32_t HostCoreSpeed;
 3915              		.loc 1 1596 3 view .LVU1239
1597:Drivers/STM32H7xx_HAL_Driver/Src/stm32h7xx_ll_usb.c **** 
1598:Drivers/STM32H7xx_HAL_Driver/Src/stm32h7xx_ll_usb.c ****   /* Clear old interrupt conditions for this host channel. */
1599:Drivers/STM32H7xx_HAL_Driver/Src/stm32h7xx_ll_usb.c ****   USBx_HC((uint32_t)ch_num)->HCINT = 0xFFFFFFFFU;
 3916              		.loc 1 1599 3 view .LVU1240
 3917 000c 00EB4116 		add	r6, r0, r1, lsl #5
 3918 0010 06F5A063 		add	r3, r6, #1280
 3919              	.LVL328:
 3920              		.loc 1 1599 36 is_stmt 0 view .LVU1241
 3921 0014 4FF0FF32 		mov	r2, #-1
 3922              	.LVL329:
 3923              		.loc 1 1599 36 view .LVU1242
 3924 0018 9A60     		str	r2, [r3, #8]
1600:Drivers/STM32H7xx_HAL_Driver/Src/stm32h7xx_ll_usb.c **** 
1601:Drivers/STM32H7xx_HAL_Driver/Src/stm32h7xx_ll_usb.c ****   /* Enable channel interrupts required for this transfer. */
1602:Drivers/STM32H7xx_HAL_Driver/Src/stm32h7xx_ll_usb.c ****   switch (ep_type)
 3925              		.loc 1 1602 3 is_stmt 1 view .LVU1243
 3926 001a 032D     		cmp	r5, #3
 3927 001c 71D8     		bhi	.L258
 3928 001e DFE805F0 		tbb	[pc, r5]
 3929              	.L251:
 3930 0022 02       		.byte	(.L252-.L251)/2
 3931 0023 62       		.byte	(.L253-.L251)/2
 3932 0024 02       		.byte	(.L252-.L251)/2
 3933 0025 18       		.byte	(.L250-.L251)/2
 3934              		.p2align 1
 3935              	.L252:
1603:Drivers/STM32H7xx_HAL_Driver/Src/stm32h7xx_ll_usb.c ****   {
1604:Drivers/STM32H7xx_HAL_Driver/Src/stm32h7xx_ll_usb.c ****     case EP_TYPE_CTRL:
1605:Drivers/STM32H7xx_HAL_Driver/Src/stm32h7xx_ll_usb.c ****     case EP_TYPE_BULK:
1606:Drivers/STM32H7xx_HAL_Driver/Src/stm32h7xx_ll_usb.c ****       USBx_HC((uint32_t)ch_num)->HCINTMSK = USB_OTG_HCINTMSK_XFRCM  |
 3936              		.loc 1 1606 7 view .LVU1244
 3937              		.loc 1 1606 43 is_stmt 0 view .LVU1245
 3938 0026 40F29D42 		movw	r2, #1181
 3939 002a DA60     		str	r2, [r3, #12]
1607:Drivers/STM32H7xx_HAL_Driver/Src/stm32h7xx_ll_usb.c ****                                             USB_OTG_HCINTMSK_STALLM |
1608:Drivers/STM32H7xx_HAL_Driver/Src/stm32h7xx_ll_usb.c ****                                             USB_OTG_HCINTMSK_TXERRM |
1609:Drivers/STM32H7xx_HAL_Driver/Src/stm32h7xx_ll_usb.c ****                                             USB_OTG_HCINTMSK_DTERRM |
1610:Drivers/STM32H7xx_HAL_Driver/Src/stm32h7xx_ll_usb.c ****                                             USB_OTG_HCINTMSK_AHBERR |
1611:Drivers/STM32H7xx_HAL_Driver/Src/stm32h7xx_ll_usb.c ****                                             USB_OTG_HCINTMSK_NAKM;
1612:Drivers/STM32H7xx_HAL_Driver/Src/stm32h7xx_ll_usb.c **** 
1613:Drivers/STM32H7xx_HAL_Driver/Src/stm32h7xx_ll_usb.c ****       if ((epnum & 0x80U) == 0x80U)
 3940              		.loc 1 1613 7 is_stmt 1 view .LVU1246
 3941              		.loc 1 1613 10 is_stmt 0 view .LVU1247
 3942 002c 19F0800F 		tst	r9, #128
 3943 0030 09D1     		bne	.L265
1614:Drivers/STM32H7xx_HAL_Driver/Src/stm32h7xx_ll_usb.c ****       {
1615:Drivers/STM32H7xx_HAL_Driver/Src/stm32h7xx_ll_usb.c ****         USBx_HC((uint32_t)ch_num)->HCINTMSK |= USB_OTG_HCINTMSK_BBERRM;
1616:Drivers/STM32H7xx_HAL_Driver/Src/stm32h7xx_ll_usb.c ****       }
1617:Drivers/STM32H7xx_HAL_Driver/Src/stm32h7xx_ll_usb.c ****       else
1618:Drivers/STM32H7xx_HAL_Driver/Src/stm32h7xx_ll_usb.c ****       {
ARM GAS  /var/folders/26/q55yrwgs1ql1lprjdslmzz800000gn/T//ccC08pEc.s 			page 117


1619:Drivers/STM32H7xx_HAL_Driver/Src/stm32h7xx_ll_usb.c ****         if ((USBx->CID & (0x1U << 8)) != 0U)
 3944              		.loc 1 1619 9 is_stmt 1 view .LVU1248
 3945              		.loc 1 1619 18 is_stmt 0 view .LVU1249
 3946 0032 C26B     		ldr	r2, [r0, #60]
 3947              		.loc 1 1619 12 view .LVU1250
 3948 0034 12F4807F 		tst	r2, #256
 3949 0038 65D0     		beq	.L259
1620:Drivers/STM32H7xx_HAL_Driver/Src/stm32h7xx_ll_usb.c ****         {
1621:Drivers/STM32H7xx_HAL_Driver/Src/stm32h7xx_ll_usb.c ****           USBx_HC((uint32_t)ch_num)->HCINTMSK |= USB_OTG_HCINTMSK_NYET |
 3950              		.loc 1 1621 11 is_stmt 1 view .LVU1251
 3951              		.loc 1 1621 47 is_stmt 0 view .LVU1252
 3952 003a DA68     		ldr	r2, [r3, #12]
 3953 003c 42F06002 		orr	r2, r2, #96
 3954 0040 DA60     		str	r2, [r3, #12]
1593:Drivers/STM32H7xx_HAL_Driver/Src/stm32h7xx_ll_usb.c ****   uint32_t USBx_BASE = (uint32_t)USBx;
 3955              		.loc 1 1593 21 view .LVU1253
 3956 0042 0027     		movs	r7, #0
 3957 0044 0CE0     		b	.L249
 3958              	.L265:
1615:Drivers/STM32H7xx_HAL_Driver/Src/stm32h7xx_ll_usb.c ****       }
 3959              		.loc 1 1615 9 is_stmt 1 view .LVU1254
1615:Drivers/STM32H7xx_HAL_Driver/Src/stm32h7xx_ll_usb.c ****       }
 3960              		.loc 1 1615 45 is_stmt 0 view .LVU1255
 3961 0046 DA68     		ldr	r2, [r3, #12]
 3962 0048 42F48072 		orr	r2, r2, #256
 3963 004c DA60     		str	r2, [r3, #12]
1593:Drivers/STM32H7xx_HAL_Driver/Src/stm32h7xx_ll_usb.c ****   uint32_t USBx_BASE = (uint32_t)USBx;
 3964              		.loc 1 1593 21 view .LVU1256
 3965 004e 0027     		movs	r7, #0
 3966 0050 06E0     		b	.L249
 3967              	.L250:
1622:Drivers/STM32H7xx_HAL_Driver/Src/stm32h7xx_ll_usb.c ****                                                  USB_OTG_HCINTMSK_ACKM;
1623:Drivers/STM32H7xx_HAL_Driver/Src/stm32h7xx_ll_usb.c ****         }
1624:Drivers/STM32H7xx_HAL_Driver/Src/stm32h7xx_ll_usb.c ****       }
1625:Drivers/STM32H7xx_HAL_Driver/Src/stm32h7xx_ll_usb.c ****       break;
1626:Drivers/STM32H7xx_HAL_Driver/Src/stm32h7xx_ll_usb.c **** 
1627:Drivers/STM32H7xx_HAL_Driver/Src/stm32h7xx_ll_usb.c ****     case EP_TYPE_INTR:
1628:Drivers/STM32H7xx_HAL_Driver/Src/stm32h7xx_ll_usb.c ****       USBx_HC((uint32_t)ch_num)->HCINTMSK = USB_OTG_HCINTMSK_XFRCM  |
 3968              		.loc 1 1628 7 is_stmt 1 view .LVU1257
 3969              		.loc 1 1628 43 is_stmt 0 view .LVU1258
 3970 0052 40F29D62 		movw	r2, #1693
 3971 0056 DA60     		str	r2, [r3, #12]
1629:Drivers/STM32H7xx_HAL_Driver/Src/stm32h7xx_ll_usb.c ****                                             USB_OTG_HCINTMSK_STALLM |
1630:Drivers/STM32H7xx_HAL_Driver/Src/stm32h7xx_ll_usb.c ****                                             USB_OTG_HCINTMSK_TXERRM |
1631:Drivers/STM32H7xx_HAL_Driver/Src/stm32h7xx_ll_usb.c ****                                             USB_OTG_HCINTMSK_DTERRM |
1632:Drivers/STM32H7xx_HAL_Driver/Src/stm32h7xx_ll_usb.c ****                                             USB_OTG_HCINTMSK_NAKM   |
1633:Drivers/STM32H7xx_HAL_Driver/Src/stm32h7xx_ll_usb.c ****                                             USB_OTG_HCINTMSK_AHBERR |
1634:Drivers/STM32H7xx_HAL_Driver/Src/stm32h7xx_ll_usb.c ****                                             USB_OTG_HCINTMSK_FRMORM;
1635:Drivers/STM32H7xx_HAL_Driver/Src/stm32h7xx_ll_usb.c **** 
1636:Drivers/STM32H7xx_HAL_Driver/Src/stm32h7xx_ll_usb.c ****       if ((epnum & 0x80U) == 0x80U)
 3972              		.loc 1 1636 7 is_stmt 1 view .LVU1259
 3973              		.loc 1 1636 10 is_stmt 0 view .LVU1260
 3974 0058 19F0800F 		tst	r9, #128
 3975 005c 3DD1     		bne	.L266
1593:Drivers/STM32H7xx_HAL_Driver/Src/stm32h7xx_ll_usb.c ****   uint32_t USBx_BASE = (uint32_t)USBx;
 3976              		.loc 1 1593 21 view .LVU1261
 3977 005e 0027     		movs	r7, #0
ARM GAS  /var/folders/26/q55yrwgs1ql1lprjdslmzz800000gn/T//ccC08pEc.s 			page 118


 3978              	.L249:
 3979              	.LVL330:
1637:Drivers/STM32H7xx_HAL_Driver/Src/stm32h7xx_ll_usb.c ****       {
1638:Drivers/STM32H7xx_HAL_Driver/Src/stm32h7xx_ll_usb.c ****         USBx_HC((uint32_t)ch_num)->HCINTMSK |= USB_OTG_HCINTMSK_BBERRM;
1639:Drivers/STM32H7xx_HAL_Driver/Src/stm32h7xx_ll_usb.c ****       }
1640:Drivers/STM32H7xx_HAL_Driver/Src/stm32h7xx_ll_usb.c **** 
1641:Drivers/STM32H7xx_HAL_Driver/Src/stm32h7xx_ll_usb.c ****       break;
1642:Drivers/STM32H7xx_HAL_Driver/Src/stm32h7xx_ll_usb.c **** 
1643:Drivers/STM32H7xx_HAL_Driver/Src/stm32h7xx_ll_usb.c ****     case EP_TYPE_ISOC:
1644:Drivers/STM32H7xx_HAL_Driver/Src/stm32h7xx_ll_usb.c ****       USBx_HC((uint32_t)ch_num)->HCINTMSK = USB_OTG_HCINTMSK_XFRCM  |
1645:Drivers/STM32H7xx_HAL_Driver/Src/stm32h7xx_ll_usb.c ****                                             USB_OTG_HCINTMSK_ACKM   |
1646:Drivers/STM32H7xx_HAL_Driver/Src/stm32h7xx_ll_usb.c ****                                             USB_OTG_HCINTMSK_AHBERR |
1647:Drivers/STM32H7xx_HAL_Driver/Src/stm32h7xx_ll_usb.c ****                                             USB_OTG_HCINTMSK_FRMORM;
1648:Drivers/STM32H7xx_HAL_Driver/Src/stm32h7xx_ll_usb.c **** 
1649:Drivers/STM32H7xx_HAL_Driver/Src/stm32h7xx_ll_usb.c ****       if ((epnum & 0x80U) == 0x80U)
1650:Drivers/STM32H7xx_HAL_Driver/Src/stm32h7xx_ll_usb.c ****       {
1651:Drivers/STM32H7xx_HAL_Driver/Src/stm32h7xx_ll_usb.c ****         USBx_HC((uint32_t)ch_num)->HCINTMSK |= (USB_OTG_HCINTMSK_TXERRM | USB_OTG_HCINTMSK_BBERRM);
1652:Drivers/STM32H7xx_HAL_Driver/Src/stm32h7xx_ll_usb.c ****       }
1653:Drivers/STM32H7xx_HAL_Driver/Src/stm32h7xx_ll_usb.c ****       break;
1654:Drivers/STM32H7xx_HAL_Driver/Src/stm32h7xx_ll_usb.c **** 
1655:Drivers/STM32H7xx_HAL_Driver/Src/stm32h7xx_ll_usb.c ****     default:
1656:Drivers/STM32H7xx_HAL_Driver/Src/stm32h7xx_ll_usb.c ****       ret = HAL_ERROR;
1657:Drivers/STM32H7xx_HAL_Driver/Src/stm32h7xx_ll_usb.c ****       break;
1658:Drivers/STM32H7xx_HAL_Driver/Src/stm32h7xx_ll_usb.c ****   }
1659:Drivers/STM32H7xx_HAL_Driver/Src/stm32h7xx_ll_usb.c **** 
1660:Drivers/STM32H7xx_HAL_Driver/Src/stm32h7xx_ll_usb.c ****   /* Enable the top level host channel interrupt. */
1661:Drivers/STM32H7xx_HAL_Driver/Src/stm32h7xx_ll_usb.c ****   USBx_HOST->HAINTMSK |= 1UL << (ch_num & 0xFU);
 3980              		.loc 1 1661 3 is_stmt 1 view .LVU1262
 3981              		.loc 1 1661 23 is_stmt 0 view .LVU1263
 3982 0060 D0F81834 		ldr	r3, [r0, #1048]
 3983              		.loc 1 1661 41 view .LVU1264
 3984 0064 01F00F01 		and	r1, r1, #15
 3985              	.LVL331:
 3986              		.loc 1 1661 30 view .LVU1265
 3987 0068 0122     		movs	r2, #1
 3988 006a 02FA01F1 		lsl	r1, r2, r1
 3989              		.loc 1 1661 23 view .LVU1266
 3990 006e 1943     		orrs	r1, r1, r3
 3991 0070 C0F81814 		str	r1, [r0, #1048]
1662:Drivers/STM32H7xx_HAL_Driver/Src/stm32h7xx_ll_usb.c **** 
1663:Drivers/STM32H7xx_HAL_Driver/Src/stm32h7xx_ll_usb.c ****   /* Make sure host channel interrupts are enabled. */
1664:Drivers/STM32H7xx_HAL_Driver/Src/stm32h7xx_ll_usb.c ****   USBx->GINTMSK |= USB_OTG_GINTMSK_HCIM;
 3992              		.loc 1 1664 3 is_stmt 1 view .LVU1267
 3993              		.loc 1 1664 17 is_stmt 0 view .LVU1268
 3994 0074 8369     		ldr	r3, [r0, #24]
 3995 0076 43F00073 		orr	r3, r3, #33554432
 3996 007a 8361     		str	r3, [r0, #24]
1665:Drivers/STM32H7xx_HAL_Driver/Src/stm32h7xx_ll_usb.c **** 
1666:Drivers/STM32H7xx_HAL_Driver/Src/stm32h7xx_ll_usb.c ****   /* Program the HCCHAR register */
1667:Drivers/STM32H7xx_HAL_Driver/Src/stm32h7xx_ll_usb.c ****   if ((epnum & 0x80U) == 0x80U)
 3997              		.loc 1 1667 3 is_stmt 1 view .LVU1269
 3998              		.loc 1 1667 6 is_stmt 0 view .LVU1270
 3999 007c 19F0800F 		tst	r9, #128
 4000 0080 43D1     		bne	.L267
1668:Drivers/STM32H7xx_HAL_Driver/Src/stm32h7xx_ll_usb.c ****   {
1669:Drivers/STM32H7xx_HAL_Driver/Src/stm32h7xx_ll_usb.c ****     HCcharEpDir = (0x1U << 15) & USB_OTG_HCCHAR_EPDIR;
1670:Drivers/STM32H7xx_HAL_Driver/Src/stm32h7xx_ll_usb.c ****   }
ARM GAS  /var/folders/26/q55yrwgs1ql1lprjdslmzz800000gn/T//ccC08pEc.s 			page 119


1671:Drivers/STM32H7xx_HAL_Driver/Src/stm32h7xx_ll_usb.c ****   else
1672:Drivers/STM32H7xx_HAL_Driver/Src/stm32h7xx_ll_usb.c ****   {
1673:Drivers/STM32H7xx_HAL_Driver/Src/stm32h7xx_ll_usb.c ****     HCcharEpDir = 0U;
 4001              		.loc 1 1673 17 view .LVU1271
 4002 0082 4FF00008 		mov	r8, #0
 4003              	.L255:
 4004              	.LVL332:
1674:Drivers/STM32H7xx_HAL_Driver/Src/stm32h7xx_ll_usb.c ****   }
1675:Drivers/STM32H7xx_HAL_Driver/Src/stm32h7xx_ll_usb.c **** 
1676:Drivers/STM32H7xx_HAL_Driver/Src/stm32h7xx_ll_usb.c ****   HostCoreSpeed = USB_GetHostSpeed(USBx);
 4005              		.loc 1 1676 3 is_stmt 1 view .LVU1272
 4006              		.loc 1 1676 19 is_stmt 0 view .LVU1273
 4007 0086 FFF7FEFF 		bl	USB_GetHostSpeed
 4008              	.LVL333:
1677:Drivers/STM32H7xx_HAL_Driver/Src/stm32h7xx_ll_usb.c **** 
1678:Drivers/STM32H7xx_HAL_Driver/Src/stm32h7xx_ll_usb.c ****   /* LS device plugged to HUB */
1679:Drivers/STM32H7xx_HAL_Driver/Src/stm32h7xx_ll_usb.c ****   if ((speed == HPRT0_PRTSPD_LOW_SPEED) && (HostCoreSpeed != HPRT0_PRTSPD_LOW_SPEED))
 4009              		.loc 1 1679 3 is_stmt 1 view .LVU1274
 4010              		.loc 1 1679 41 is_stmt 0 view .LVU1275
 4011 008a 9DF82030 		ldrb	r3, [sp, #32]	@ zero_extendqisi2
 4012 008e 022B     		cmp	r3, #2
 4013 0090 14BF     		ite	ne
 4014 0092 0023     		movne	r3, #0
 4015 0094 0123     		moveq	r3, #1
 4016 0096 0228     		cmp	r0, #2
 4017 0098 08BF     		it	eq
 4018 009a 0023     		moveq	r3, #0
 4019              		.loc 1 1679 6 view .LVU1276
 4020 009c C3B3     		cbz	r3, .L263
1680:Drivers/STM32H7xx_HAL_Driver/Src/stm32h7xx_ll_usb.c ****   {
1681:Drivers/STM32H7xx_HAL_Driver/Src/stm32h7xx_ll_usb.c ****     HCcharLowSpeed = (0x1U << 17) & USB_OTG_HCCHAR_LSDEV;
 4021              		.loc 1 1681 20 view .LVU1277
 4022 009e 4FF40031 		mov	r1, #131072
 4023              	.L256:
 4024              	.LVL334:
1682:Drivers/STM32H7xx_HAL_Driver/Src/stm32h7xx_ll_usb.c ****   }
1683:Drivers/STM32H7xx_HAL_Driver/Src/stm32h7xx_ll_usb.c ****   else
1684:Drivers/STM32H7xx_HAL_Driver/Src/stm32h7xx_ll_usb.c ****   {
1685:Drivers/STM32H7xx_HAL_Driver/Src/stm32h7xx_ll_usb.c ****     HCcharLowSpeed = 0U;
1686:Drivers/STM32H7xx_HAL_Driver/Src/stm32h7xx_ll_usb.c ****   }
1687:Drivers/STM32H7xx_HAL_Driver/Src/stm32h7xx_ll_usb.c **** 
1688:Drivers/STM32H7xx_HAL_Driver/Src/stm32h7xx_ll_usb.c ****   USBx_HC((uint32_t)ch_num)->HCCHAR = (((uint32_t)dev_address << 22) & USB_OTG_HCCHAR_DAD) |
 4025              		.loc 1 1688 3 is_stmt 1 view .LVU1278
 4026              		.loc 1 1688 63 is_stmt 0 view .LVU1279
 4027 00a2 A305     		lsls	r3, r4, #22
 4028              		.loc 1 1688 70 view .LVU1280
 4029 00a4 03F0FE53 		and	r3, r3, #532676608
1689:Drivers/STM32H7xx_HAL_Driver/Src/stm32h7xx_ll_usb.c ****                                       ((((uint32_t)epnum & 0x7FU) << 11) & USB_OTG_HCCHAR_EPNUM) |
 4030              		.loc 1 1689 67 view .LVU1281
 4031 00a8 4FEAC929 		lsl	r9, r9, #11
 4032              		.loc 1 1689 74 view .LVU1282
 4033 00ac 09F4F049 		and	r9, r9, #30720
1688:Drivers/STM32H7xx_HAL_Driver/Src/stm32h7xx_ll_usb.c ****                                       ((((uint32_t)epnum & 0x7FU) << 11) & USB_OTG_HCCHAR_EPNUM) |
 4034              		.loc 1 1688 92 view .LVU1283
 4035 00b0 43EA0903 		orr	r3, r3, r9
1690:Drivers/STM32H7xx_HAL_Driver/Src/stm32h7xx_ll_usb.c ****                                       (((uint32_t)ep_type << 18) & USB_OTG_HCCHAR_EPTYP) |
 4036              		.loc 1 1690 59 view .LVU1284
ARM GAS  /var/folders/26/q55yrwgs1ql1lprjdslmzz800000gn/T//ccC08pEc.s 			page 120


 4037 00b4 AC04     		lsls	r4, r5, #18
 4038              		.loc 1 1690 66 view .LVU1285
 4039 00b6 04F44024 		and	r4, r4, #786432
1689:Drivers/STM32H7xx_HAL_Driver/Src/stm32h7xx_ll_usb.c ****                                       ((((uint32_t)epnum & 0x7FU) << 11) & USB_OTG_HCCHAR_EPNUM) |
 4040              		.loc 1 1689 98 view .LVU1286
 4041 00ba 2343     		orrs	r3, r3, r4
1691:Drivers/STM32H7xx_HAL_Driver/Src/stm32h7xx_ll_usb.c ****                                       ((uint32_t)mps & USB_OTG_HCCHAR_MPSIZ) | HCcharEpDir | HCchar
 4042              		.loc 1 1691 54 view .LVU1287
 4043 00bc BDF82820 		ldrh	r2, [sp, #40]
 4044 00c0 C2F30A02 		ubfx	r2, r2, #0, #11
1690:Drivers/STM32H7xx_HAL_Driver/Src/stm32h7xx_ll_usb.c ****                                       (((uint32_t)ep_type << 18) & USB_OTG_HCCHAR_EPTYP) |
 4045              		.loc 1 1690 90 view .LVU1288
 4046 00c4 1343     		orrs	r3, r3, r2
 4047              		.loc 1 1691 78 view .LVU1289
 4048 00c6 43EA0803 		orr	r3, r3, r8
 4049              		.loc 1 1691 92 view .LVU1290
 4050 00ca 0B43     		orrs	r3, r3, r1
1688:Drivers/STM32H7xx_HAL_Driver/Src/stm32h7xx_ll_usb.c ****                                       ((((uint32_t)epnum & 0x7FU) << 11) & USB_OTG_HCCHAR_EPNUM) |
 4051              		.loc 1 1688 37 view .LVU1291
 4052 00cc C6F80035 		str	r3, [r6, #1280]
1692:Drivers/STM32H7xx_HAL_Driver/Src/stm32h7xx_ll_usb.c **** 
1693:Drivers/STM32H7xx_HAL_Driver/Src/stm32h7xx_ll_usb.c ****   if (ep_type == EP_TYPE_INTR)
 4053              		.loc 1 1693 3 is_stmt 1 view .LVU1292
 4054              		.loc 1 1693 6 is_stmt 0 view .LVU1293
 4055 00d0 032D     		cmp	r5, #3
 4056 00d2 1FD0     		beq	.L268
 4057              	.L257:
1694:Drivers/STM32H7xx_HAL_Driver/Src/stm32h7xx_ll_usb.c ****   {
1695:Drivers/STM32H7xx_HAL_Driver/Src/stm32h7xx_ll_usb.c ****     USBx_HC((uint32_t)ch_num)->HCCHAR |= USB_OTG_HCCHAR_ODDFRM ;
1696:Drivers/STM32H7xx_HAL_Driver/Src/stm32h7xx_ll_usb.c ****   }
1697:Drivers/STM32H7xx_HAL_Driver/Src/stm32h7xx_ll_usb.c **** 
1698:Drivers/STM32H7xx_HAL_Driver/Src/stm32h7xx_ll_usb.c ****   return ret;
 4058              		.loc 1 1698 3 is_stmt 1 view .LVU1294
1699:Drivers/STM32H7xx_HAL_Driver/Src/stm32h7xx_ll_usb.c **** }
 4059              		.loc 1 1699 1 is_stmt 0 view .LVU1295
 4060 00d4 3846     		mov	r0, r7
 4061              	.LVL335:
 4062              		.loc 1 1699 1 view .LVU1296
 4063 00d6 BDE8F883 		pop	{r3, r4, r5, r6, r7, r8, r9, pc}
 4064              	.LVL336:
 4065              	.L266:
1638:Drivers/STM32H7xx_HAL_Driver/Src/stm32h7xx_ll_usb.c ****       }
 4066              		.loc 1 1638 9 is_stmt 1 view .LVU1297
1638:Drivers/STM32H7xx_HAL_Driver/Src/stm32h7xx_ll_usb.c ****       }
 4067              		.loc 1 1638 45 is_stmt 0 view .LVU1298
 4068 00da DA68     		ldr	r2, [r3, #12]
 4069 00dc 42F48072 		orr	r2, r2, #256
 4070 00e0 DA60     		str	r2, [r3, #12]
1593:Drivers/STM32H7xx_HAL_Driver/Src/stm32h7xx_ll_usb.c ****   uint32_t USBx_BASE = (uint32_t)USBx;
 4071              		.loc 1 1593 21 view .LVU1299
 4072 00e2 0027     		movs	r7, #0
 4073 00e4 BCE7     		b	.L249
 4074              	.L253:
1644:Drivers/STM32H7xx_HAL_Driver/Src/stm32h7xx_ll_usb.c ****                                             USB_OTG_HCINTMSK_ACKM   |
 4075              		.loc 1 1644 7 is_stmt 1 view .LVU1300
1644:Drivers/STM32H7xx_HAL_Driver/Src/stm32h7xx_ll_usb.c ****                                             USB_OTG_HCINTMSK_ACKM   |
 4076              		.loc 1 1644 43 is_stmt 0 view .LVU1301
ARM GAS  /var/folders/26/q55yrwgs1ql1lprjdslmzz800000gn/T//ccC08pEc.s 			page 121


 4077 00e6 40F22522 		movw	r2, #549
 4078 00ea DA60     		str	r2, [r3, #12]
1649:Drivers/STM32H7xx_HAL_Driver/Src/stm32h7xx_ll_usb.c ****       {
 4079              		.loc 1 1649 7 is_stmt 1 view .LVU1302
1649:Drivers/STM32H7xx_HAL_Driver/Src/stm32h7xx_ll_usb.c ****       {
 4080              		.loc 1 1649 10 is_stmt 0 view .LVU1303
 4081 00ec 19F0800F 		tst	r9, #128
 4082 00f0 01D1     		bne	.L269
1593:Drivers/STM32H7xx_HAL_Driver/Src/stm32h7xx_ll_usb.c ****   uint32_t USBx_BASE = (uint32_t)USBx;
 4083              		.loc 1 1593 21 view .LVU1304
 4084 00f2 0027     		movs	r7, #0
 4085 00f4 B4E7     		b	.L249
 4086              	.L269:
1651:Drivers/STM32H7xx_HAL_Driver/Src/stm32h7xx_ll_usb.c ****       }
 4087              		.loc 1 1651 9 is_stmt 1 view .LVU1305
1651:Drivers/STM32H7xx_HAL_Driver/Src/stm32h7xx_ll_usb.c ****       }
 4088              		.loc 1 1651 45 is_stmt 0 view .LVU1306
 4089 00f6 DA68     		ldr	r2, [r3, #12]
 4090 00f8 42F4C072 		orr	r2, r2, #384
 4091 00fc DA60     		str	r2, [r3, #12]
1593:Drivers/STM32H7xx_HAL_Driver/Src/stm32h7xx_ll_usb.c ****   uint32_t USBx_BASE = (uint32_t)USBx;
 4092              		.loc 1 1593 21 view .LVU1307
 4093 00fe 0027     		movs	r7, #0
 4094 0100 AEE7     		b	.L249
 4095              	.L258:
1602:Drivers/STM32H7xx_HAL_Driver/Src/stm32h7xx_ll_usb.c ****   {
 4096              		.loc 1 1602 3 view .LVU1308
 4097 0102 0127     		movs	r7, #1
 4098 0104 ACE7     		b	.L249
 4099              	.L259:
1593:Drivers/STM32H7xx_HAL_Driver/Src/stm32h7xx_ll_usb.c ****   uint32_t USBx_BASE = (uint32_t)USBx;
 4100              		.loc 1 1593 21 view .LVU1309
 4101 0106 0027     		movs	r7, #0
 4102 0108 AAE7     		b	.L249
 4103              	.LVL337:
 4104              	.L267:
1669:Drivers/STM32H7xx_HAL_Driver/Src/stm32h7xx_ll_usb.c ****   }
 4105              		.loc 1 1669 17 view .LVU1310
 4106 010a 4FF40048 		mov	r8, #32768
 4107 010e BAE7     		b	.L255
 4108              	.LVL338:
 4109              	.L263:
1685:Drivers/STM32H7xx_HAL_Driver/Src/stm32h7xx_ll_usb.c ****   }
 4110              		.loc 1 1685 20 view .LVU1311
 4111 0110 0021     		movs	r1, #0
 4112 0112 C6E7     		b	.L256
 4113              	.LVL339:
 4114              	.L268:
1695:Drivers/STM32H7xx_HAL_Driver/Src/stm32h7xx_ll_usb.c ****   }
 4115              		.loc 1 1695 5 is_stmt 1 view .LVU1312
1695:Drivers/STM32H7xx_HAL_Driver/Src/stm32h7xx_ll_usb.c ****   }
 4116              		.loc 1 1695 39 is_stmt 0 view .LVU1313
 4117 0114 D6F80035 		ldr	r3, [r6, #1280]
 4118 0118 43F00053 		orr	r3, r3, #536870912
 4119 011c C6F80035 		str	r3, [r6, #1280]
 4120 0120 D8E7     		b	.L257
 4121              		.cfi_endproc
ARM GAS  /var/folders/26/q55yrwgs1ql1lprjdslmzz800000gn/T//ccC08pEc.s 			page 122


 4122              	.LFE184:
 4124              		.section	.text.USB_HC_ReadInterrupt,"ax",%progbits
 4125              		.align	1
 4126              		.global	USB_HC_ReadInterrupt
 4127              		.syntax unified
 4128              		.thumb
 4129              		.thumb_func
 4131              	USB_HC_ReadInterrupt:
 4132              	.LVL340:
 4133              	.LFB186:
1700:Drivers/STM32H7xx_HAL_Driver/Src/stm32h7xx_ll_usb.c **** 
1701:Drivers/STM32H7xx_HAL_Driver/Src/stm32h7xx_ll_usb.c **** /**
1702:Drivers/STM32H7xx_HAL_Driver/Src/stm32h7xx_ll_usb.c ****   * @brief  Start a transfer over a host channel
1703:Drivers/STM32H7xx_HAL_Driver/Src/stm32h7xx_ll_usb.c ****   * @param  USBx  Selected device
1704:Drivers/STM32H7xx_HAL_Driver/Src/stm32h7xx_ll_usb.c ****   * @param  hc  pointer to host channel structure
1705:Drivers/STM32H7xx_HAL_Driver/Src/stm32h7xx_ll_usb.c ****   * @param  dma USB dma enabled or disabled
1706:Drivers/STM32H7xx_HAL_Driver/Src/stm32h7xx_ll_usb.c ****   *          This parameter can be one of these values:
1707:Drivers/STM32H7xx_HAL_Driver/Src/stm32h7xx_ll_usb.c ****   *           0 : DMA feature not used
1708:Drivers/STM32H7xx_HAL_Driver/Src/stm32h7xx_ll_usb.c ****   *           1 : DMA feature used
1709:Drivers/STM32H7xx_HAL_Driver/Src/stm32h7xx_ll_usb.c ****   * @retval HAL state
1710:Drivers/STM32H7xx_HAL_Driver/Src/stm32h7xx_ll_usb.c ****   */
1711:Drivers/STM32H7xx_HAL_Driver/Src/stm32h7xx_ll_usb.c **** HAL_StatusTypeDef USB_HC_StartXfer(USB_OTG_GlobalTypeDef *USBx, USB_OTG_HCTypeDef *hc, uint8_t dma)
1712:Drivers/STM32H7xx_HAL_Driver/Src/stm32h7xx_ll_usb.c **** {
1713:Drivers/STM32H7xx_HAL_Driver/Src/stm32h7xx_ll_usb.c ****   uint32_t USBx_BASE = (uint32_t)USBx;
1714:Drivers/STM32H7xx_HAL_Driver/Src/stm32h7xx_ll_usb.c ****   uint32_t ch_num = (uint32_t)hc->ch_num;
1715:Drivers/STM32H7xx_HAL_Driver/Src/stm32h7xx_ll_usb.c ****   __IO uint32_t tmpreg;
1716:Drivers/STM32H7xx_HAL_Driver/Src/stm32h7xx_ll_usb.c ****   uint8_t  is_oddframe;
1717:Drivers/STM32H7xx_HAL_Driver/Src/stm32h7xx_ll_usb.c ****   uint16_t len_words;
1718:Drivers/STM32H7xx_HAL_Driver/Src/stm32h7xx_ll_usb.c ****   uint16_t num_packets;
1719:Drivers/STM32H7xx_HAL_Driver/Src/stm32h7xx_ll_usb.c ****   uint16_t max_hc_pkt_count = 256U;
1720:Drivers/STM32H7xx_HAL_Driver/Src/stm32h7xx_ll_usb.c **** 
1721:Drivers/STM32H7xx_HAL_Driver/Src/stm32h7xx_ll_usb.c ****   if (((USBx->CID & (0x1U << 8)) != 0U) && (hc->speed == USBH_HS_SPEED))
1722:Drivers/STM32H7xx_HAL_Driver/Src/stm32h7xx_ll_usb.c ****   {
1723:Drivers/STM32H7xx_HAL_Driver/Src/stm32h7xx_ll_usb.c ****     /* in DMA mode host Core automatically issues ping  in case of NYET/NAK */
1724:Drivers/STM32H7xx_HAL_Driver/Src/stm32h7xx_ll_usb.c ****     if ((dma == 1U) && ((hc->ep_type == EP_TYPE_CTRL) || (hc->ep_type == EP_TYPE_BULK)))
1725:Drivers/STM32H7xx_HAL_Driver/Src/stm32h7xx_ll_usb.c ****     {
1726:Drivers/STM32H7xx_HAL_Driver/Src/stm32h7xx_ll_usb.c ****       USBx_HC((uint32_t)ch_num)->HCINTMSK &= ~(USB_OTG_HCINTMSK_NYET |
1727:Drivers/STM32H7xx_HAL_Driver/Src/stm32h7xx_ll_usb.c ****                                                USB_OTG_HCINTMSK_ACKM |
1728:Drivers/STM32H7xx_HAL_Driver/Src/stm32h7xx_ll_usb.c ****                                                USB_OTG_HCINTMSK_NAKM);
1729:Drivers/STM32H7xx_HAL_Driver/Src/stm32h7xx_ll_usb.c ****     }
1730:Drivers/STM32H7xx_HAL_Driver/Src/stm32h7xx_ll_usb.c **** 
1731:Drivers/STM32H7xx_HAL_Driver/Src/stm32h7xx_ll_usb.c ****     if ((dma == 0U) && (hc->do_ping == 1U))
1732:Drivers/STM32H7xx_HAL_Driver/Src/stm32h7xx_ll_usb.c ****     {
1733:Drivers/STM32H7xx_HAL_Driver/Src/stm32h7xx_ll_usb.c ****       (void)USB_DoPing(USBx, hc->ch_num);
1734:Drivers/STM32H7xx_HAL_Driver/Src/stm32h7xx_ll_usb.c ****       return HAL_OK;
1735:Drivers/STM32H7xx_HAL_Driver/Src/stm32h7xx_ll_usb.c ****     }
1736:Drivers/STM32H7xx_HAL_Driver/Src/stm32h7xx_ll_usb.c **** 
1737:Drivers/STM32H7xx_HAL_Driver/Src/stm32h7xx_ll_usb.c ****   }
1738:Drivers/STM32H7xx_HAL_Driver/Src/stm32h7xx_ll_usb.c **** 
1739:Drivers/STM32H7xx_HAL_Driver/Src/stm32h7xx_ll_usb.c ****   /* Compute the expected number of packets associated to the transfer */
1740:Drivers/STM32H7xx_HAL_Driver/Src/stm32h7xx_ll_usb.c ****   if (hc->xfer_len > 0U)
1741:Drivers/STM32H7xx_HAL_Driver/Src/stm32h7xx_ll_usb.c ****   {
1742:Drivers/STM32H7xx_HAL_Driver/Src/stm32h7xx_ll_usb.c ****     num_packets = (uint16_t)((hc->xfer_len + hc->max_packet - 1U) / hc->max_packet);
1743:Drivers/STM32H7xx_HAL_Driver/Src/stm32h7xx_ll_usb.c **** 
1744:Drivers/STM32H7xx_HAL_Driver/Src/stm32h7xx_ll_usb.c ****     if (num_packets > max_hc_pkt_count)
1745:Drivers/STM32H7xx_HAL_Driver/Src/stm32h7xx_ll_usb.c ****     {
1746:Drivers/STM32H7xx_HAL_Driver/Src/stm32h7xx_ll_usb.c ****       num_packets = max_hc_pkt_count;
ARM GAS  /var/folders/26/q55yrwgs1ql1lprjdslmzz800000gn/T//ccC08pEc.s 			page 123


1747:Drivers/STM32H7xx_HAL_Driver/Src/stm32h7xx_ll_usb.c ****       hc->XferSize = (uint32_t)num_packets * hc->max_packet;
1748:Drivers/STM32H7xx_HAL_Driver/Src/stm32h7xx_ll_usb.c ****     }
1749:Drivers/STM32H7xx_HAL_Driver/Src/stm32h7xx_ll_usb.c ****   }
1750:Drivers/STM32H7xx_HAL_Driver/Src/stm32h7xx_ll_usb.c ****   else
1751:Drivers/STM32H7xx_HAL_Driver/Src/stm32h7xx_ll_usb.c ****   {
1752:Drivers/STM32H7xx_HAL_Driver/Src/stm32h7xx_ll_usb.c ****     num_packets = 1U;
1753:Drivers/STM32H7xx_HAL_Driver/Src/stm32h7xx_ll_usb.c ****   }
1754:Drivers/STM32H7xx_HAL_Driver/Src/stm32h7xx_ll_usb.c **** 
1755:Drivers/STM32H7xx_HAL_Driver/Src/stm32h7xx_ll_usb.c ****   /*
1756:Drivers/STM32H7xx_HAL_Driver/Src/stm32h7xx_ll_usb.c ****    * For IN channel HCTSIZ.XferSize is expected to be an integer multiple of
1757:Drivers/STM32H7xx_HAL_Driver/Src/stm32h7xx_ll_usb.c ****    * max_packet size.
1758:Drivers/STM32H7xx_HAL_Driver/Src/stm32h7xx_ll_usb.c ****    */
1759:Drivers/STM32H7xx_HAL_Driver/Src/stm32h7xx_ll_usb.c ****   if (hc->ep_is_in != 0U)
1760:Drivers/STM32H7xx_HAL_Driver/Src/stm32h7xx_ll_usb.c ****   {
1761:Drivers/STM32H7xx_HAL_Driver/Src/stm32h7xx_ll_usb.c ****     hc->XferSize = (uint32_t)num_packets * hc->max_packet;
1762:Drivers/STM32H7xx_HAL_Driver/Src/stm32h7xx_ll_usb.c ****   }
1763:Drivers/STM32H7xx_HAL_Driver/Src/stm32h7xx_ll_usb.c ****   else
1764:Drivers/STM32H7xx_HAL_Driver/Src/stm32h7xx_ll_usb.c ****   {
1765:Drivers/STM32H7xx_HAL_Driver/Src/stm32h7xx_ll_usb.c ****     hc->XferSize = hc->xfer_len;
1766:Drivers/STM32H7xx_HAL_Driver/Src/stm32h7xx_ll_usb.c ****   }
1767:Drivers/STM32H7xx_HAL_Driver/Src/stm32h7xx_ll_usb.c **** 
1768:Drivers/STM32H7xx_HAL_Driver/Src/stm32h7xx_ll_usb.c ****   /* Initialize the HCTSIZn register */
1769:Drivers/STM32H7xx_HAL_Driver/Src/stm32h7xx_ll_usb.c ****   USBx_HC(ch_num)->HCTSIZ = (hc->XferSize & USB_OTG_HCTSIZ_XFRSIZ) |
1770:Drivers/STM32H7xx_HAL_Driver/Src/stm32h7xx_ll_usb.c ****                             (((uint32_t)num_packets << 19) & USB_OTG_HCTSIZ_PKTCNT) |
1771:Drivers/STM32H7xx_HAL_Driver/Src/stm32h7xx_ll_usb.c ****                             (((uint32_t)hc->data_pid << 29) & USB_OTG_HCTSIZ_DPID);
1772:Drivers/STM32H7xx_HAL_Driver/Src/stm32h7xx_ll_usb.c **** 
1773:Drivers/STM32H7xx_HAL_Driver/Src/stm32h7xx_ll_usb.c ****   if (dma != 0U)
1774:Drivers/STM32H7xx_HAL_Driver/Src/stm32h7xx_ll_usb.c ****   {
1775:Drivers/STM32H7xx_HAL_Driver/Src/stm32h7xx_ll_usb.c ****     /* xfer_buff MUST be 32-bits aligned */
1776:Drivers/STM32H7xx_HAL_Driver/Src/stm32h7xx_ll_usb.c ****     USBx_HC(ch_num)->HCDMA = (uint32_t)hc->xfer_buff;
1777:Drivers/STM32H7xx_HAL_Driver/Src/stm32h7xx_ll_usb.c ****   }
1778:Drivers/STM32H7xx_HAL_Driver/Src/stm32h7xx_ll_usb.c **** 
1779:Drivers/STM32H7xx_HAL_Driver/Src/stm32h7xx_ll_usb.c ****   is_oddframe = (((uint32_t)USBx_HOST->HFNUM & 0x01U) != 0U) ? 0U : 1U;
1780:Drivers/STM32H7xx_HAL_Driver/Src/stm32h7xx_ll_usb.c ****   USBx_HC(ch_num)->HCCHAR &= ~USB_OTG_HCCHAR_ODDFRM;
1781:Drivers/STM32H7xx_HAL_Driver/Src/stm32h7xx_ll_usb.c ****   USBx_HC(ch_num)->HCCHAR |= (uint32_t)is_oddframe << 29;
1782:Drivers/STM32H7xx_HAL_Driver/Src/stm32h7xx_ll_usb.c **** 
1783:Drivers/STM32H7xx_HAL_Driver/Src/stm32h7xx_ll_usb.c ****   /* Set host channel enable */
1784:Drivers/STM32H7xx_HAL_Driver/Src/stm32h7xx_ll_usb.c ****   tmpreg = USBx_HC(ch_num)->HCCHAR;
1785:Drivers/STM32H7xx_HAL_Driver/Src/stm32h7xx_ll_usb.c ****   tmpreg &= ~USB_OTG_HCCHAR_CHDIS;
1786:Drivers/STM32H7xx_HAL_Driver/Src/stm32h7xx_ll_usb.c **** 
1787:Drivers/STM32H7xx_HAL_Driver/Src/stm32h7xx_ll_usb.c ****   /* make sure to set the correct ep direction */
1788:Drivers/STM32H7xx_HAL_Driver/Src/stm32h7xx_ll_usb.c ****   if (hc->ep_is_in != 0U)
1789:Drivers/STM32H7xx_HAL_Driver/Src/stm32h7xx_ll_usb.c ****   {
1790:Drivers/STM32H7xx_HAL_Driver/Src/stm32h7xx_ll_usb.c ****     tmpreg |= USB_OTG_HCCHAR_EPDIR;
1791:Drivers/STM32H7xx_HAL_Driver/Src/stm32h7xx_ll_usb.c ****   }
1792:Drivers/STM32H7xx_HAL_Driver/Src/stm32h7xx_ll_usb.c ****   else
1793:Drivers/STM32H7xx_HAL_Driver/Src/stm32h7xx_ll_usb.c ****   {
1794:Drivers/STM32H7xx_HAL_Driver/Src/stm32h7xx_ll_usb.c ****     tmpreg &= ~USB_OTG_HCCHAR_EPDIR;
1795:Drivers/STM32H7xx_HAL_Driver/Src/stm32h7xx_ll_usb.c ****   }
1796:Drivers/STM32H7xx_HAL_Driver/Src/stm32h7xx_ll_usb.c ****   tmpreg |= USB_OTG_HCCHAR_CHENA;
1797:Drivers/STM32H7xx_HAL_Driver/Src/stm32h7xx_ll_usb.c ****   USBx_HC(ch_num)->HCCHAR = tmpreg;
1798:Drivers/STM32H7xx_HAL_Driver/Src/stm32h7xx_ll_usb.c **** 
1799:Drivers/STM32H7xx_HAL_Driver/Src/stm32h7xx_ll_usb.c ****   if (dma != 0U) /* dma mode */
1800:Drivers/STM32H7xx_HAL_Driver/Src/stm32h7xx_ll_usb.c ****   {
1801:Drivers/STM32H7xx_HAL_Driver/Src/stm32h7xx_ll_usb.c ****     return HAL_OK;
1802:Drivers/STM32H7xx_HAL_Driver/Src/stm32h7xx_ll_usb.c ****   }
1803:Drivers/STM32H7xx_HAL_Driver/Src/stm32h7xx_ll_usb.c **** 
ARM GAS  /var/folders/26/q55yrwgs1ql1lprjdslmzz800000gn/T//ccC08pEc.s 			page 124


1804:Drivers/STM32H7xx_HAL_Driver/Src/stm32h7xx_ll_usb.c ****   if ((hc->ep_is_in == 0U) && (hc->xfer_len > 0U))
1805:Drivers/STM32H7xx_HAL_Driver/Src/stm32h7xx_ll_usb.c ****   {
1806:Drivers/STM32H7xx_HAL_Driver/Src/stm32h7xx_ll_usb.c ****     switch (hc->ep_type)
1807:Drivers/STM32H7xx_HAL_Driver/Src/stm32h7xx_ll_usb.c ****     {
1808:Drivers/STM32H7xx_HAL_Driver/Src/stm32h7xx_ll_usb.c ****       /* Non periodic transfer */
1809:Drivers/STM32H7xx_HAL_Driver/Src/stm32h7xx_ll_usb.c ****       case EP_TYPE_CTRL:
1810:Drivers/STM32H7xx_HAL_Driver/Src/stm32h7xx_ll_usb.c ****       case EP_TYPE_BULK:
1811:Drivers/STM32H7xx_HAL_Driver/Src/stm32h7xx_ll_usb.c **** 
1812:Drivers/STM32H7xx_HAL_Driver/Src/stm32h7xx_ll_usb.c ****         len_words = (uint16_t)((hc->xfer_len + 3U) / 4U);
1813:Drivers/STM32H7xx_HAL_Driver/Src/stm32h7xx_ll_usb.c **** 
1814:Drivers/STM32H7xx_HAL_Driver/Src/stm32h7xx_ll_usb.c ****         /* check if there is enough space in FIFO space */
1815:Drivers/STM32H7xx_HAL_Driver/Src/stm32h7xx_ll_usb.c ****         if (len_words > (USBx->HNPTXSTS & 0xFFFFU))
1816:Drivers/STM32H7xx_HAL_Driver/Src/stm32h7xx_ll_usb.c ****         {
1817:Drivers/STM32H7xx_HAL_Driver/Src/stm32h7xx_ll_usb.c ****           /* need to process data in nptxfempty interrupt */
1818:Drivers/STM32H7xx_HAL_Driver/Src/stm32h7xx_ll_usb.c ****           USBx->GINTMSK |= USB_OTG_GINTMSK_NPTXFEM;
1819:Drivers/STM32H7xx_HAL_Driver/Src/stm32h7xx_ll_usb.c ****         }
1820:Drivers/STM32H7xx_HAL_Driver/Src/stm32h7xx_ll_usb.c ****         break;
1821:Drivers/STM32H7xx_HAL_Driver/Src/stm32h7xx_ll_usb.c **** 
1822:Drivers/STM32H7xx_HAL_Driver/Src/stm32h7xx_ll_usb.c ****       /* Periodic transfer */
1823:Drivers/STM32H7xx_HAL_Driver/Src/stm32h7xx_ll_usb.c ****       case EP_TYPE_INTR:
1824:Drivers/STM32H7xx_HAL_Driver/Src/stm32h7xx_ll_usb.c ****       case EP_TYPE_ISOC:
1825:Drivers/STM32H7xx_HAL_Driver/Src/stm32h7xx_ll_usb.c ****         len_words = (uint16_t)((hc->xfer_len + 3U) / 4U);
1826:Drivers/STM32H7xx_HAL_Driver/Src/stm32h7xx_ll_usb.c ****         /* check if there is enough space in FIFO space */
1827:Drivers/STM32H7xx_HAL_Driver/Src/stm32h7xx_ll_usb.c ****         if (len_words > (USBx_HOST->HPTXSTS & 0xFFFFU)) /* split the transfer */
1828:Drivers/STM32H7xx_HAL_Driver/Src/stm32h7xx_ll_usb.c ****         {
1829:Drivers/STM32H7xx_HAL_Driver/Src/stm32h7xx_ll_usb.c ****           /* need to process data in ptxfempty interrupt */
1830:Drivers/STM32H7xx_HAL_Driver/Src/stm32h7xx_ll_usb.c ****           USBx->GINTMSK |= USB_OTG_GINTMSK_PTXFEM;
1831:Drivers/STM32H7xx_HAL_Driver/Src/stm32h7xx_ll_usb.c ****         }
1832:Drivers/STM32H7xx_HAL_Driver/Src/stm32h7xx_ll_usb.c ****         break;
1833:Drivers/STM32H7xx_HAL_Driver/Src/stm32h7xx_ll_usb.c **** 
1834:Drivers/STM32H7xx_HAL_Driver/Src/stm32h7xx_ll_usb.c ****       default:
1835:Drivers/STM32H7xx_HAL_Driver/Src/stm32h7xx_ll_usb.c ****         break;
1836:Drivers/STM32H7xx_HAL_Driver/Src/stm32h7xx_ll_usb.c ****     }
1837:Drivers/STM32H7xx_HAL_Driver/Src/stm32h7xx_ll_usb.c **** 
1838:Drivers/STM32H7xx_HAL_Driver/Src/stm32h7xx_ll_usb.c ****     /* Write packet into the Tx FIFO. */
1839:Drivers/STM32H7xx_HAL_Driver/Src/stm32h7xx_ll_usb.c ****     (void)USB_WritePacket(USBx, hc->xfer_buff, hc->ch_num, (uint16_t)hc->xfer_len, 0);
1840:Drivers/STM32H7xx_HAL_Driver/Src/stm32h7xx_ll_usb.c ****   }
1841:Drivers/STM32H7xx_HAL_Driver/Src/stm32h7xx_ll_usb.c **** 
1842:Drivers/STM32H7xx_HAL_Driver/Src/stm32h7xx_ll_usb.c ****   return HAL_OK;
1843:Drivers/STM32H7xx_HAL_Driver/Src/stm32h7xx_ll_usb.c **** }
1844:Drivers/STM32H7xx_HAL_Driver/Src/stm32h7xx_ll_usb.c **** 
1845:Drivers/STM32H7xx_HAL_Driver/Src/stm32h7xx_ll_usb.c **** /**
1846:Drivers/STM32H7xx_HAL_Driver/Src/stm32h7xx_ll_usb.c ****   * @brief Read all host channel interrupts status
1847:Drivers/STM32H7xx_HAL_Driver/Src/stm32h7xx_ll_usb.c ****   * @param  USBx  Selected device
1848:Drivers/STM32H7xx_HAL_Driver/Src/stm32h7xx_ll_usb.c ****   * @retval HAL state
1849:Drivers/STM32H7xx_HAL_Driver/Src/stm32h7xx_ll_usb.c ****   */
1850:Drivers/STM32H7xx_HAL_Driver/Src/stm32h7xx_ll_usb.c **** uint32_t USB_HC_ReadInterrupt(USB_OTG_GlobalTypeDef *USBx)
1851:Drivers/STM32H7xx_HAL_Driver/Src/stm32h7xx_ll_usb.c **** {
 4134              		.loc 1 1851 1 is_stmt 1 view -0
 4135              		.cfi_startproc
 4136              		@ args = 0, pretend = 0, frame = 0
 4137              		@ frame_needed = 0, uses_anonymous_args = 0
 4138              		@ link register save eliminated.
1852:Drivers/STM32H7xx_HAL_Driver/Src/stm32h7xx_ll_usb.c ****   uint32_t USBx_BASE = (uint32_t)USBx;
 4139              		.loc 1 1852 3 view .LVU1315
1853:Drivers/STM32H7xx_HAL_Driver/Src/stm32h7xx_ll_usb.c **** 
1854:Drivers/STM32H7xx_HAL_Driver/Src/stm32h7xx_ll_usb.c ****   return ((USBx_HOST->HAINT) & 0xFFFFU);
ARM GAS  /var/folders/26/q55yrwgs1ql1lprjdslmzz800000gn/T//ccC08pEc.s 			page 125


 4140              		.loc 1 1854 3 view .LVU1316
 4141              		.loc 1 1854 12 is_stmt 0 view .LVU1317
 4142 0000 00F58060 		add	r0, r0, #1024
 4143              	.LVL341:
 4144              		.loc 1 1854 21 view .LVU1318
 4145 0004 4069     		ldr	r0, [r0, #20]
 4146              	.LVL342:
1855:Drivers/STM32H7xx_HAL_Driver/Src/stm32h7xx_ll_usb.c **** }
 4147              		.loc 1 1855 1 view .LVU1319
 4148 0006 80B2     		uxth	r0, r0
 4149 0008 7047     		bx	lr
 4150              		.cfi_endproc
 4151              	.LFE186:
 4153              		.section	.text.USB_HC_Halt,"ax",%progbits
 4154              		.align	1
 4155              		.global	USB_HC_Halt
 4156              		.syntax unified
 4157              		.thumb
 4158              		.thumb_func
 4160              	USB_HC_Halt:
 4161              	.LVL343:
 4162              	.LFB187:
1856:Drivers/STM32H7xx_HAL_Driver/Src/stm32h7xx_ll_usb.c **** 
1857:Drivers/STM32H7xx_HAL_Driver/Src/stm32h7xx_ll_usb.c **** /**
1858:Drivers/STM32H7xx_HAL_Driver/Src/stm32h7xx_ll_usb.c ****   * @brief  Halt a host channel
1859:Drivers/STM32H7xx_HAL_Driver/Src/stm32h7xx_ll_usb.c ****   * @param  USBx  Selected device
1860:Drivers/STM32H7xx_HAL_Driver/Src/stm32h7xx_ll_usb.c ****   * @param  hc_num  Host Channel number
1861:Drivers/STM32H7xx_HAL_Driver/Src/stm32h7xx_ll_usb.c ****   *         This parameter can be a value from 1 to 15
1862:Drivers/STM32H7xx_HAL_Driver/Src/stm32h7xx_ll_usb.c ****   * @retval HAL state
1863:Drivers/STM32H7xx_HAL_Driver/Src/stm32h7xx_ll_usb.c ****   */
1864:Drivers/STM32H7xx_HAL_Driver/Src/stm32h7xx_ll_usb.c **** HAL_StatusTypeDef USB_HC_Halt(USB_OTG_GlobalTypeDef *USBx, uint8_t hc_num)
1865:Drivers/STM32H7xx_HAL_Driver/Src/stm32h7xx_ll_usb.c **** {
 4163              		.loc 1 1865 1 is_stmt 1 view -0
 4164              		.cfi_startproc
 4165              		@ args = 0, pretend = 0, frame = 0
 4166              		@ frame_needed = 0, uses_anonymous_args = 0
 4167              		@ link register save eliminated.
 4168              		.loc 1 1865 1 is_stmt 0 view .LVU1321
 4169 0000 10B4     		push	{r4}
 4170              	.LCFI49:
 4171              		.cfi_def_cfa_offset 4
 4172              		.cfi_offset 4, -4
1866:Drivers/STM32H7xx_HAL_Driver/Src/stm32h7xx_ll_usb.c ****   uint32_t USBx_BASE = (uint32_t)USBx;
 4173              		.loc 1 1866 3 is_stmt 1 view .LVU1322
 4174              	.LVL344:
1867:Drivers/STM32H7xx_HAL_Driver/Src/stm32h7xx_ll_usb.c ****   uint32_t hcnum = (uint32_t)hc_num;
 4175              		.loc 1 1867 3 view .LVU1323
1868:Drivers/STM32H7xx_HAL_Driver/Src/stm32h7xx_ll_usb.c ****   uint32_t count = 0U;
 4176              		.loc 1 1868 3 view .LVU1324
1869:Drivers/STM32H7xx_HAL_Driver/Src/stm32h7xx_ll_usb.c ****   uint32_t HcEpType = (USBx_HC(hcnum)->HCCHAR & USB_OTG_HCCHAR_EPTYP) >> 18;
 4177              		.loc 1 1869 3 view .LVU1325
 4178              		.loc 1 1869 24 is_stmt 0 view .LVU1326
 4179 0002 00EB4111 		add	r1, r0, r1, lsl #5
 4180              	.LVL345:
 4181              		.loc 1 1869 24 view .LVU1327
 4182 0006 01F5A06C 		add	ip, r1, #1280
 4183              		.loc 1 1869 38 view .LVU1328
ARM GAS  /var/folders/26/q55yrwgs1ql1lprjdslmzz800000gn/T//ccC08pEc.s 			page 126


 4184 000a D1F80035 		ldr	r3, [r1, #1280]
 4185              		.loc 1 1869 12 view .LVU1329
 4186 000e C3F38143 		ubfx	r3, r3, #18, #2
 4187              	.LVL346:
1870:Drivers/STM32H7xx_HAL_Driver/Src/stm32h7xx_ll_usb.c ****   uint32_t ChannelEna = (USBx_HC(hcnum)->HCCHAR & USB_OTG_HCCHAR_CHENA) >> 31;
 4188              		.loc 1 1870 3 is_stmt 1 view .LVU1330
 4189              		.loc 1 1870 40 is_stmt 0 view .LVU1331
 4190 0012 D1F80025 		ldr	r2, [r1, #1280]
 4191              	.LVL347:
1871:Drivers/STM32H7xx_HAL_Driver/Src/stm32h7xx_ll_usb.c **** 
1872:Drivers/STM32H7xx_HAL_Driver/Src/stm32h7xx_ll_usb.c ****   if (((USBx->GAHBCFG & USB_OTG_GAHBCFG_DMAEN) == USB_OTG_GAHBCFG_DMAEN) &&
 4192              		.loc 1 1872 3 is_stmt 1 view .LVU1332
 4193              		.loc 1 1872 13 is_stmt 0 view .LVU1333
 4194 0016 8468     		ldr	r4, [r0, #8]
 4195              		.loc 1 1872 6 view .LVU1334
 4196 0018 14F0200F 		tst	r4, #32
 4197 001c 02D0     		beq	.L272
 4198 001e D20F     		lsrs	r2, r2, #31
 4199              	.LVL348:
 4200              		.loc 1 1872 74 discriminator 1 view .LVU1335
 4201 0020 002A     		cmp	r2, #0
 4202 0022 5FD0     		beq	.L273
 4203              	.LVL349:
 4204              	.L272:
1873:Drivers/STM32H7xx_HAL_Driver/Src/stm32h7xx_ll_usb.c ****       (ChannelEna == 0U))
1874:Drivers/STM32H7xx_HAL_Driver/Src/stm32h7xx_ll_usb.c ****   {
1875:Drivers/STM32H7xx_HAL_Driver/Src/stm32h7xx_ll_usb.c ****     return HAL_OK;
1876:Drivers/STM32H7xx_HAL_Driver/Src/stm32h7xx_ll_usb.c ****   }
1877:Drivers/STM32H7xx_HAL_Driver/Src/stm32h7xx_ll_usb.c **** 
1878:Drivers/STM32H7xx_HAL_Driver/Src/stm32h7xx_ll_usb.c ****   /* Check for space in the request queue to issue the halt. */
1879:Drivers/STM32H7xx_HAL_Driver/Src/stm32h7xx_ll_usb.c ****   if ((HcEpType == HCCHAR_CTRL) || (HcEpType == HCCHAR_BULK))
 4205              		.loc 1 1879 3 is_stmt 1 view .LVU1336
 4206              		.loc 1 1879 6 is_stmt 0 view .LVU1337
 4207 0024 022B     		cmp	r3, #2
 4208 0026 18BF     		it	ne
 4209 0028 002B     		cmpne	r3, #0
 4210 002a 2FD1     		bne	.L274
1880:Drivers/STM32H7xx_HAL_Driver/Src/stm32h7xx_ll_usb.c ****   {
1881:Drivers/STM32H7xx_HAL_Driver/Src/stm32h7xx_ll_usb.c ****     USBx_HC(hcnum)->HCCHAR |= USB_OTG_HCCHAR_CHDIS;
 4211              		.loc 1 1881 5 is_stmt 1 view .LVU1338
 4212              		.loc 1 1881 28 is_stmt 0 view .LVU1339
 4213 002c D1F80035 		ldr	r3, [r1, #1280]
 4214              	.LVL350:
 4215              		.loc 1 1881 28 view .LVU1340
 4216 0030 43F08043 		orr	r3, r3, #1073741824
 4217 0034 C1F80035 		str	r3, [r1, #1280]
1882:Drivers/STM32H7xx_HAL_Driver/Src/stm32h7xx_ll_usb.c **** 
1883:Drivers/STM32H7xx_HAL_Driver/Src/stm32h7xx_ll_usb.c ****     if ((USBx->GAHBCFG & USB_OTG_GAHBCFG_DMAEN) == 0U)
 4218              		.loc 1 1883 5 is_stmt 1 view .LVU1341
 4219              		.loc 1 1883 14 is_stmt 0 view .LVU1342
 4220 0038 8368     		ldr	r3, [r0, #8]
 4221              		.loc 1 1883 8 view .LVU1343
 4222 003a 13F0200F 		tst	r3, #32
 4223 003e 51D1     		bne	.L273
1884:Drivers/STM32H7xx_HAL_Driver/Src/stm32h7xx_ll_usb.c ****     {
1885:Drivers/STM32H7xx_HAL_Driver/Src/stm32h7xx_ll_usb.c ****       if ((USBx->HNPTXSTS & (0xFFU << 16)) == 0U)
 4224              		.loc 1 1885 7 is_stmt 1 view .LVU1344
ARM GAS  /var/folders/26/q55yrwgs1ql1lprjdslmzz800000gn/T//ccC08pEc.s 			page 127


 4225              		.loc 1 1885 16 is_stmt 0 view .LVU1345
 4226 0040 C36A     		ldr	r3, [r0, #44]
 4227              		.loc 1 1885 10 view .LVU1346
 4228 0042 13F47F03 		ands	r3, r3, #16711680
 4229 0046 1AD1     		bne	.L275
1886:Drivers/STM32H7xx_HAL_Driver/Src/stm32h7xx_ll_usb.c ****       {
1887:Drivers/STM32H7xx_HAL_Driver/Src/stm32h7xx_ll_usb.c ****         USBx_HC(hcnum)->HCCHAR &= ~USB_OTG_HCCHAR_CHENA;
 4230              		.loc 1 1887 9 is_stmt 1 view .LVU1347
 4231              		.loc 1 1887 32 is_stmt 0 view .LVU1348
 4232 0048 D1F80025 		ldr	r2, [r1, #1280]
 4233 004c 22F00042 		bic	r2, r2, #-2147483648
 4234 0050 C1F80025 		str	r2, [r1, #1280]
1888:Drivers/STM32H7xx_HAL_Driver/Src/stm32h7xx_ll_usb.c ****         USBx_HC(hcnum)->HCCHAR |= USB_OTG_HCCHAR_CHENA;
 4235              		.loc 1 1888 9 is_stmt 1 view .LVU1349
 4236              		.loc 1 1888 32 is_stmt 0 view .LVU1350
 4237 0054 D1F80025 		ldr	r2, [r1, #1280]
 4238 0058 42F00042 		orr	r2, r2, #-2147483648
 4239 005c C1F80025 		str	r2, [r1, #1280]
1889:Drivers/STM32H7xx_HAL_Driver/Src/stm32h7xx_ll_usb.c ****         USBx_HC(hcnum)->HCCHAR &= ~USB_OTG_HCCHAR_EPDIR;
 4240              		.loc 1 1889 9 is_stmt 1 view .LVU1351
 4241              		.loc 1 1889 32 is_stmt 0 view .LVU1352
 4242 0060 D1F80025 		ldr	r2, [r1, #1280]
 4243 0064 22F40042 		bic	r2, r2, #32768
 4244 0068 C1F80025 		str	r2, [r1, #1280]
 4245              	.LVL351:
 4246              	.L276:
1890:Drivers/STM32H7xx_HAL_Driver/Src/stm32h7xx_ll_usb.c ****         do
 4247              		.loc 1 1890 9 is_stmt 1 view .LVU1353
1891:Drivers/STM32H7xx_HAL_Driver/Src/stm32h7xx_ll_usb.c ****         {
1892:Drivers/STM32H7xx_HAL_Driver/Src/stm32h7xx_ll_usb.c ****           if (++count > 1000U)
 4248              		.loc 1 1892 11 view .LVU1354
 4249              		.loc 1 1892 14 is_stmt 0 view .LVU1355
 4250 006c 0133     		adds	r3, r3, #1
 4251              	.LVL352:
 4252              		.loc 1 1892 14 view .LVU1356
 4253 006e B3F57A7F 		cmp	r3, #1000
 4254 0072 37D8     		bhi	.L273
1893:Drivers/STM32H7xx_HAL_Driver/Src/stm32h7xx_ll_usb.c ****           {
1894:Drivers/STM32H7xx_HAL_Driver/Src/stm32h7xx_ll_usb.c ****             break;
1895:Drivers/STM32H7xx_HAL_Driver/Src/stm32h7xx_ll_usb.c ****           }
1896:Drivers/STM32H7xx_HAL_Driver/Src/stm32h7xx_ll_usb.c ****         } while ((USBx_HC(hcnum)->HCCHAR & USB_OTG_HCCHAR_CHENA) == USB_OTG_HCCHAR_CHENA);
 4255              		.loc 1 1896 17 is_stmt 1 view .LVU1357
 4256              		.loc 1 1896 33 is_stmt 0 view .LVU1358
 4257 0074 DCF80020 		ldr	r2, [ip]
 4258              		.loc 1 1896 9 view .LVU1359
 4259 0078 002A     		cmp	r2, #0
 4260 007a F7DB     		blt	.L276
 4261 007c 32E0     		b	.L273
 4262              	.LVL353:
 4263              	.L275:
1897:Drivers/STM32H7xx_HAL_Driver/Src/stm32h7xx_ll_usb.c ****       }
1898:Drivers/STM32H7xx_HAL_Driver/Src/stm32h7xx_ll_usb.c ****       else
1899:Drivers/STM32H7xx_HAL_Driver/Src/stm32h7xx_ll_usb.c ****       {
1900:Drivers/STM32H7xx_HAL_Driver/Src/stm32h7xx_ll_usb.c ****         USBx_HC(hcnum)->HCCHAR |= USB_OTG_HCCHAR_CHENA;
 4264              		.loc 1 1900 9 is_stmt 1 view .LVU1360
 4265              		.loc 1 1900 32 is_stmt 0 view .LVU1361
 4266 007e D1F80035 		ldr	r3, [r1, #1280]
ARM GAS  /var/folders/26/q55yrwgs1ql1lprjdslmzz800000gn/T//ccC08pEc.s 			page 128


 4267 0082 43F00043 		orr	r3, r3, #-2147483648
 4268 0086 C1F80035 		str	r3, [r1, #1280]
 4269 008a 2BE0     		b	.L273
 4270              	.LVL354:
 4271              	.L274:
1901:Drivers/STM32H7xx_HAL_Driver/Src/stm32h7xx_ll_usb.c ****       }
1902:Drivers/STM32H7xx_HAL_Driver/Src/stm32h7xx_ll_usb.c ****     }
1903:Drivers/STM32H7xx_HAL_Driver/Src/stm32h7xx_ll_usb.c ****   }
1904:Drivers/STM32H7xx_HAL_Driver/Src/stm32h7xx_ll_usb.c ****   else
1905:Drivers/STM32H7xx_HAL_Driver/Src/stm32h7xx_ll_usb.c ****   {
1906:Drivers/STM32H7xx_HAL_Driver/Src/stm32h7xx_ll_usb.c ****     USBx_HC(hcnum)->HCCHAR |= USB_OTG_HCCHAR_CHDIS;
 4272              		.loc 1 1906 5 is_stmt 1 view .LVU1362
 4273              		.loc 1 1906 28 is_stmt 0 view .LVU1363
 4274 008c D1F80035 		ldr	r3, [r1, #1280]
 4275              	.LVL355:
 4276              		.loc 1 1906 28 view .LVU1364
 4277 0090 43F08043 		orr	r3, r3, #1073741824
 4278 0094 C1F80035 		str	r3, [r1, #1280]
1907:Drivers/STM32H7xx_HAL_Driver/Src/stm32h7xx_ll_usb.c **** 
1908:Drivers/STM32H7xx_HAL_Driver/Src/stm32h7xx_ll_usb.c ****     if ((USBx_HOST->HPTXSTS & (0xFFU << 16)) == 0U)
 4279              		.loc 1 1908 5 is_stmt 1 view .LVU1365
 4280              		.loc 1 1908 19 is_stmt 0 view .LVU1366
 4281 0098 D0F81034 		ldr	r3, [r0, #1040]
 4282              		.loc 1 1908 8 view .LVU1367
 4283 009c 13F47F03 		ands	r3, r3, #16711680
 4284 00a0 1AD1     		bne	.L277
1909:Drivers/STM32H7xx_HAL_Driver/Src/stm32h7xx_ll_usb.c ****     {
1910:Drivers/STM32H7xx_HAL_Driver/Src/stm32h7xx_ll_usb.c ****       USBx_HC(hcnum)->HCCHAR &= ~USB_OTG_HCCHAR_CHENA;
 4285              		.loc 1 1910 7 is_stmt 1 view .LVU1368
 4286              		.loc 1 1910 30 is_stmt 0 view .LVU1369
 4287 00a2 D1F80025 		ldr	r2, [r1, #1280]
 4288 00a6 22F00042 		bic	r2, r2, #-2147483648
 4289 00aa C1F80025 		str	r2, [r1, #1280]
1911:Drivers/STM32H7xx_HAL_Driver/Src/stm32h7xx_ll_usb.c ****       USBx_HC(hcnum)->HCCHAR |= USB_OTG_HCCHAR_CHENA;
 4290              		.loc 1 1911 7 is_stmt 1 view .LVU1370
 4291              		.loc 1 1911 30 is_stmt 0 view .LVU1371
 4292 00ae D1F80025 		ldr	r2, [r1, #1280]
 4293 00b2 42F00042 		orr	r2, r2, #-2147483648
 4294 00b6 C1F80025 		str	r2, [r1, #1280]
1912:Drivers/STM32H7xx_HAL_Driver/Src/stm32h7xx_ll_usb.c ****       USBx_HC(hcnum)->HCCHAR &= ~USB_OTG_HCCHAR_EPDIR;
 4295              		.loc 1 1912 7 is_stmt 1 view .LVU1372
 4296              		.loc 1 1912 30 is_stmt 0 view .LVU1373
 4297 00ba D1F80025 		ldr	r2, [r1, #1280]
 4298 00be 22F40042 		bic	r2, r2, #32768
 4299 00c2 C1F80025 		str	r2, [r1, #1280]
 4300              	.LVL356:
 4301              	.L278:
1913:Drivers/STM32H7xx_HAL_Driver/Src/stm32h7xx_ll_usb.c ****       do
 4302              		.loc 1 1913 7 is_stmt 1 view .LVU1374
1914:Drivers/STM32H7xx_HAL_Driver/Src/stm32h7xx_ll_usb.c ****       {
1915:Drivers/STM32H7xx_HAL_Driver/Src/stm32h7xx_ll_usb.c ****         if (++count > 1000U)
 4303              		.loc 1 1915 9 view .LVU1375
 4304              		.loc 1 1915 12 is_stmt 0 view .LVU1376
 4305 00c6 0133     		adds	r3, r3, #1
 4306              	.LVL357:
 4307              		.loc 1 1915 12 view .LVU1377
 4308 00c8 B3F57A7F 		cmp	r3, #1000
ARM GAS  /var/folders/26/q55yrwgs1ql1lprjdslmzz800000gn/T//ccC08pEc.s 			page 129


 4309 00cc 0AD8     		bhi	.L273
1916:Drivers/STM32H7xx_HAL_Driver/Src/stm32h7xx_ll_usb.c ****         {
1917:Drivers/STM32H7xx_HAL_Driver/Src/stm32h7xx_ll_usb.c ****           break;
1918:Drivers/STM32H7xx_HAL_Driver/Src/stm32h7xx_ll_usb.c ****         }
1919:Drivers/STM32H7xx_HAL_Driver/Src/stm32h7xx_ll_usb.c ****       } while ((USBx_HC(hcnum)->HCCHAR & USB_OTG_HCCHAR_CHENA) == USB_OTG_HCCHAR_CHENA);
 4310              		.loc 1 1919 15 is_stmt 1 view .LVU1378
 4311              		.loc 1 1919 31 is_stmt 0 view .LVU1379
 4312 00ce DCF80020 		ldr	r2, [ip]
 4313              		.loc 1 1919 7 view .LVU1380
 4314 00d2 002A     		cmp	r2, #0
 4315 00d4 F7DB     		blt	.L278
 4316 00d6 05E0     		b	.L273
 4317              	.LVL358:
 4318              	.L277:
1920:Drivers/STM32H7xx_HAL_Driver/Src/stm32h7xx_ll_usb.c ****     }
1921:Drivers/STM32H7xx_HAL_Driver/Src/stm32h7xx_ll_usb.c ****     else
1922:Drivers/STM32H7xx_HAL_Driver/Src/stm32h7xx_ll_usb.c ****     {
1923:Drivers/STM32H7xx_HAL_Driver/Src/stm32h7xx_ll_usb.c ****       USBx_HC(hcnum)->HCCHAR |= USB_OTG_HCCHAR_CHENA;
 4319              		.loc 1 1923 7 is_stmt 1 view .LVU1381
 4320              		.loc 1 1923 30 is_stmt 0 view .LVU1382
 4321 00d8 D1F80035 		ldr	r3, [r1, #1280]
 4322 00dc 43F00043 		orr	r3, r3, #-2147483648
 4323 00e0 C1F80035 		str	r3, [r1, #1280]
 4324              	.LVL359:
 4325              	.L273:
1924:Drivers/STM32H7xx_HAL_Driver/Src/stm32h7xx_ll_usb.c ****     }
1925:Drivers/STM32H7xx_HAL_Driver/Src/stm32h7xx_ll_usb.c ****   }
1926:Drivers/STM32H7xx_HAL_Driver/Src/stm32h7xx_ll_usb.c **** 
1927:Drivers/STM32H7xx_HAL_Driver/Src/stm32h7xx_ll_usb.c ****   return HAL_OK;
1928:Drivers/STM32H7xx_HAL_Driver/Src/stm32h7xx_ll_usb.c **** }
 4326              		.loc 1 1928 1 view .LVU1383
 4327 00e4 0020     		movs	r0, #0
 4328              	.LVL360:
 4329              		.loc 1 1928 1 view .LVU1384
 4330 00e6 5DF8044B 		ldr	r4, [sp], #4
 4331              	.LCFI50:
 4332              		.cfi_restore 4
 4333              		.cfi_def_cfa_offset 0
 4334 00ea 7047     		bx	lr
 4335              		.cfi_endproc
 4336              	.LFE187:
 4338              		.section	.text.USB_DoPing,"ax",%progbits
 4339              		.align	1
 4340              		.global	USB_DoPing
 4341              		.syntax unified
 4342              		.thumb
 4343              		.thumb_func
 4345              	USB_DoPing:
 4346              	.LVL361:
 4347              	.LFB188:
1929:Drivers/STM32H7xx_HAL_Driver/Src/stm32h7xx_ll_usb.c **** 
1930:Drivers/STM32H7xx_HAL_Driver/Src/stm32h7xx_ll_usb.c **** /**
1931:Drivers/STM32H7xx_HAL_Driver/Src/stm32h7xx_ll_usb.c ****   * @brief  Initiate Do Ping protocol
1932:Drivers/STM32H7xx_HAL_Driver/Src/stm32h7xx_ll_usb.c ****   * @param  USBx  Selected device
1933:Drivers/STM32H7xx_HAL_Driver/Src/stm32h7xx_ll_usb.c ****   * @param  hc_num  Host Channel number
1934:Drivers/STM32H7xx_HAL_Driver/Src/stm32h7xx_ll_usb.c ****   *         This parameter can be a value from 1 to 15
1935:Drivers/STM32H7xx_HAL_Driver/Src/stm32h7xx_ll_usb.c ****   * @retval HAL state
ARM GAS  /var/folders/26/q55yrwgs1ql1lprjdslmzz800000gn/T//ccC08pEc.s 			page 130


1936:Drivers/STM32H7xx_HAL_Driver/Src/stm32h7xx_ll_usb.c ****   */
1937:Drivers/STM32H7xx_HAL_Driver/Src/stm32h7xx_ll_usb.c **** HAL_StatusTypeDef USB_DoPing(USB_OTG_GlobalTypeDef *USBx, uint8_t ch_num)
1938:Drivers/STM32H7xx_HAL_Driver/Src/stm32h7xx_ll_usb.c **** {
 4348              		.loc 1 1938 1 is_stmt 1 view -0
 4349              		.cfi_startproc
 4350              		@ args = 0, pretend = 0, frame = 0
 4351              		@ frame_needed = 0, uses_anonymous_args = 0
 4352              		@ link register save eliminated.
1939:Drivers/STM32H7xx_HAL_Driver/Src/stm32h7xx_ll_usb.c ****   uint32_t USBx_BASE = (uint32_t)USBx;
 4353              		.loc 1 1939 3 view .LVU1386
1940:Drivers/STM32H7xx_HAL_Driver/Src/stm32h7xx_ll_usb.c ****   uint32_t chnum = (uint32_t)ch_num;
 4354              		.loc 1 1940 3 view .LVU1387
1941:Drivers/STM32H7xx_HAL_Driver/Src/stm32h7xx_ll_usb.c ****   uint32_t num_packets = 1U;
 4355              		.loc 1 1941 3 view .LVU1388
1942:Drivers/STM32H7xx_HAL_Driver/Src/stm32h7xx_ll_usb.c ****   uint32_t tmpreg;
 4356              		.loc 1 1942 3 view .LVU1389
1943:Drivers/STM32H7xx_HAL_Driver/Src/stm32h7xx_ll_usb.c **** 
1944:Drivers/STM32H7xx_HAL_Driver/Src/stm32h7xx_ll_usb.c ****   USBx_HC(chnum)->HCTSIZ = ((num_packets << 19) & USB_OTG_HCTSIZ_PKTCNT) |
 4357              		.loc 1 1944 3 view .LVU1390
 4358 0000 00EB4111 		add	r1, r0, r1, lsl #5
 4359              	.LVL362:
 4360              		.loc 1 1944 26 is_stmt 0 view .LVU1391
 4361 0004 064A     		ldr	r2, .L281
 4362 0006 C1F81025 		str	r2, [r1, #1296]
1945:Drivers/STM32H7xx_HAL_Driver/Src/stm32h7xx_ll_usb.c ****                            USB_OTG_HCTSIZ_DOPING;
1946:Drivers/STM32H7xx_HAL_Driver/Src/stm32h7xx_ll_usb.c **** 
1947:Drivers/STM32H7xx_HAL_Driver/Src/stm32h7xx_ll_usb.c ****   /* Set host channel enable */
1948:Drivers/STM32H7xx_HAL_Driver/Src/stm32h7xx_ll_usb.c ****   tmpreg = USBx_HC(chnum)->HCCHAR;
 4363              		.loc 1 1948 3 is_stmt 1 view .LVU1392
 4364              		.loc 1 1948 10 is_stmt 0 view .LVU1393
 4365 000a D1F80035 		ldr	r3, [r1, #1280]
 4366              	.LVL363:
1949:Drivers/STM32H7xx_HAL_Driver/Src/stm32h7xx_ll_usb.c ****   tmpreg &= ~USB_OTG_HCCHAR_CHDIS;
 4367              		.loc 1 1949 3 is_stmt 1 view .LVU1394
 4368              		.loc 1 1949 10 is_stmt 0 view .LVU1395
 4369 000e 23F08043 		bic	r3, r3, #1073741824
 4370              	.LVL364:
1950:Drivers/STM32H7xx_HAL_Driver/Src/stm32h7xx_ll_usb.c ****   tmpreg |= USB_OTG_HCCHAR_CHENA;
 4371              		.loc 1 1950 3 is_stmt 1 view .LVU1396
 4372              		.loc 1 1950 10 is_stmt 0 view .LVU1397
 4373 0012 43F00043 		orr	r3, r3, #-2147483648
 4374              	.LVL365:
1951:Drivers/STM32H7xx_HAL_Driver/Src/stm32h7xx_ll_usb.c ****   USBx_HC(chnum)->HCCHAR = tmpreg;
 4375              		.loc 1 1951 3 is_stmt 1 view .LVU1398
 4376              		.loc 1 1951 26 is_stmt 0 view .LVU1399
 4377 0016 C1F80035 		str	r3, [r1, #1280]
1952:Drivers/STM32H7xx_HAL_Driver/Src/stm32h7xx_ll_usb.c **** 
1953:Drivers/STM32H7xx_HAL_Driver/Src/stm32h7xx_ll_usb.c ****   return HAL_OK;
 4378              		.loc 1 1953 3 is_stmt 1 view .LVU1400
1954:Drivers/STM32H7xx_HAL_Driver/Src/stm32h7xx_ll_usb.c **** }
 4379              		.loc 1 1954 1 is_stmt 0 view .LVU1401
 4380 001a 0020     		movs	r0, #0
 4381              	.LVL366:
 4382              		.loc 1 1954 1 view .LVU1402
 4383 001c 7047     		bx	lr
 4384              	.L282:
 4385 001e 00BF     		.align	2
ARM GAS  /var/folders/26/q55yrwgs1ql1lprjdslmzz800000gn/T//ccC08pEc.s 			page 131


 4386              	.L281:
 4387 0020 00000880 		.word	-2146959360
 4388              		.cfi_endproc
 4389              	.LFE188:
 4391              		.section	.text.USB_HC_StartXfer,"ax",%progbits
 4392              		.align	1
 4393              		.global	USB_HC_StartXfer
 4394              		.syntax unified
 4395              		.thumb
 4396              		.thumb_func
 4398              	USB_HC_StartXfer:
 4399              	.LVL367:
 4400              	.LFB185:
1712:Drivers/STM32H7xx_HAL_Driver/Src/stm32h7xx_ll_usb.c ****   uint32_t USBx_BASE = (uint32_t)USBx;
 4401              		.loc 1 1712 1 is_stmt 1 view -0
 4402              		.cfi_startproc
 4403              		@ args = 0, pretend = 0, frame = 8
 4404              		@ frame_needed = 0, uses_anonymous_args = 0
1712:Drivers/STM32H7xx_HAL_Driver/Src/stm32h7xx_ll_usb.c ****   uint32_t USBx_BASE = (uint32_t)USBx;
 4405              		.loc 1 1712 1 is_stmt 0 view .LVU1404
 4406 0000 30B5     		push	{r4, r5, lr}
 4407              	.LCFI51:
 4408              		.cfi_def_cfa_offset 12
 4409              		.cfi_offset 4, -12
 4410              		.cfi_offset 5, -8
 4411              		.cfi_offset 14, -4
 4412 0002 85B0     		sub	sp, sp, #20
 4413              	.LCFI52:
 4414              		.cfi_def_cfa_offset 32
1713:Drivers/STM32H7xx_HAL_Driver/Src/stm32h7xx_ll_usb.c ****   uint32_t ch_num = (uint32_t)hc->ch_num;
 4415              		.loc 1 1713 3 is_stmt 1 view .LVU1405
 4416              	.LVL368:
1714:Drivers/STM32H7xx_HAL_Driver/Src/stm32h7xx_ll_usb.c ****   __IO uint32_t tmpreg;
 4417              		.loc 1 1714 3 view .LVU1406
1714:Drivers/STM32H7xx_HAL_Driver/Src/stm32h7xx_ll_usb.c ****   __IO uint32_t tmpreg;
 4418              		.loc 1 1714 33 is_stmt 0 view .LVU1407
 4419 0004 4B78     		ldrb	r3, [r1, #1]	@ zero_extendqisi2
 4420              	.LVL369:
1715:Drivers/STM32H7xx_HAL_Driver/Src/stm32h7xx_ll_usb.c ****   uint8_t  is_oddframe;
 4421              		.loc 1 1715 3 is_stmt 1 view .LVU1408
1716:Drivers/STM32H7xx_HAL_Driver/Src/stm32h7xx_ll_usb.c ****   uint16_t len_words;
 4422              		.loc 1 1716 3 view .LVU1409
1717:Drivers/STM32H7xx_HAL_Driver/Src/stm32h7xx_ll_usb.c ****   uint16_t num_packets;
 4423              		.loc 1 1717 3 view .LVU1410
1718:Drivers/STM32H7xx_HAL_Driver/Src/stm32h7xx_ll_usb.c ****   uint16_t max_hc_pkt_count = 256U;
 4424              		.loc 1 1718 3 view .LVU1411
1719:Drivers/STM32H7xx_HAL_Driver/Src/stm32h7xx_ll_usb.c **** 
 4425              		.loc 1 1719 3 view .LVU1412
1721:Drivers/STM32H7xx_HAL_Driver/Src/stm32h7xx_ll_usb.c ****   {
 4426              		.loc 1 1721 3 view .LVU1413
1721:Drivers/STM32H7xx_HAL_Driver/Src/stm32h7xx_ll_usb.c ****   {
 4427              		.loc 1 1721 13 is_stmt 0 view .LVU1414
 4428 0006 C46B     		ldr	r4, [r0, #60]
1721:Drivers/STM32H7xx_HAL_Driver/Src/stm32h7xx_ll_usb.c ****   {
 4429              		.loc 1 1721 6 view .LVU1415
 4430 0008 14F4807F 		tst	r4, #256
 4431 000c 07D0     		beq	.L284
ARM GAS  /var/folders/26/q55yrwgs1ql1lprjdslmzz800000gn/T//ccC08pEc.s 			page 132


1721:Drivers/STM32H7xx_HAL_Driver/Src/stm32h7xx_ll_usb.c ****   {
 4432              		.loc 1 1721 47 discriminator 1 view .LVU1416
 4433 000e 0C79     		ldrb	r4, [r1, #4]	@ zero_extendqisi2
1721:Drivers/STM32H7xx_HAL_Driver/Src/stm32h7xx_ll_usb.c ****   {
 4434              		.loc 1 1721 41 discriminator 1 view .LVU1417
 4435 0010 2CB9     		cbnz	r4, .L284
1724:Drivers/STM32H7xx_HAL_Driver/Src/stm32h7xx_ll_usb.c ****     {
 4436              		.loc 1 1724 5 is_stmt 1 view .LVU1418
1724:Drivers/STM32H7xx_HAL_Driver/Src/stm32h7xx_ll_usb.c ****     {
 4437              		.loc 1 1724 8 is_stmt 0 view .LVU1419
 4438 0012 012A     		cmp	r2, #1
 4439 0014 16D0     		beq	.L299
 4440              	.L285:
1731:Drivers/STM32H7xx_HAL_Driver/Src/stm32h7xx_ll_usb.c ****     {
 4441              		.loc 1 1731 5 is_stmt 1 view .LVU1420
1731:Drivers/STM32H7xx_HAL_Driver/Src/stm32h7xx_ll_usb.c ****     {
 4442              		.loc 1 1731 8 is_stmt 0 view .LVU1421
 4443 0016 12B9     		cbnz	r2, .L284
1731:Drivers/STM32H7xx_HAL_Driver/Src/stm32h7xx_ll_usb.c ****     {
 4444              		.loc 1 1731 27 discriminator 1 view .LVU1422
 4445 0018 4C79     		ldrb	r4, [r1, #5]	@ zero_extendqisi2
1731:Drivers/STM32H7xx_HAL_Driver/Src/stm32h7xx_ll_usb.c ****     {
 4446              		.loc 1 1731 21 discriminator 1 view .LVU1423
 4447 001a 012C     		cmp	r4, #1
 4448 001c 20D0     		beq	.L300
 4449              	.L284:
1740:Drivers/STM32H7xx_HAL_Driver/Src/stm32h7xx_ll_usb.c ****   {
 4450              		.loc 1 1740 3 is_stmt 1 view .LVU1424
1740:Drivers/STM32H7xx_HAL_Driver/Src/stm32h7xx_ll_usb.c ****   {
 4451              		.loc 1 1740 9 is_stmt 0 view .LVU1425
 4452 001e 4C69     		ldr	r4, [r1, #20]
1740:Drivers/STM32H7xx_HAL_Driver/Src/stm32h7xx_ll_usb.c ****   {
 4453              		.loc 1 1740 6 view .LVU1426
 4454 0020 14B3     		cbz	r4, .L297
1742:Drivers/STM32H7xx_HAL_Driver/Src/stm32h7xx_ll_usb.c **** 
 4455              		.loc 1 1742 5 is_stmt 1 view .LVU1427
1742:Drivers/STM32H7xx_HAL_Driver/Src/stm32h7xx_ll_usb.c **** 
 4456              		.loc 1 1742 48 is_stmt 0 view .LVU1428
 4457 0022 0D89     		ldrh	r5, [r1, #8]
1742:Drivers/STM32H7xx_HAL_Driver/Src/stm32h7xx_ll_usb.c **** 
 4458              		.loc 1 1742 44 view .LVU1429
 4459 0024 04EB050C 		add	ip, r4, r5
1742:Drivers/STM32H7xx_HAL_Driver/Src/stm32h7xx_ll_usb.c **** 
 4460              		.loc 1 1742 61 view .LVU1430
 4461 0028 0CF1FF3C 		add	ip, ip, #-1
1742:Drivers/STM32H7xx_HAL_Driver/Src/stm32h7xx_ll_usb.c **** 
 4462              		.loc 1 1742 67 view .LVU1431
 4463 002c BCFBF5FC 		udiv	ip, ip, r5
1742:Drivers/STM32H7xx_HAL_Driver/Src/stm32h7xx_ll_usb.c **** 
 4464              		.loc 1 1742 17 view .LVU1432
 4465 0030 1FFA8CFC 		uxth	ip, ip
 4466              	.LVL370:
1744:Drivers/STM32H7xx_HAL_Driver/Src/stm32h7xx_ll_usb.c ****     {
 4467              		.loc 1 1744 5 is_stmt 1 view .LVU1433
1744:Drivers/STM32H7xx_HAL_Driver/Src/stm32h7xx_ll_usb.c ****     {
 4468              		.loc 1 1744 8 is_stmt 0 view .LVU1434
 4469 0034 BCF5807F 		cmp	ip, #256
ARM GAS  /var/folders/26/q55yrwgs1ql1lprjdslmzz800000gn/T//ccC08pEc.s 			page 133


 4470 0038 18D9     		bls	.L287
1746:Drivers/STM32H7xx_HAL_Driver/Src/stm32h7xx_ll_usb.c ****       hc->XferSize = (uint32_t)num_packets * hc->max_packet;
 4471              		.loc 1 1746 7 is_stmt 1 view .LVU1435
 4472              	.LVL371:
1747:Drivers/STM32H7xx_HAL_Driver/Src/stm32h7xx_ll_usb.c ****     }
 4473              		.loc 1 1747 7 view .LVU1436
1747:Drivers/STM32H7xx_HAL_Driver/Src/stm32h7xx_ll_usb.c ****     }
 4474              		.loc 1 1747 44 is_stmt 0 view .LVU1437
 4475 003a 2D02     		lsls	r5, r5, #8
1747:Drivers/STM32H7xx_HAL_Driver/Src/stm32h7xx_ll_usb.c ****     }
 4476              		.loc 1 1747 20 view .LVU1438
 4477 003c 0D61     		str	r5, [r1, #16]
1746:Drivers/STM32H7xx_HAL_Driver/Src/stm32h7xx_ll_usb.c ****       hc->XferSize = (uint32_t)num_packets * hc->max_packet;
 4478              		.loc 1 1746 19 view .LVU1439
 4479 003e 4FF4807C 		mov	ip, #256
 4480 0042 13E0     		b	.L287
 4481              	.LVL372:
 4482              	.L299:
1724:Drivers/STM32H7xx_HAL_Driver/Src/stm32h7xx_ll_usb.c ****     {
 4483              		.loc 1 1724 28 discriminator 1 view .LVU1440
 4484 0044 CC79     		ldrb	r4, [r1, #7]	@ zero_extendqisi2
1724:Drivers/STM32H7xx_HAL_Driver/Src/stm32h7xx_ll_usb.c ****     {
 4485              		.loc 1 1724 21 discriminator 1 view .LVU1441
 4486 0046 022C     		cmp	r4, #2
 4487 0048 18BF     		it	ne
 4488 004a 002C     		cmpne	r4, #0
 4489 004c E3D1     		bne	.L285
1726:Drivers/STM32H7xx_HAL_Driver/Src/stm32h7xx_ll_usb.c ****                                                USB_OTG_HCINTMSK_ACKM |
 4490              		.loc 1 1726 7 is_stmt 1 view .LVU1442
1726:Drivers/STM32H7xx_HAL_Driver/Src/stm32h7xx_ll_usb.c ****                                                USB_OTG_HCINTMSK_ACKM |
 4491              		.loc 1 1726 43 is_stmt 0 view .LVU1443
 4492 004e 00EB4314 		add	r4, r0, r3, lsl #5
 4493 0052 D4F80C55 		ldr	r5, [r4, #1292]
 4494 0056 25F07005 		bic	r5, r5, #112
 4495 005a C4F80C55 		str	r5, [r4, #1292]
 4496 005e DAE7     		b	.L285
 4497              	.L300:
1733:Drivers/STM32H7xx_HAL_Driver/Src/stm32h7xx_ll_usb.c ****       return HAL_OK;
 4498              		.loc 1 1733 7 is_stmt 1 view .LVU1444
1733:Drivers/STM32H7xx_HAL_Driver/Src/stm32h7xx_ll_usb.c ****       return HAL_OK;
 4499              		.loc 1 1733 13 is_stmt 0 view .LVU1445
 4500 0060 4978     		ldrb	r1, [r1, #1]	@ zero_extendqisi2
 4501              	.LVL373:
1733:Drivers/STM32H7xx_HAL_Driver/Src/stm32h7xx_ll_usb.c ****       return HAL_OK;
 4502              		.loc 1 1733 13 view .LVU1446
 4503 0062 FFF7FEFF 		bl	USB_DoPing
 4504              	.LVL374:
1734:Drivers/STM32H7xx_HAL_Driver/Src/stm32h7xx_ll_usb.c ****     }
 4505              		.loc 1 1734 7 is_stmt 1 view .LVU1447
1734:Drivers/STM32H7xx_HAL_Driver/Src/stm32h7xx_ll_usb.c ****     }
 4506              		.loc 1 1734 14 is_stmt 0 view .LVU1448
 4507 0066 70E0     		b	.L286
 4508              	.LVL375:
 4509              	.L297:
1752:Drivers/STM32H7xx_HAL_Driver/Src/stm32h7xx_ll_usb.c ****   }
 4510              		.loc 1 1752 17 view .LVU1449
 4511 0068 4FF0010C 		mov	ip, #1
ARM GAS  /var/folders/26/q55yrwgs1ql1lprjdslmzz800000gn/T//ccC08pEc.s 			page 134


 4512              	.L287:
 4513              	.LVL376:
1759:Drivers/STM32H7xx_HAL_Driver/Src/stm32h7xx_ll_usb.c ****   {
 4514              		.loc 1 1759 3 is_stmt 1 view .LVU1450
1759:Drivers/STM32H7xx_HAL_Driver/Src/stm32h7xx_ll_usb.c ****   {
 4515              		.loc 1 1759 9 is_stmt 0 view .LVU1451
 4516 006c CD78     		ldrb	r5, [r1, #3]	@ zero_extendqisi2
1759:Drivers/STM32H7xx_HAL_Driver/Src/stm32h7xx_ll_usb.c ****   {
 4517              		.loc 1 1759 6 view .LVU1452
 4518 006e 002D     		cmp	r5, #0
 4519 0070 52D0     		beq	.L288
1761:Drivers/STM32H7xx_HAL_Driver/Src/stm32h7xx_ll_usb.c ****   }
 4520              		.loc 1 1761 5 is_stmt 1 view .LVU1453
1761:Drivers/STM32H7xx_HAL_Driver/Src/stm32h7xx_ll_usb.c ****   }
 4521              		.loc 1 1761 46 is_stmt 0 view .LVU1454
 4522 0072 0C89     		ldrh	r4, [r1, #8]
1761:Drivers/STM32H7xx_HAL_Driver/Src/stm32h7xx_ll_usb.c ****   }
 4523              		.loc 1 1761 42 view .LVU1455
 4524 0074 04FB0CF4 		mul	r4, r4, ip
1761:Drivers/STM32H7xx_HAL_Driver/Src/stm32h7xx_ll_usb.c ****   }
 4525              		.loc 1 1761 18 view .LVU1456
 4526 0078 0C61     		str	r4, [r1, #16]
 4527              	.L289:
1769:Drivers/STM32H7xx_HAL_Driver/Src/stm32h7xx_ll_usb.c ****                             (((uint32_t)num_packets << 19) & USB_OTG_HCTSIZ_PKTCNT) |
 4528              		.loc 1 1769 3 is_stmt 1 view .LVU1457
1769:Drivers/STM32H7xx_HAL_Driver/Src/stm32h7xx_ll_usb.c ****                             (((uint32_t)num_packets << 19) & USB_OTG_HCTSIZ_PKTCNT) |
 4529              		.loc 1 1769 32 is_stmt 0 view .LVU1458
 4530 007a 0C69     		ldr	r4, [r1, #16]
1769:Drivers/STM32H7xx_HAL_Driver/Src/stm32h7xx_ll_usb.c ****                             (((uint32_t)num_packets << 19) & USB_OTG_HCTSIZ_PKTCNT) |
 4531              		.loc 1 1769 43 view .LVU1459
 4532 007c C4F31204 		ubfx	r4, r4, #0, #19
1770:Drivers/STM32H7xx_HAL_Driver/Src/stm32h7xx_ll_usb.c ****                             (((uint32_t)hc->data_pid << 29) & USB_OTG_HCTSIZ_DPID);
 4533              		.loc 1 1770 60 view .LVU1460
 4534 0080 3A4D     		ldr	r5, .L301
 4535 0082 05EACC4C 		and	ip, r5, ip, lsl #19
 4536              	.LVL377:
1769:Drivers/STM32H7xx_HAL_Driver/Src/stm32h7xx_ll_usb.c ****                             (((uint32_t)num_packets << 19) & USB_OTG_HCTSIZ_PKTCNT) |
 4537              		.loc 1 1769 68 view .LVU1461
 4538 0086 44EA0C04 		orr	r4, r4, ip
1771:Drivers/STM32H7xx_HAL_Driver/Src/stm32h7xx_ll_usb.c **** 
 4539              		.loc 1 1771 43 view .LVU1462
 4540 008a 91F80AC0 		ldrb	ip, [r1, #10]	@ zero_extendqisi2
1771:Drivers/STM32H7xx_HAL_Driver/Src/stm32h7xx_ll_usb.c **** 
 4541              		.loc 1 1771 54 view .LVU1463
 4542 008e 4FEA4C7C 		lsl	ip, ip, #29
1771:Drivers/STM32H7xx_HAL_Driver/Src/stm32h7xx_ll_usb.c **** 
 4543              		.loc 1 1771 61 view .LVU1464
 4544 0092 0CF0C04C 		and	ip, ip, #1610612736
1769:Drivers/STM32H7xx_HAL_Driver/Src/stm32h7xx_ll_usb.c ****                             (((uint32_t)num_packets << 19) & USB_OTG_HCTSIZ_PKTCNT) |
 4545              		.loc 1 1769 3 view .LVU1465
 4546 0096 00EB4313 		add	r3, r0, r3, lsl #5
 4547              	.LVL378:
1770:Drivers/STM32H7xx_HAL_Driver/Src/stm32h7xx_ll_usb.c ****                             (((uint32_t)hc->data_pid << 29) & USB_OTG_HCTSIZ_DPID);
 4548              		.loc 1 1770 85 view .LVU1466
 4549 009a 44EA0C04 		orr	r4, r4, ip
1769:Drivers/STM32H7xx_HAL_Driver/Src/stm32h7xx_ll_usb.c ****                             (((uint32_t)num_packets << 19) & USB_OTG_HCTSIZ_PKTCNT) |
 4550              		.loc 1 1769 27 view .LVU1467
ARM GAS  /var/folders/26/q55yrwgs1ql1lprjdslmzz800000gn/T//ccC08pEc.s 			page 135


 4551 009e C3F81045 		str	r4, [r3, #1296]
1773:Drivers/STM32H7xx_HAL_Driver/Src/stm32h7xx_ll_usb.c ****   {
 4552              		.loc 1 1773 3 is_stmt 1 view .LVU1468
1773:Drivers/STM32H7xx_HAL_Driver/Src/stm32h7xx_ll_usb.c ****   {
 4553              		.loc 1 1773 6 is_stmt 0 view .LVU1469
 4554 00a2 12B1     		cbz	r2, .L290
1776:Drivers/STM32H7xx_HAL_Driver/Src/stm32h7xx_ll_usb.c ****   }
 4555              		.loc 1 1776 5 is_stmt 1 view .LVU1470
1776:Drivers/STM32H7xx_HAL_Driver/Src/stm32h7xx_ll_usb.c ****   }
 4556              		.loc 1 1776 42 is_stmt 0 view .LVU1471
 4557 00a4 CC68     		ldr	r4, [r1, #12]
1776:Drivers/STM32H7xx_HAL_Driver/Src/stm32h7xx_ll_usb.c ****   }
 4558              		.loc 1 1776 28 view .LVU1472
 4559 00a6 C3F81445 		str	r4, [r3, #1300]
 4560              	.L290:
1779:Drivers/STM32H7xx_HAL_Driver/Src/stm32h7xx_ll_usb.c ****   USBx_HC(ch_num)->HCCHAR &= ~USB_OTG_HCCHAR_ODDFRM;
 4561              		.loc 1 1779 3 is_stmt 1 view .LVU1473
1779:Drivers/STM32H7xx_HAL_Driver/Src/stm32h7xx_ll_usb.c ****   USBx_HC(ch_num)->HCCHAR &= ~USB_OTG_HCCHAR_ODDFRM;
 4562              		.loc 1 1779 29 is_stmt 0 view .LVU1474
 4563 00aa 00F5806C 		add	ip, r0, #1024
1779:Drivers/STM32H7xx_HAL_Driver/Src/stm32h7xx_ll_usb.c ****   USBx_HC(ch_num)->HCCHAR &= ~USB_OTG_HCCHAR_ODDFRM;
 4564              		.loc 1 1779 38 view .LVU1475
 4565 00ae DCF80840 		ldr	r4, [ip, #8]
1779:Drivers/STM32H7xx_HAL_Driver/Src/stm32h7xx_ll_usb.c ****   USBx_HC(ch_num)->HCCHAR &= ~USB_OTG_HCCHAR_ODDFRM;
 4566              		.loc 1 1779 67 view .LVU1476
 4567 00b2 14F0010F 		tst	r4, #1
 4568 00b6 0CBF     		ite	eq
 4569 00b8 4FF0010E 		moveq	lr, #1
 4570 00bc 4FF0000E 		movne	lr, #0
 4571              	.LVL379:
1780:Drivers/STM32H7xx_HAL_Driver/Src/stm32h7xx_ll_usb.c ****   USBx_HC(ch_num)->HCCHAR |= (uint32_t)is_oddframe << 29;
 4572              		.loc 1 1780 3 is_stmt 1 view .LVU1477
1780:Drivers/STM32H7xx_HAL_Driver/Src/stm32h7xx_ll_usb.c ****   USBx_HC(ch_num)->HCCHAR |= (uint32_t)is_oddframe << 29;
 4573              		.loc 1 1780 27 is_stmt 0 view .LVU1478
 4574 00c0 D3F80055 		ldr	r5, [r3, #1280]
 4575 00c4 25F00055 		bic	r5, r5, #536870912
 4576 00c8 C3F80055 		str	r5, [r3, #1280]
1781:Drivers/STM32H7xx_HAL_Driver/Src/stm32h7xx_ll_usb.c **** 
 4577              		.loc 1 1781 3 is_stmt 1 view .LVU1479
1781:Drivers/STM32H7xx_HAL_Driver/Src/stm32h7xx_ll_usb.c **** 
 4578              		.loc 1 1781 27 is_stmt 0 view .LVU1480
 4579 00cc D3F80045 		ldr	r4, [r3, #1280]
 4580 00d0 44EA4E74 		orr	r4, r4, lr, lsl #29
 4581 00d4 C3F80045 		str	r4, [r3, #1280]
1784:Drivers/STM32H7xx_HAL_Driver/Src/stm32h7xx_ll_usb.c ****   tmpreg &= ~USB_OTG_HCCHAR_CHDIS;
 4582              		.loc 1 1784 3 is_stmt 1 view .LVU1481
1784:Drivers/STM32H7xx_HAL_Driver/Src/stm32h7xx_ll_usb.c ****   tmpreg &= ~USB_OTG_HCCHAR_CHDIS;
 4583              		.loc 1 1784 27 is_stmt 0 view .LVU1482
 4584 00d8 D3F80045 		ldr	r4, [r3, #1280]
1784:Drivers/STM32H7xx_HAL_Driver/Src/stm32h7xx_ll_usb.c ****   tmpreg &= ~USB_OTG_HCCHAR_CHDIS;
 4585              		.loc 1 1784 10 view .LVU1483
 4586 00dc 0394     		str	r4, [sp, #12]
1785:Drivers/STM32H7xx_HAL_Driver/Src/stm32h7xx_ll_usb.c **** 
 4587              		.loc 1 1785 3 is_stmt 1 view .LVU1484
1785:Drivers/STM32H7xx_HAL_Driver/Src/stm32h7xx_ll_usb.c **** 
 4588              		.loc 1 1785 10 is_stmt 0 view .LVU1485
 4589 00de 039C     		ldr	r4, [sp, #12]
ARM GAS  /var/folders/26/q55yrwgs1ql1lprjdslmzz800000gn/T//ccC08pEc.s 			page 136


 4590 00e0 24F08044 		bic	r4, r4, #1073741824
 4591 00e4 0394     		str	r4, [sp, #12]
1788:Drivers/STM32H7xx_HAL_Driver/Src/stm32h7xx_ll_usb.c ****   {
 4592              		.loc 1 1788 3 is_stmt 1 view .LVU1486
1788:Drivers/STM32H7xx_HAL_Driver/Src/stm32h7xx_ll_usb.c ****   {
 4593              		.loc 1 1788 9 is_stmt 0 view .LVU1487
 4594 00e6 CC78     		ldrb	r4, [r1, #3]	@ zero_extendqisi2
1788:Drivers/STM32H7xx_HAL_Driver/Src/stm32h7xx_ll_usb.c ****   {
 4595              		.loc 1 1788 6 view .LVU1488
 4596 00e8 C4B1     		cbz	r4, .L291
1790:Drivers/STM32H7xx_HAL_Driver/Src/stm32h7xx_ll_usb.c ****   }
 4597              		.loc 1 1790 5 is_stmt 1 view .LVU1489
1790:Drivers/STM32H7xx_HAL_Driver/Src/stm32h7xx_ll_usb.c ****   }
 4598              		.loc 1 1790 12 is_stmt 0 view .LVU1490
 4599 00ea 039C     		ldr	r4, [sp, #12]
 4600 00ec 44F40044 		orr	r4, r4, #32768
 4601 00f0 0394     		str	r4, [sp, #12]
 4602              	.L292:
1796:Drivers/STM32H7xx_HAL_Driver/Src/stm32h7xx_ll_usb.c ****   USBx_HC(ch_num)->HCCHAR = tmpreg;
 4603              		.loc 1 1796 3 is_stmt 1 view .LVU1491
1796:Drivers/STM32H7xx_HAL_Driver/Src/stm32h7xx_ll_usb.c ****   USBx_HC(ch_num)->HCCHAR = tmpreg;
 4604              		.loc 1 1796 10 is_stmt 0 view .LVU1492
 4605 00f2 039C     		ldr	r4, [sp, #12]
 4606 00f4 44F00044 		orr	r4, r4, #-2147483648
 4607 00f8 0394     		str	r4, [sp, #12]
1797:Drivers/STM32H7xx_HAL_Driver/Src/stm32h7xx_ll_usb.c **** 
 4608              		.loc 1 1797 3 is_stmt 1 view .LVU1493
1797:Drivers/STM32H7xx_HAL_Driver/Src/stm32h7xx_ll_usb.c **** 
 4609              		.loc 1 1797 27 is_stmt 0 view .LVU1494
 4610 00fa 039C     		ldr	r4, [sp, #12]
 4611 00fc C3F80045 		str	r4, [r3, #1280]
1799:Drivers/STM32H7xx_HAL_Driver/Src/stm32h7xx_ll_usb.c ****   {
 4612              		.loc 1 1799 3 is_stmt 1 view .LVU1495
1799:Drivers/STM32H7xx_HAL_Driver/Src/stm32h7xx_ll_usb.c ****   {
 4613              		.loc 1 1799 6 is_stmt 0 view .LVU1496
 4614 0100 1ABB     		cbnz	r2, .L286
1804:Drivers/STM32H7xx_HAL_Driver/Src/stm32h7xx_ll_usb.c ****   {
 4615              		.loc 1 1804 3 is_stmt 1 view .LVU1497
1804:Drivers/STM32H7xx_HAL_Driver/Src/stm32h7xx_ll_usb.c ****   {
 4616              		.loc 1 1804 10 is_stmt 0 view .LVU1498
 4617 0102 CB78     		ldrb	r3, [r1, #3]	@ zero_extendqisi2
1804:Drivers/STM32H7xx_HAL_Driver/Src/stm32h7xx_ll_usb.c ****   {
 4618              		.loc 1 1804 6 view .LVU1499
 4619 0104 0BBB     		cbnz	r3, .L286
1804:Drivers/STM32H7xx_HAL_Driver/Src/stm32h7xx_ll_usb.c ****   {
 4620              		.loc 1 1804 34 discriminator 1 view .LVU1500
 4621 0106 4B69     		ldr	r3, [r1, #20]
1804:Drivers/STM32H7xx_HAL_Driver/Src/stm32h7xx_ll_usb.c ****   {
 4622              		.loc 1 1804 28 discriminator 1 view .LVU1501
 4623 0108 FBB1     		cbz	r3, .L286
1806:Drivers/STM32H7xx_HAL_Driver/Src/stm32h7xx_ll_usb.c ****     {
 4624              		.loc 1 1806 5 is_stmt 1 view .LVU1502
1806:Drivers/STM32H7xx_HAL_Driver/Src/stm32h7xx_ll_usb.c ****     {
 4625              		.loc 1 1806 15 is_stmt 0 view .LVU1503
 4626 010a CA79     		ldrb	r2, [r1, #7]	@ zero_extendqisi2
 4627              	.LVL380:
1806:Drivers/STM32H7xx_HAL_Driver/Src/stm32h7xx_ll_usb.c ****     {
ARM GAS  /var/folders/26/q55yrwgs1ql1lprjdslmzz800000gn/T//ccC08pEc.s 			page 137


 4628              		.loc 1 1806 5 view .LVU1504
 4629 010c 032A     		cmp	r2, #3
 4630 010e 15D8     		bhi	.L293
 4631 0110 DFE802F0 		tbb	[pc, r2]
 4632              	.L295:
 4633 0114 09       		.byte	(.L296-.L295)/2
 4634 0115 1E       		.byte	(.L294-.L295)/2
 4635 0116 09       		.byte	(.L296-.L295)/2
 4636 0117 1E       		.byte	(.L294-.L295)/2
 4637              	.LVL381:
 4638              		.p2align 1
 4639              	.L288:
1765:Drivers/STM32H7xx_HAL_Driver/Src/stm32h7xx_ll_usb.c ****   }
 4640              		.loc 1 1765 5 is_stmt 1 view .LVU1505
1765:Drivers/STM32H7xx_HAL_Driver/Src/stm32h7xx_ll_usb.c ****   }
 4641              		.loc 1 1765 18 is_stmt 0 view .LVU1506
 4642 0118 0C61     		str	r4, [r1, #16]
 4643 011a AEE7     		b	.L289
 4644              	.LVL382:
 4645              	.L291:
1794:Drivers/STM32H7xx_HAL_Driver/Src/stm32h7xx_ll_usb.c ****   }
 4646              		.loc 1 1794 5 is_stmt 1 view .LVU1507
1794:Drivers/STM32H7xx_HAL_Driver/Src/stm32h7xx_ll_usb.c ****   }
 4647              		.loc 1 1794 12 is_stmt 0 view .LVU1508
 4648 011c 039C     		ldr	r4, [sp, #12]
 4649 011e 24F40044 		bic	r4, r4, #32768
 4650 0122 0394     		str	r4, [sp, #12]
 4651 0124 E5E7     		b	.L292
 4652              	.LVL383:
 4653              	.L296:
1812:Drivers/STM32H7xx_HAL_Driver/Src/stm32h7xx_ll_usb.c **** 
 4654              		.loc 1 1812 9 is_stmt 1 view .LVU1509
1812:Drivers/STM32H7xx_HAL_Driver/Src/stm32h7xx_ll_usb.c **** 
 4655              		.loc 1 1812 46 is_stmt 0 view .LVU1510
 4656 0126 0333     		adds	r3, r3, #3
 4657              	.LVL384:
1815:Drivers/STM32H7xx_HAL_Driver/Src/stm32h7xx_ll_usb.c ****         {
 4658              		.loc 1 1815 9 is_stmt 1 view .LVU1511
1815:Drivers/STM32H7xx_HAL_Driver/Src/stm32h7xx_ll_usb.c ****         {
 4659              		.loc 1 1815 30 is_stmt 0 view .LVU1512
 4660 0128 C26A     		ldr	r2, [r0, #44]
1815:Drivers/STM32H7xx_HAL_Driver/Src/stm32h7xx_ll_usb.c ****         {
 4661              		.loc 1 1815 41 view .LVU1513
 4662 012a 92B2     		uxth	r2, r2
1815:Drivers/STM32H7xx_HAL_Driver/Src/stm32h7xx_ll_usb.c ****         {
 4663              		.loc 1 1815 12 view .LVU1514
 4664 012c C3F38F03 		ubfx	r3, r3, #2, #16
 4665              	.LVL385:
1815:Drivers/STM32H7xx_HAL_Driver/Src/stm32h7xx_ll_usb.c ****         {
 4666              		.loc 1 1815 12 view .LVU1515
 4667 0130 9A42     		cmp	r2, r3
 4668 0132 03D2     		bcs	.L293
1818:Drivers/STM32H7xx_HAL_Driver/Src/stm32h7xx_ll_usb.c ****         }
 4669              		.loc 1 1818 11 is_stmt 1 view .LVU1516
1818:Drivers/STM32H7xx_HAL_Driver/Src/stm32h7xx_ll_usb.c ****         }
 4670              		.loc 1 1818 25 is_stmt 0 view .LVU1517
 4671 0134 8369     		ldr	r3, [r0, #24]
ARM GAS  /var/folders/26/q55yrwgs1ql1lprjdslmzz800000gn/T//ccC08pEc.s 			page 138


 4672 0136 43F02003 		orr	r3, r3, #32
 4673 013a 8361     		str	r3, [r0, #24]
 4674              	.LVL386:
 4675              	.L293:
1839:Drivers/STM32H7xx_HAL_Driver/Src/stm32h7xx_ll_usb.c ****   }
 4676              		.loc 1 1839 5 is_stmt 1 view .LVU1518
1839:Drivers/STM32H7xx_HAL_Driver/Src/stm32h7xx_ll_usb.c ****   }
 4677              		.loc 1 1839 11 is_stmt 0 view .LVU1519
 4678 013c 0023     		movs	r3, #0
 4679 013e 0093     		str	r3, [sp]
 4680 0140 8B8A     		ldrh	r3, [r1, #20]
 4681 0142 4A78     		ldrb	r2, [r1, #1]	@ zero_extendqisi2
 4682 0144 C968     		ldr	r1, [r1, #12]
 4683              	.LVL387:
1839:Drivers/STM32H7xx_HAL_Driver/Src/stm32h7xx_ll_usb.c ****   }
 4684              		.loc 1 1839 11 view .LVU1520
 4685 0146 FFF7FEFF 		bl	USB_WritePacket
 4686              	.LVL388:
 4687              	.L286:
1843:Drivers/STM32H7xx_HAL_Driver/Src/stm32h7xx_ll_usb.c **** 
 4688              		.loc 1 1843 1 view .LVU1521
 4689 014a 0020     		movs	r0, #0
 4690 014c 05B0     		add	sp, sp, #20
 4691              	.LCFI53:
 4692              		.cfi_remember_state
 4693              		.cfi_def_cfa_offset 12
 4694              		@ sp needed
 4695 014e 30BD     		pop	{r4, r5, pc}
 4696              	.LVL389:
 4697              	.L294:
 4698              	.LCFI54:
 4699              		.cfi_restore_state
1825:Drivers/STM32H7xx_HAL_Driver/Src/stm32h7xx_ll_usb.c ****         /* check if there is enough space in FIFO space */
 4700              		.loc 1 1825 9 is_stmt 1 view .LVU1522
1825:Drivers/STM32H7xx_HAL_Driver/Src/stm32h7xx_ll_usb.c ****         /* check if there is enough space in FIFO space */
 4701              		.loc 1 1825 46 is_stmt 0 view .LVU1523
 4702 0150 0333     		adds	r3, r3, #3
 4703              	.LVL390:
1827:Drivers/STM32H7xx_HAL_Driver/Src/stm32h7xx_ll_usb.c ****         {
 4704              		.loc 1 1827 9 is_stmt 1 view .LVU1524
1827:Drivers/STM32H7xx_HAL_Driver/Src/stm32h7xx_ll_usb.c ****         {
 4705              		.loc 1 1827 35 is_stmt 0 view .LVU1525
 4706 0152 DCF81020 		ldr	r2, [ip, #16]
1827:Drivers/STM32H7xx_HAL_Driver/Src/stm32h7xx_ll_usb.c ****         {
 4707              		.loc 1 1827 45 view .LVU1526
 4708 0156 92B2     		uxth	r2, r2
1827:Drivers/STM32H7xx_HAL_Driver/Src/stm32h7xx_ll_usb.c ****         {
 4709              		.loc 1 1827 12 view .LVU1527
 4710 0158 C3F38F03 		ubfx	r3, r3, #2, #16
 4711              	.LVL391:
1827:Drivers/STM32H7xx_HAL_Driver/Src/stm32h7xx_ll_usb.c ****         {
 4712              		.loc 1 1827 12 view .LVU1528
 4713 015c 9A42     		cmp	r2, r3
 4714 015e EDD2     		bcs	.L293
1830:Drivers/STM32H7xx_HAL_Driver/Src/stm32h7xx_ll_usb.c ****         }
 4715              		.loc 1 1830 11 is_stmt 1 view .LVU1529
1830:Drivers/STM32H7xx_HAL_Driver/Src/stm32h7xx_ll_usb.c ****         }
ARM GAS  /var/folders/26/q55yrwgs1ql1lprjdslmzz800000gn/T//ccC08pEc.s 			page 139


 4716              		.loc 1 1830 25 is_stmt 0 view .LVU1530
 4717 0160 8369     		ldr	r3, [r0, #24]
 4718 0162 43F08063 		orr	r3, r3, #67108864
 4719 0166 8361     		str	r3, [r0, #24]
 4720              	.LVL392:
1830:Drivers/STM32H7xx_HAL_Driver/Src/stm32h7xx_ll_usb.c ****         }
 4721              		.loc 1 1830 25 view .LVU1531
 4722 0168 E8E7     		b	.L293
 4723              	.L302:
 4724 016a 00BF     		.align	2
 4725              	.L301:
 4726 016c 0000F81F 		.word	536346624
 4727              		.cfi_endproc
 4728              	.LFE185:
 4730              		.section	.text.USB_StopHost,"ax",%progbits
 4731              		.align	1
 4732              		.global	USB_StopHost
 4733              		.syntax unified
 4734              		.thumb
 4735              		.thumb_func
 4737              	USB_StopHost:
 4738              	.LVL393:
 4739              	.LFB189:
1955:Drivers/STM32H7xx_HAL_Driver/Src/stm32h7xx_ll_usb.c **** 
1956:Drivers/STM32H7xx_HAL_Driver/Src/stm32h7xx_ll_usb.c **** /**
1957:Drivers/STM32H7xx_HAL_Driver/Src/stm32h7xx_ll_usb.c ****   * @brief  Stop Host Core
1958:Drivers/STM32H7xx_HAL_Driver/Src/stm32h7xx_ll_usb.c ****   * @param  USBx  Selected device
1959:Drivers/STM32H7xx_HAL_Driver/Src/stm32h7xx_ll_usb.c ****   * @retval HAL state
1960:Drivers/STM32H7xx_HAL_Driver/Src/stm32h7xx_ll_usb.c ****   */
1961:Drivers/STM32H7xx_HAL_Driver/Src/stm32h7xx_ll_usb.c **** HAL_StatusTypeDef USB_StopHost(USB_OTG_GlobalTypeDef *USBx)
1962:Drivers/STM32H7xx_HAL_Driver/Src/stm32h7xx_ll_usb.c **** {
 4740              		.loc 1 1962 1 is_stmt 1 view -0
 4741              		.cfi_startproc
 4742              		@ args = 0, pretend = 0, frame = 0
 4743              		@ frame_needed = 0, uses_anonymous_args = 0
 4744              		.loc 1 1962 1 is_stmt 0 view .LVU1533
 4745 0000 10B5     		push	{r4, lr}
 4746              	.LCFI55:
 4747              		.cfi_def_cfa_offset 8
 4748              		.cfi_offset 4, -8
 4749              		.cfi_offset 14, -4
 4750 0002 0446     		mov	r4, r0
1963:Drivers/STM32H7xx_HAL_Driver/Src/stm32h7xx_ll_usb.c ****   uint32_t USBx_BASE = (uint32_t)USBx;
 4751              		.loc 1 1963 3 is_stmt 1 view .LVU1534
 4752              	.LVL394:
1964:Drivers/STM32H7xx_HAL_Driver/Src/stm32h7xx_ll_usb.c ****   uint32_t count = 0U;
 4753              		.loc 1 1964 3 view .LVU1535
1965:Drivers/STM32H7xx_HAL_Driver/Src/stm32h7xx_ll_usb.c ****   uint32_t value;
 4754              		.loc 1 1965 3 view .LVU1536
1966:Drivers/STM32H7xx_HAL_Driver/Src/stm32h7xx_ll_usb.c ****   uint32_t i;
 4755              		.loc 1 1966 3 view .LVU1537
1967:Drivers/STM32H7xx_HAL_Driver/Src/stm32h7xx_ll_usb.c **** 
1968:Drivers/STM32H7xx_HAL_Driver/Src/stm32h7xx_ll_usb.c ****   (void)USB_DisableGlobalInt(USBx);
 4756              		.loc 1 1968 3 view .LVU1538
 4757              		.loc 1 1968 9 is_stmt 0 view .LVU1539
 4758 0004 FFF7FEFF 		bl	USB_DisableGlobalInt
 4759              	.LVL395:
ARM GAS  /var/folders/26/q55yrwgs1ql1lprjdslmzz800000gn/T//ccC08pEc.s 			page 140


1969:Drivers/STM32H7xx_HAL_Driver/Src/stm32h7xx_ll_usb.c **** 
1970:Drivers/STM32H7xx_HAL_Driver/Src/stm32h7xx_ll_usb.c ****   /* Flush FIFO */
1971:Drivers/STM32H7xx_HAL_Driver/Src/stm32h7xx_ll_usb.c ****   (void)USB_FlushTxFifo(USBx, 0x10U);
 4760              		.loc 1 1971 3 is_stmt 1 view .LVU1540
 4761              		.loc 1 1971 9 is_stmt 0 view .LVU1541
 4762 0008 1021     		movs	r1, #16
 4763 000a 2046     		mov	r0, r4
 4764 000c FFF7FEFF 		bl	USB_FlushTxFifo
 4765              	.LVL396:
1972:Drivers/STM32H7xx_HAL_Driver/Src/stm32h7xx_ll_usb.c ****   (void)USB_FlushRxFifo(USBx);
 4766              		.loc 1 1972 3 is_stmt 1 view .LVU1542
 4767              		.loc 1 1972 9 is_stmt 0 view .LVU1543
 4768 0010 2046     		mov	r0, r4
 4769 0012 FFF7FEFF 		bl	USB_FlushRxFifo
 4770              	.LVL397:
1973:Drivers/STM32H7xx_HAL_Driver/Src/stm32h7xx_ll_usb.c **** 
1974:Drivers/STM32H7xx_HAL_Driver/Src/stm32h7xx_ll_usb.c ****   /* Flush out any leftover queued requests. */
1975:Drivers/STM32H7xx_HAL_Driver/Src/stm32h7xx_ll_usb.c ****   for (i = 0U; i <= 15U; i++)
 4771              		.loc 1 1975 3 is_stmt 1 view .LVU1544
 4772              		.loc 1 1975 10 is_stmt 0 view .LVU1545
 4773 0016 0022     		movs	r2, #0
 4774              		.loc 1 1975 3 view .LVU1546
 4775 0018 0AE0     		b	.L304
 4776              	.LVL398:
 4777              	.L305:
1976:Drivers/STM32H7xx_HAL_Driver/Src/stm32h7xx_ll_usb.c ****   {
1977:Drivers/STM32H7xx_HAL_Driver/Src/stm32h7xx_ll_usb.c ****     value = USBx_HC(i)->HCCHAR;
 4778              		.loc 1 1977 5 is_stmt 1 discriminator 3 view .LVU1547
 4779              		.loc 1 1977 13 is_stmt 0 discriminator 3 view .LVU1548
 4780 001a 04EB4211 		add	r1, r4, r2, lsl #5
 4781              		.loc 1 1977 11 discriminator 3 view .LVU1549
 4782 001e D1F80035 		ldr	r3, [r1, #1280]
 4783              	.LVL399:
1978:Drivers/STM32H7xx_HAL_Driver/Src/stm32h7xx_ll_usb.c ****     value |=  USB_OTG_HCCHAR_CHDIS;
 4784              		.loc 1 1978 5 is_stmt 1 discriminator 3 view .LVU1550
1979:Drivers/STM32H7xx_HAL_Driver/Src/stm32h7xx_ll_usb.c ****     value &= ~USB_OTG_HCCHAR_CHENA;
 4785              		.loc 1 1979 5 discriminator 3 view .LVU1551
1980:Drivers/STM32H7xx_HAL_Driver/Src/stm32h7xx_ll_usb.c ****     value &= ~USB_OTG_HCCHAR_EPDIR;
 4786              		.loc 1 1980 5 discriminator 3 view .LVU1552
 4787 0022 23F08023 		bic	r3, r3, #-2147450880
 4788              	.LVL400:
 4789              		.loc 1 1980 11 is_stmt 0 discriminator 3 view .LVU1553
 4790 0026 43F08043 		orr	r3, r3, #1073741824
 4791              	.LVL401:
1981:Drivers/STM32H7xx_HAL_Driver/Src/stm32h7xx_ll_usb.c ****     USBx_HC(i)->HCCHAR = value;
 4792              		.loc 1 1981 5 is_stmt 1 discriminator 3 view .LVU1554
 4793              		.loc 1 1981 24 is_stmt 0 discriminator 3 view .LVU1555
 4794 002a C1F80035 		str	r3, [r1, #1280]
1975:Drivers/STM32H7xx_HAL_Driver/Src/stm32h7xx_ll_usb.c ****   {
 4795              		.loc 1 1975 26 is_stmt 1 discriminator 3 view .LVU1556
1975:Drivers/STM32H7xx_HAL_Driver/Src/stm32h7xx_ll_usb.c ****   {
 4796              		.loc 1 1975 27 is_stmt 0 discriminator 3 view .LVU1557
 4797 002e 0132     		adds	r2, r2, #1
 4798              	.LVL402:
 4799              	.L304:
1975:Drivers/STM32H7xx_HAL_Driver/Src/stm32h7xx_ll_usb.c ****   {
 4800              		.loc 1 1975 16 is_stmt 1 discriminator 1 view .LVU1558
ARM GAS  /var/folders/26/q55yrwgs1ql1lprjdslmzz800000gn/T//ccC08pEc.s 			page 141


1975:Drivers/STM32H7xx_HAL_Driver/Src/stm32h7xx_ll_usb.c ****   {
 4801              		.loc 1 1975 3 is_stmt 0 discriminator 1 view .LVU1559
 4802 0030 0F2A     		cmp	r2, #15
 4803 0032 F2D9     		bls	.L305
1982:Drivers/STM32H7xx_HAL_Driver/Src/stm32h7xx_ll_usb.c ****   }
1983:Drivers/STM32H7xx_HAL_Driver/Src/stm32h7xx_ll_usb.c **** 
1984:Drivers/STM32H7xx_HAL_Driver/Src/stm32h7xx_ll_usb.c ****   /* Halt all channels to put them into a known state. */
1985:Drivers/STM32H7xx_HAL_Driver/Src/stm32h7xx_ll_usb.c ****   for (i = 0U; i <= 15U; i++)
 4804              		.loc 1 1985 10 view .LVU1560
 4805 0034 0020     		movs	r0, #0
1964:Drivers/STM32H7xx_HAL_Driver/Src/stm32h7xx_ll_usb.c ****   uint32_t value;
 4806              		.loc 1 1964 12 view .LVU1561
 4807 0036 0346     		mov	r3, r0
 4808 0038 00E0     		b	.L306
 4809              	.LVL403:
 4810              	.L307:
 4811              		.loc 1 1985 26 is_stmt 1 discriminator 2 view .LVU1562
 4812              		.loc 1 1985 27 is_stmt 0 discriminator 2 view .LVU1563
 4813 003a 0130     		adds	r0, r0, #1
 4814              	.LVL404:
 4815              	.L306:
 4816              		.loc 1 1985 16 is_stmt 1 discriminator 1 view .LVU1564
 4817              		.loc 1 1985 3 is_stmt 0 discriminator 1 view .LVU1565
 4818 003c 0F28     		cmp	r0, #15
 4819 003e 13D8     		bhi	.L311
1986:Drivers/STM32H7xx_HAL_Driver/Src/stm32h7xx_ll_usb.c ****   {
1987:Drivers/STM32H7xx_HAL_Driver/Src/stm32h7xx_ll_usb.c ****     value = USBx_HC(i)->HCCHAR;
 4820              		.loc 1 1987 5 is_stmt 1 view .LVU1566
 4821              		.loc 1 1987 13 is_stmt 0 view .LVU1567
 4822 0040 04EB401C 		add	ip, r4, r0, lsl #5
 4823 0044 0CF5A061 		add	r1, ip, #1280
 4824              		.loc 1 1987 11 view .LVU1568
 4825 0048 DCF80025 		ldr	r2, [ip, #1280]
 4826              	.LVL405:
1988:Drivers/STM32H7xx_HAL_Driver/Src/stm32h7xx_ll_usb.c ****     value |= USB_OTG_HCCHAR_CHDIS;
 4827              		.loc 1 1988 5 is_stmt 1 view .LVU1569
1989:Drivers/STM32H7xx_HAL_Driver/Src/stm32h7xx_ll_usb.c ****     value |= USB_OTG_HCCHAR_CHENA;
 4828              		.loc 1 1989 5 view .LVU1570
1990:Drivers/STM32H7xx_HAL_Driver/Src/stm32h7xx_ll_usb.c ****     value &= ~USB_OTG_HCCHAR_EPDIR;
 4829              		.loc 1 1990 5 view .LVU1571
 4830 004c 22F40042 		bic	r2, r2, #32768
 4831              	.LVL406:
 4832              		.loc 1 1990 11 is_stmt 0 view .LVU1572
 4833 0050 42F04042 		orr	r2, r2, #-1073741824
 4834              	.LVL407:
1991:Drivers/STM32H7xx_HAL_Driver/Src/stm32h7xx_ll_usb.c ****     USBx_HC(i)->HCCHAR = value;
 4835              		.loc 1 1991 5 is_stmt 1 view .LVU1573
 4836              		.loc 1 1991 24 is_stmt 0 view .LVU1574
 4837 0054 CCF80025 		str	r2, [ip, #1280]
 4838              	.LVL408:
 4839              	.L308:
1992:Drivers/STM32H7xx_HAL_Driver/Src/stm32h7xx_ll_usb.c **** 
1993:Drivers/STM32H7xx_HAL_Driver/Src/stm32h7xx_ll_usb.c ****     do
 4840              		.loc 1 1993 5 is_stmt 1 view .LVU1575
1994:Drivers/STM32H7xx_HAL_Driver/Src/stm32h7xx_ll_usb.c ****     {
1995:Drivers/STM32H7xx_HAL_Driver/Src/stm32h7xx_ll_usb.c ****       if (++count > 1000U)
 4841              		.loc 1 1995 7 view .LVU1576
ARM GAS  /var/folders/26/q55yrwgs1ql1lprjdslmzz800000gn/T//ccC08pEc.s 			page 142


 4842              		.loc 1 1995 10 is_stmt 0 view .LVU1577
 4843 0058 0133     		adds	r3, r3, #1
 4844              	.LVL409:
 4845              		.loc 1 1995 10 view .LVU1578
 4846 005a B3F57A7F 		cmp	r3, #1000
 4847 005e ECD8     		bhi	.L307
1996:Drivers/STM32H7xx_HAL_Driver/Src/stm32h7xx_ll_usb.c ****       {
1997:Drivers/STM32H7xx_HAL_Driver/Src/stm32h7xx_ll_usb.c ****         break;
1998:Drivers/STM32H7xx_HAL_Driver/Src/stm32h7xx_ll_usb.c ****       }
1999:Drivers/STM32H7xx_HAL_Driver/Src/stm32h7xx_ll_usb.c ****     } while ((USBx_HC(i)->HCCHAR & USB_OTG_HCCHAR_CHENA) == USB_OTG_HCCHAR_CHENA);
 4848              		.loc 1 1999 13 is_stmt 1 view .LVU1579
 4849              		.loc 1 1999 25 is_stmt 0 view .LVU1580
 4850 0060 0A68     		ldr	r2, [r1]
 4851              		.loc 1 1999 5 view .LVU1581
 4852 0062 002A     		cmp	r2, #0
 4853 0064 F8DB     		blt	.L308
 4854 0066 E8E7     		b	.L307
 4855              	.LVL410:
 4856              	.L311:
2000:Drivers/STM32H7xx_HAL_Driver/Src/stm32h7xx_ll_usb.c ****   }
2001:Drivers/STM32H7xx_HAL_Driver/Src/stm32h7xx_ll_usb.c **** 
2002:Drivers/STM32H7xx_HAL_Driver/Src/stm32h7xx_ll_usb.c ****   /* Clear any pending Host interrupts */
2003:Drivers/STM32H7xx_HAL_Driver/Src/stm32h7xx_ll_usb.c ****   USBx_HOST->HAINT = 0xFFFFFFFFU;
 4857              		.loc 1 2003 3 is_stmt 1 view .LVU1582
 4858              		.loc 1 2003 20 is_stmt 0 view .LVU1583
 4859 0068 4FF0FF33 		mov	r3, #-1
 4860              	.LVL411:
 4861              		.loc 1 2003 20 view .LVU1584
 4862 006c C4F81434 		str	r3, [r4, #1044]
2004:Drivers/STM32H7xx_HAL_Driver/Src/stm32h7xx_ll_usb.c ****   USBx->GINTSTS = 0xFFFFFFFFU;
 4863              		.loc 1 2004 3 is_stmt 1 view .LVU1585
 4864              		.loc 1 2004 17 is_stmt 0 view .LVU1586
 4865 0070 6361     		str	r3, [r4, #20]
2005:Drivers/STM32H7xx_HAL_Driver/Src/stm32h7xx_ll_usb.c **** 
2006:Drivers/STM32H7xx_HAL_Driver/Src/stm32h7xx_ll_usb.c ****   (void)USB_EnableGlobalInt(USBx);
 4866              		.loc 1 2006 3 is_stmt 1 view .LVU1587
 4867              		.loc 1 2006 9 is_stmt 0 view .LVU1588
 4868 0072 2046     		mov	r0, r4
 4869              	.LVL412:
 4870              		.loc 1 2006 9 view .LVU1589
 4871 0074 FFF7FEFF 		bl	USB_EnableGlobalInt
 4872              	.LVL413:
2007:Drivers/STM32H7xx_HAL_Driver/Src/stm32h7xx_ll_usb.c **** 
2008:Drivers/STM32H7xx_HAL_Driver/Src/stm32h7xx_ll_usb.c ****   return HAL_OK;
 4873              		.loc 1 2008 3 is_stmt 1 view .LVU1590
2009:Drivers/STM32H7xx_HAL_Driver/Src/stm32h7xx_ll_usb.c **** }
 4874              		.loc 1 2009 1 is_stmt 0 view .LVU1591
 4875 0078 0020     		movs	r0, #0
 4876 007a 10BD     		pop	{r4, pc}
 4877              		.loc 1 2009 1 view .LVU1592
 4878              		.cfi_endproc
 4879              	.LFE189:
 4881              		.section	.text.USB_ActivateRemoteWakeup,"ax",%progbits
 4882              		.align	1
 4883              		.global	USB_ActivateRemoteWakeup
 4884              		.syntax unified
 4885              		.thumb
ARM GAS  /var/folders/26/q55yrwgs1ql1lprjdslmzz800000gn/T//ccC08pEc.s 			page 143


 4886              		.thumb_func
 4888              	USB_ActivateRemoteWakeup:
 4889              	.LVL414:
 4890              	.LFB190:
2010:Drivers/STM32H7xx_HAL_Driver/Src/stm32h7xx_ll_usb.c **** 
2011:Drivers/STM32H7xx_HAL_Driver/Src/stm32h7xx_ll_usb.c **** /**
2012:Drivers/STM32H7xx_HAL_Driver/Src/stm32h7xx_ll_usb.c ****   * @brief  USB_ActivateRemoteWakeup active remote wakeup signalling
2013:Drivers/STM32H7xx_HAL_Driver/Src/stm32h7xx_ll_usb.c ****   * @param  USBx Selected device
2014:Drivers/STM32H7xx_HAL_Driver/Src/stm32h7xx_ll_usb.c ****   * @retval HAL status
2015:Drivers/STM32H7xx_HAL_Driver/Src/stm32h7xx_ll_usb.c ****   */
2016:Drivers/STM32H7xx_HAL_Driver/Src/stm32h7xx_ll_usb.c **** HAL_StatusTypeDef USB_ActivateRemoteWakeup(USB_OTG_GlobalTypeDef *USBx)
2017:Drivers/STM32H7xx_HAL_Driver/Src/stm32h7xx_ll_usb.c **** {
 4891              		.loc 1 2017 1 is_stmt 1 view -0
 4892              		.cfi_startproc
 4893              		@ args = 0, pretend = 0, frame = 0
 4894              		@ frame_needed = 0, uses_anonymous_args = 0
 4895              		@ link register save eliminated.
2018:Drivers/STM32H7xx_HAL_Driver/Src/stm32h7xx_ll_usb.c ****   uint32_t USBx_BASE = (uint32_t)USBx;
 4896              		.loc 1 2018 3 view .LVU1594
2019:Drivers/STM32H7xx_HAL_Driver/Src/stm32h7xx_ll_usb.c **** 
2020:Drivers/STM32H7xx_HAL_Driver/Src/stm32h7xx_ll_usb.c ****   if ((USBx_DEVICE->DSTS & USB_OTG_DSTS_SUSPSTS) == USB_OTG_DSTS_SUSPSTS)
 4897              		.loc 1 2020 3 view .LVU1595
 4898              		.loc 1 2020 19 is_stmt 0 view .LVU1596
 4899 0000 D0F80838 		ldr	r3, [r0, #2056]
 4900              		.loc 1 2020 8 view .LVU1597
 4901 0004 00F50060 		add	r0, r0, #2048
 4902              	.LVL415:
 4903              		.loc 1 2020 6 view .LVU1598
 4904 0008 13F0010F 		tst	r3, #1
 4905 000c 03D0     		beq	.L313
2021:Drivers/STM32H7xx_HAL_Driver/Src/stm32h7xx_ll_usb.c ****   {
2022:Drivers/STM32H7xx_HAL_Driver/Src/stm32h7xx_ll_usb.c ****     /* active Remote wakeup signalling */
2023:Drivers/STM32H7xx_HAL_Driver/Src/stm32h7xx_ll_usb.c ****     USBx_DEVICE->DCTL |= USB_OTG_DCTL_RWUSIG;
 4906              		.loc 1 2023 5 is_stmt 1 view .LVU1599
 4907              		.loc 1 2023 23 is_stmt 0 view .LVU1600
 4908 000e 4368     		ldr	r3, [r0, #4]
 4909 0010 43F00103 		orr	r3, r3, #1
 4910 0014 4360     		str	r3, [r0, #4]
 4911              	.L313:
2024:Drivers/STM32H7xx_HAL_Driver/Src/stm32h7xx_ll_usb.c ****   }
2025:Drivers/STM32H7xx_HAL_Driver/Src/stm32h7xx_ll_usb.c **** 
2026:Drivers/STM32H7xx_HAL_Driver/Src/stm32h7xx_ll_usb.c ****   return HAL_OK;
 4912              		.loc 1 2026 3 is_stmt 1 view .LVU1601
2027:Drivers/STM32H7xx_HAL_Driver/Src/stm32h7xx_ll_usb.c **** }
 4913              		.loc 1 2027 1 is_stmt 0 view .LVU1602
 4914 0016 0020     		movs	r0, #0
 4915              	.LVL416:
 4916              		.loc 1 2027 1 view .LVU1603
 4917 0018 7047     		bx	lr
 4918              		.cfi_endproc
 4919              	.LFE190:
 4921              		.section	.text.USB_DeActivateRemoteWakeup,"ax",%progbits
 4922              		.align	1
 4923              		.global	USB_DeActivateRemoteWakeup
 4924              		.syntax unified
 4925              		.thumb
 4926              		.thumb_func
ARM GAS  /var/folders/26/q55yrwgs1ql1lprjdslmzz800000gn/T//ccC08pEc.s 			page 144


 4928              	USB_DeActivateRemoteWakeup:
 4929              	.LVL417:
 4930              	.LFB191:
2028:Drivers/STM32H7xx_HAL_Driver/Src/stm32h7xx_ll_usb.c **** 
2029:Drivers/STM32H7xx_HAL_Driver/Src/stm32h7xx_ll_usb.c **** /**
2030:Drivers/STM32H7xx_HAL_Driver/Src/stm32h7xx_ll_usb.c ****   * @brief  USB_DeActivateRemoteWakeup de-active remote wakeup signalling
2031:Drivers/STM32H7xx_HAL_Driver/Src/stm32h7xx_ll_usb.c ****   * @param  USBx Selected device
2032:Drivers/STM32H7xx_HAL_Driver/Src/stm32h7xx_ll_usb.c ****   * @retval HAL status
2033:Drivers/STM32H7xx_HAL_Driver/Src/stm32h7xx_ll_usb.c ****   */
2034:Drivers/STM32H7xx_HAL_Driver/Src/stm32h7xx_ll_usb.c **** HAL_StatusTypeDef USB_DeActivateRemoteWakeup(USB_OTG_GlobalTypeDef *USBx)
2035:Drivers/STM32H7xx_HAL_Driver/Src/stm32h7xx_ll_usb.c **** {
 4931              		.loc 1 2035 1 is_stmt 1 view -0
 4932              		.cfi_startproc
 4933              		@ args = 0, pretend = 0, frame = 0
 4934              		@ frame_needed = 0, uses_anonymous_args = 0
 4935              		@ link register save eliminated.
2036:Drivers/STM32H7xx_HAL_Driver/Src/stm32h7xx_ll_usb.c ****   uint32_t USBx_BASE = (uint32_t)USBx;
 4936              		.loc 1 2036 3 view .LVU1605
2037:Drivers/STM32H7xx_HAL_Driver/Src/stm32h7xx_ll_usb.c **** 
2038:Drivers/STM32H7xx_HAL_Driver/Src/stm32h7xx_ll_usb.c ****   /* active Remote wakeup signalling */
2039:Drivers/STM32H7xx_HAL_Driver/Src/stm32h7xx_ll_usb.c ****   USBx_DEVICE->DCTL &= ~(USB_OTG_DCTL_RWUSIG);
 4937              		.loc 1 2039 3 view .LVU1606
 4938              		.loc 1 2039 21 is_stmt 0 view .LVU1607
 4939 0000 D0F80438 		ldr	r3, [r0, #2052]
 4940 0004 23F00103 		bic	r3, r3, #1
 4941 0008 C0F80438 		str	r3, [r0, #2052]
2040:Drivers/STM32H7xx_HAL_Driver/Src/stm32h7xx_ll_usb.c **** 
2041:Drivers/STM32H7xx_HAL_Driver/Src/stm32h7xx_ll_usb.c ****   return HAL_OK;
 4942              		.loc 1 2041 3 is_stmt 1 view .LVU1608
2042:Drivers/STM32H7xx_HAL_Driver/Src/stm32h7xx_ll_usb.c **** }
 4943              		.loc 1 2042 1 is_stmt 0 view .LVU1609
 4944 000c 0020     		movs	r0, #0
 4945              	.LVL418:
 4946              		.loc 1 2042 1 view .LVU1610
 4947 000e 7047     		bx	lr
 4948              		.cfi_endproc
 4949              	.LFE191:
 4951              		.text
 4952              	.Letext0:
 4953              		.file 2 "/usr/local/Cellar/arm-gcc-bin@10/10.3-2021.10_1/arm-none-eabi/include/machine/_default_ty
 4954              		.file 3 "/usr/local/Cellar/arm-gcc-bin@10/10.3-2021.10_1/arm-none-eabi/include/sys/_stdint.h"
 4955              		.file 4 "Drivers/CMSIS/Include/cmsis_gcc.h"
 4956              		.file 5 "Drivers/CMSIS/Device/ST/STM32H7xx/Include/stm32h743xx.h"
 4957              		.file 6 "Drivers/STM32H7xx_HAL_Driver/Inc/stm32h7xx_hal_def.h"
 4958              		.file 7 "Drivers/STM32H7xx_HAL_Driver/Inc/stm32h7xx_ll_usb.h"
 4959              		.file 8 "Drivers/STM32H7xx_HAL_Driver/Inc/stm32h7xx_hal.h"
ARM GAS  /var/folders/26/q55yrwgs1ql1lprjdslmzz800000gn/T//ccC08pEc.s 			page 145


DEFINED SYMBOLS
                            *ABS*:0000000000000000 stm32h7xx_ll_usb.c
/var/folders/26/q55yrwgs1ql1lprjdslmzz800000gn/T//ccC08pEc.s:19     .text.USB_CoreReset:0000000000000000 $t
/var/folders/26/q55yrwgs1ql1lprjdslmzz800000gn/T//ccC08pEc.s:24     .text.USB_CoreReset:0000000000000000 USB_CoreReset
/var/folders/26/q55yrwgs1ql1lprjdslmzz800000gn/T//ccC08pEc.s:101    .text.USB_CoreReset:0000000000000038 $d
/var/folders/26/q55yrwgs1ql1lprjdslmzz800000gn/T//ccC08pEc.s:106    .text.USB_CoreInit:0000000000000000 $t
/var/folders/26/q55yrwgs1ql1lprjdslmzz800000gn/T//ccC08pEc.s:112    .text.USB_CoreInit:0000000000000000 USB_CoreInit
/var/folders/26/q55yrwgs1ql1lprjdslmzz800000gn/T//ccC08pEc.s:257    .text.USB_CoreInit:0000000000000094 $d
/var/folders/26/q55yrwgs1ql1lprjdslmzz800000gn/T//ccC08pEc.s:263    .text.USB_SetTurnaroundTime:0000000000000000 $t
/var/folders/26/q55yrwgs1ql1lprjdslmzz800000gn/T//ccC08pEc.s:269    .text.USB_SetTurnaroundTime:0000000000000000 USB_SetTurnaroundTime
/var/folders/26/q55yrwgs1ql1lprjdslmzz800000gn/T//ccC08pEc.s:449    .text.USB_SetTurnaroundTime:000000000000009c $d
/var/folders/26/q55yrwgs1ql1lprjdslmzz800000gn/T//ccC08pEc.s:471    .text.USB_EnableGlobalInt:0000000000000000 $t
/var/folders/26/q55yrwgs1ql1lprjdslmzz800000gn/T//ccC08pEc.s:477    .text.USB_EnableGlobalInt:0000000000000000 USB_EnableGlobalInt
/var/folders/26/q55yrwgs1ql1lprjdslmzz800000gn/T//ccC08pEc.s:500    .text.USB_DisableGlobalInt:0000000000000000 $t
/var/folders/26/q55yrwgs1ql1lprjdslmzz800000gn/T//ccC08pEc.s:506    .text.USB_DisableGlobalInt:0000000000000000 USB_DisableGlobalInt
/var/folders/26/q55yrwgs1ql1lprjdslmzz800000gn/T//ccC08pEc.s:529    .text.USB_SetCurrentMode:0000000000000000 $t
/var/folders/26/q55yrwgs1ql1lprjdslmzz800000gn/T//ccC08pEc.s:535    .text.USB_SetCurrentMode:0000000000000000 USB_SetCurrentMode
/var/folders/26/q55yrwgs1ql1lprjdslmzz800000gn/T//ccC08pEc.s:596    .text.USB_FlushTxFifo:0000000000000000 $t
/var/folders/26/q55yrwgs1ql1lprjdslmzz800000gn/T//ccC08pEc.s:602    .text.USB_FlushTxFifo:0000000000000000 USB_FlushTxFifo
/var/folders/26/q55yrwgs1ql1lprjdslmzz800000gn/T//ccC08pEc.s:653    .text.USB_FlushTxFifo:0000000000000024 $d
/var/folders/26/q55yrwgs1ql1lprjdslmzz800000gn/T//ccC08pEc.s:658    .text.USB_FlushRxFifo:0000000000000000 $t
/var/folders/26/q55yrwgs1ql1lprjdslmzz800000gn/T//ccC08pEc.s:664    .text.USB_FlushRxFifo:0000000000000000 USB_FlushRxFifo
/var/folders/26/q55yrwgs1ql1lprjdslmzz800000gn/T//ccC08pEc.s:711    .text.USB_FlushRxFifo:0000000000000020 $d
/var/folders/26/q55yrwgs1ql1lprjdslmzz800000gn/T//ccC08pEc.s:716    .text.USB_SetDevSpeed:0000000000000000 $t
/var/folders/26/q55yrwgs1ql1lprjdslmzz800000gn/T//ccC08pEc.s:722    .text.USB_SetDevSpeed:0000000000000000 USB_SetDevSpeed
/var/folders/26/q55yrwgs1ql1lprjdslmzz800000gn/T//ccC08pEc.s:748    .text.USB_DevInit:0000000000000000 $t
/var/folders/26/q55yrwgs1ql1lprjdslmzz800000gn/T//ccC08pEc.s:754    .text.USB_DevInit:0000000000000000 USB_DevInit
/var/folders/26/q55yrwgs1ql1lprjdslmzz800000gn/T//ccC08pEc.s:1113   .text.USB_DevInit:0000000000000180 $d
/var/folders/26/q55yrwgs1ql1lprjdslmzz800000gn/T//ccC08pEc.s:1119   .text.USB_GetDevSpeed:0000000000000000 $t
/var/folders/26/q55yrwgs1ql1lprjdslmzz800000gn/T//ccC08pEc.s:1125   .text.USB_GetDevSpeed:0000000000000000 USB_GetDevSpeed
/var/folders/26/q55yrwgs1ql1lprjdslmzz800000gn/T//ccC08pEc.s:1175   .text.USB_ActivateEndpoint:0000000000000000 $t
/var/folders/26/q55yrwgs1ql1lprjdslmzz800000gn/T//ccC08pEc.s:1181   .text.USB_ActivateEndpoint:0000000000000000 USB_ActivateEndpoint
/var/folders/26/q55yrwgs1ql1lprjdslmzz800000gn/T//ccC08pEc.s:1297   .text.USB_ActivateEndpoint:0000000000000098 $d
/var/folders/26/q55yrwgs1ql1lprjdslmzz800000gn/T//ccC08pEc.s:1302   .text.USB_ActivateDedicatedEndpoint:0000000000000000 $t
/var/folders/26/q55yrwgs1ql1lprjdslmzz800000gn/T//ccC08pEc.s:1308   .text.USB_ActivateDedicatedEndpoint:0000000000000000 USB_ActivateDedicatedEndpoint
/var/folders/26/q55yrwgs1ql1lprjdslmzz800000gn/T//ccC08pEc.s:1442   .text.USB_ActivateDedicatedEndpoint:0000000000000098 $d
/var/folders/26/q55yrwgs1ql1lprjdslmzz800000gn/T//ccC08pEc.s:1447   .text.USB_DeactivateEndpoint:0000000000000000 $t
/var/folders/26/q55yrwgs1ql1lprjdslmzz800000gn/T//ccC08pEc.s:1453   .text.USB_DeactivateEndpoint:0000000000000000 USB_DeactivateEndpoint
/var/folders/26/q55yrwgs1ql1lprjdslmzz800000gn/T//ccC08pEc.s:1618   .text.USB_DeactivateEndpoint:00000000000000d8 $d
/var/folders/26/q55yrwgs1ql1lprjdslmzz800000gn/T//ccC08pEc.s:1624   .text.USB_DeactivateDedicatedEndpoint:0000000000000000 $t
/var/folders/26/q55yrwgs1ql1lprjdslmzz800000gn/T//ccC08pEc.s:1630   .text.USB_DeactivateDedicatedEndpoint:0000000000000000 USB_DeactivateDedicatedEndpoint
/var/folders/26/q55yrwgs1ql1lprjdslmzz800000gn/T//ccC08pEc.s:1753   .text.USB_EP0StartXfer:0000000000000000 $t
/var/folders/26/q55yrwgs1ql1lprjdslmzz800000gn/T//ccC08pEc.s:1759   .text.USB_EP0StartXfer:0000000000000000 USB_EP0StartXfer
/var/folders/26/q55yrwgs1ql1lprjdslmzz800000gn/T//ccC08pEc.s:1997   .text.USB_EP0StartXfer:0000000000000114 $d
/var/folders/26/q55yrwgs1ql1lprjdslmzz800000gn/T//ccC08pEc.s:2003   .text.USB_WritePacket:0000000000000000 $t
/var/folders/26/q55yrwgs1ql1lprjdslmzz800000gn/T//ccC08pEc.s:2009   .text.USB_WritePacket:0000000000000000 USB_WritePacket
/var/folders/26/q55yrwgs1ql1lprjdslmzz800000gn/T//ccC08pEc.s:2079   .text.USB_EPStartXfer:0000000000000000 $t
/var/folders/26/q55yrwgs1ql1lprjdslmzz800000gn/T//ccC08pEc.s:2085   .text.USB_EPStartXfer:0000000000000000 USB_EPStartXfer
/var/folders/26/q55yrwgs1ql1lprjdslmzz800000gn/T//ccC08pEc.s:2479   .text.USB_EPStartXfer:0000000000000228 $d
/var/folders/26/q55yrwgs1ql1lprjdslmzz800000gn/T//ccC08pEc.s:2486   .text.USB_ReadPacket:0000000000000000 $t
/var/folders/26/q55yrwgs1ql1lprjdslmzz800000gn/T//ccC08pEc.s:2492   .text.USB_ReadPacket:0000000000000000 USB_ReadPacket
/var/folders/26/q55yrwgs1ql1lprjdslmzz800000gn/T//ccC08pEc.s:2602   .text.USB_EPSetStall:0000000000000000 $t
/var/folders/26/q55yrwgs1ql1lprjdslmzz800000gn/T//ccC08pEc.s:2608   .text.USB_EPSetStall:0000000000000000 USB_EPSetStall
/var/folders/26/q55yrwgs1ql1lprjdslmzz800000gn/T//ccC08pEc.s:2689   .text.USB_EPClearStall:0000000000000000 $t
/var/folders/26/q55yrwgs1ql1lprjdslmzz800000gn/T//ccC08pEc.s:2695   .text.USB_EPClearStall:0000000000000000 USB_EPClearStall
/var/folders/26/q55yrwgs1ql1lprjdslmzz800000gn/T//ccC08pEc.s:2778   .text.USB_StopDevice:0000000000000000 $t
/var/folders/26/q55yrwgs1ql1lprjdslmzz800000gn/T//ccC08pEc.s:2784   .text.USB_StopDevice:0000000000000000 USB_StopDevice
ARM GAS  /var/folders/26/q55yrwgs1ql1lprjdslmzz800000gn/T//ccC08pEc.s 			page 146


/var/folders/26/q55yrwgs1ql1lprjdslmzz800000gn/T//ccC08pEc.s:2867   .text.USB_SetDevAddress:0000000000000000 $t
/var/folders/26/q55yrwgs1ql1lprjdslmzz800000gn/T//ccC08pEc.s:2873   .text.USB_SetDevAddress:0000000000000000 USB_SetDevAddress
/var/folders/26/q55yrwgs1ql1lprjdslmzz800000gn/T//ccC08pEc.s:2908   .text.USB_DevConnect:0000000000000000 $t
/var/folders/26/q55yrwgs1ql1lprjdslmzz800000gn/T//ccC08pEc.s:2914   .text.USB_DevConnect:0000000000000000 USB_DevConnect
/var/folders/26/q55yrwgs1ql1lprjdslmzz800000gn/T//ccC08pEc.s:2943   .text.USB_DevDisconnect:0000000000000000 $t
/var/folders/26/q55yrwgs1ql1lprjdslmzz800000gn/T//ccC08pEc.s:2949   .text.USB_DevDisconnect:0000000000000000 USB_DevDisconnect
/var/folders/26/q55yrwgs1ql1lprjdslmzz800000gn/T//ccC08pEc.s:2978   .text.USB_ReadInterrupts:0000000000000000 $t
/var/folders/26/q55yrwgs1ql1lprjdslmzz800000gn/T//ccC08pEc.s:2984   .text.USB_ReadInterrupts:0000000000000000 USB_ReadInterrupts
/var/folders/26/q55yrwgs1ql1lprjdslmzz800000gn/T//ccC08pEc.s:3011   .text.USB_ReadDevAllOutEpInterrupt:0000000000000000 $t
/var/folders/26/q55yrwgs1ql1lprjdslmzz800000gn/T//ccC08pEc.s:3017   .text.USB_ReadDevAllOutEpInterrupt:0000000000000000 USB_ReadDevAllOutEpInterrupt
/var/folders/26/q55yrwgs1ql1lprjdslmzz800000gn/T//ccC08pEc.s:3050   .text.USB_ReadDevAllInEpInterrupt:0000000000000000 $t
/var/folders/26/q55yrwgs1ql1lprjdslmzz800000gn/T//ccC08pEc.s:3056   .text.USB_ReadDevAllInEpInterrupt:0000000000000000 USB_ReadDevAllInEpInterrupt
/var/folders/26/q55yrwgs1ql1lprjdslmzz800000gn/T//ccC08pEc.s:3089   .text.USB_ReadDevOutEPInterrupt:0000000000000000 $t
/var/folders/26/q55yrwgs1ql1lprjdslmzz800000gn/T//ccC08pEc.s:3095   .text.USB_ReadDevOutEPInterrupt:0000000000000000 USB_ReadDevOutEPInterrupt
/var/folders/26/q55yrwgs1ql1lprjdslmzz800000gn/T//ccC08pEc.s:3129   .text.USB_ReadDevInEPInterrupt:0000000000000000 $t
/var/folders/26/q55yrwgs1ql1lprjdslmzz800000gn/T//ccC08pEc.s:3135   .text.USB_ReadDevInEPInterrupt:0000000000000000 USB_ReadDevInEPInterrupt
/var/folders/26/q55yrwgs1ql1lprjdslmzz800000gn/T//ccC08pEc.s:3194   .text.USB_ClearInterrupts:0000000000000000 $t
/var/folders/26/q55yrwgs1ql1lprjdslmzz800000gn/T//ccC08pEc.s:3200   .text.USB_ClearInterrupts:0000000000000000 USB_ClearInterrupts
/var/folders/26/q55yrwgs1ql1lprjdslmzz800000gn/T//ccC08pEc.s:3219   .text.USB_GetMode:0000000000000000 $t
/var/folders/26/q55yrwgs1ql1lprjdslmzz800000gn/T//ccC08pEc.s:3225   .text.USB_GetMode:0000000000000000 USB_GetMode
/var/folders/26/q55yrwgs1ql1lprjdslmzz800000gn/T//ccC08pEc.s:3244   .text.USB_ActivateSetup:0000000000000000 $t
/var/folders/26/q55yrwgs1ql1lprjdslmzz800000gn/T//ccC08pEc.s:3250   .text.USB_ActivateSetup:0000000000000000 USB_ActivateSetup
/var/folders/26/q55yrwgs1ql1lprjdslmzz800000gn/T//ccC08pEc.s:3279   .text.USB_ActivateSetup:000000000000001c $d
/var/folders/26/q55yrwgs1ql1lprjdslmzz800000gn/T//ccC08pEc.s:3284   .text.USB_EP0_OutStart:0000000000000000 $t
/var/folders/26/q55yrwgs1ql1lprjdslmzz800000gn/T//ccC08pEc.s:3290   .text.USB_EP0_OutStart:0000000000000000 USB_EP0_OutStart
/var/folders/26/q55yrwgs1ql1lprjdslmzz800000gn/T//ccC08pEc.s:3373   .text.USB_EP0_OutStart:000000000000005c $d
/var/folders/26/q55yrwgs1ql1lprjdslmzz800000gn/T//ccC08pEc.s:3378   .text.USB_InitFSLSPClkSel:0000000000000000 $t
/var/folders/26/q55yrwgs1ql1lprjdslmzz800000gn/T//ccC08pEc.s:3384   .text.USB_InitFSLSPClkSel:0000000000000000 USB_InitFSLSPClkSel
/var/folders/26/q55yrwgs1ql1lprjdslmzz800000gn/T//ccC08pEc.s:3440   .text.USB_ResetPort:0000000000000000 $t
/var/folders/26/q55yrwgs1ql1lprjdslmzz800000gn/T//ccC08pEc.s:3446   .text.USB_ResetPort:0000000000000000 USB_ResetPort
/var/folders/26/q55yrwgs1ql1lprjdslmzz800000gn/T//ccC08pEc.s:3515   .text.USB_DriveVbus:0000000000000000 $t
/var/folders/26/q55yrwgs1ql1lprjdslmzz800000gn/T//ccC08pEc.s:3521   .text.USB_DriveVbus:0000000000000000 USB_DriveVbus
/var/folders/26/q55yrwgs1ql1lprjdslmzz800000gn/T//ccC08pEc.s:3600   .text.USB_HostInit:0000000000000000 $t
/var/folders/26/q55yrwgs1ql1lprjdslmzz800000gn/T//ccC08pEc.s:3606   .text.USB_HostInit:0000000000000000 USB_HostInit
/var/folders/26/q55yrwgs1ql1lprjdslmzz800000gn/T//ccC08pEc.s:3803   .text.USB_HostInit:00000000000000e8 $d
/var/folders/26/q55yrwgs1ql1lprjdslmzz800000gn/T//ccC08pEc.s:3810   .text.USB_GetHostSpeed:0000000000000000 $t
/var/folders/26/q55yrwgs1ql1lprjdslmzz800000gn/T//ccC08pEc.s:3816   .text.USB_GetHostSpeed:0000000000000000 USB_GetHostSpeed
/var/folders/26/q55yrwgs1ql1lprjdslmzz800000gn/T//ccC08pEc.s:3854   .text.USB_GetCurrentFrame:0000000000000000 $t
/var/folders/26/q55yrwgs1ql1lprjdslmzz800000gn/T//ccC08pEc.s:3860   .text.USB_GetCurrentFrame:0000000000000000 USB_GetCurrentFrame
/var/folders/26/q55yrwgs1ql1lprjdslmzz800000gn/T//ccC08pEc.s:3883   .text.USB_HC_Init:0000000000000000 $t
/var/folders/26/q55yrwgs1ql1lprjdslmzz800000gn/T//ccC08pEc.s:3889   .text.USB_HC_Init:0000000000000000 USB_HC_Init
/var/folders/26/q55yrwgs1ql1lprjdslmzz800000gn/T//ccC08pEc.s:3930   .text.USB_HC_Init:0000000000000022 $d
/var/folders/26/q55yrwgs1ql1lprjdslmzz800000gn/T//ccC08pEc.s:3934   .text.USB_HC_Init:0000000000000026 $t
/var/folders/26/q55yrwgs1ql1lprjdslmzz800000gn/T//ccC08pEc.s:4125   .text.USB_HC_ReadInterrupt:0000000000000000 $t
/var/folders/26/q55yrwgs1ql1lprjdslmzz800000gn/T//ccC08pEc.s:4131   .text.USB_HC_ReadInterrupt:0000000000000000 USB_HC_ReadInterrupt
/var/folders/26/q55yrwgs1ql1lprjdslmzz800000gn/T//ccC08pEc.s:4154   .text.USB_HC_Halt:0000000000000000 $t
/var/folders/26/q55yrwgs1ql1lprjdslmzz800000gn/T//ccC08pEc.s:4160   .text.USB_HC_Halt:0000000000000000 USB_HC_Halt
/var/folders/26/q55yrwgs1ql1lprjdslmzz800000gn/T//ccC08pEc.s:4339   .text.USB_DoPing:0000000000000000 $t
/var/folders/26/q55yrwgs1ql1lprjdslmzz800000gn/T//ccC08pEc.s:4345   .text.USB_DoPing:0000000000000000 USB_DoPing
/var/folders/26/q55yrwgs1ql1lprjdslmzz800000gn/T//ccC08pEc.s:4387   .text.USB_DoPing:0000000000000020 $d
/var/folders/26/q55yrwgs1ql1lprjdslmzz800000gn/T//ccC08pEc.s:4392   .text.USB_HC_StartXfer:0000000000000000 $t
/var/folders/26/q55yrwgs1ql1lprjdslmzz800000gn/T//ccC08pEc.s:4398   .text.USB_HC_StartXfer:0000000000000000 USB_HC_StartXfer
/var/folders/26/q55yrwgs1ql1lprjdslmzz800000gn/T//ccC08pEc.s:4633   .text.USB_HC_StartXfer:0000000000000114 $d
/var/folders/26/q55yrwgs1ql1lprjdslmzz800000gn/T//ccC08pEc.s:4638   .text.USB_HC_StartXfer:0000000000000118 $t
/var/folders/26/q55yrwgs1ql1lprjdslmzz800000gn/T//ccC08pEc.s:4726   .text.USB_HC_StartXfer:000000000000016c $d
/var/folders/26/q55yrwgs1ql1lprjdslmzz800000gn/T//ccC08pEc.s:4731   .text.USB_StopHost:0000000000000000 $t
/var/folders/26/q55yrwgs1ql1lprjdslmzz800000gn/T//ccC08pEc.s:4737   .text.USB_StopHost:0000000000000000 USB_StopHost
ARM GAS  /var/folders/26/q55yrwgs1ql1lprjdslmzz800000gn/T//ccC08pEc.s 			page 147


/var/folders/26/q55yrwgs1ql1lprjdslmzz800000gn/T//ccC08pEc.s:4882   .text.USB_ActivateRemoteWakeup:0000000000000000 $t
/var/folders/26/q55yrwgs1ql1lprjdslmzz800000gn/T//ccC08pEc.s:4888   .text.USB_ActivateRemoteWakeup:0000000000000000 USB_ActivateRemoteWakeup
/var/folders/26/q55yrwgs1ql1lprjdslmzz800000gn/T//ccC08pEc.s:4922   .text.USB_DeActivateRemoteWakeup:0000000000000000 $t
/var/folders/26/q55yrwgs1ql1lprjdslmzz800000gn/T//ccC08pEc.s:4928   .text.USB_DeActivateRemoteWakeup:0000000000000000 USB_DeActivateRemoteWakeup

UNDEFINED SYMBOLS
HAL_Delay
